ARM GAS  C:\Users\ABAD_S~1\AppData\Local\Temp\ccMmqsUz.s 			page 1


   1              		.syntax unified
   2              		.cpu cortex-m0
   3              		.fpu softvfp
   4              		.eabi_attribute 20, 1
   5              		.eabi_attribute 21, 1
   6              		.eabi_attribute 23, 3
   7              		.eabi_attribute 24, 1
   8              		.eabi_attribute 25, 1
   9              		.eabi_attribute 26, 1
  10              		.eabi_attribute 30, 1
  11              		.eabi_attribute 34, 0
  12              		.eabi_attribute 18, 4
  13              		.thumb
  14              		.syntax unified
  15              		.file	"cyfitter_cfg.c"
  16              		.text
  17              	.Ltext0:
  18              		.cfi_sections	.debug_frame
  19              		.section	.text.cfg_write_bytes32,"ax",%progbits
  20              		.align	2
  21              		.code	16
  22              		.thumb_func
  23              		.type	cfg_write_bytes32, %function
  24              	cfg_write_bytes32:
  25              	.LFB3:
  26              		.file 1 "Generated_Source\\PSoC4\\cyfitter_cfg.c"
   1:Generated_Source\PSoC4/cyfitter_cfg.c **** 
   2:Generated_Source\PSoC4/cyfitter_cfg.c **** /*******************************************************************************
   3:Generated_Source\PSoC4/cyfitter_cfg.c **** * File Name: cyfitter_cfg.c
   4:Generated_Source\PSoC4/cyfitter_cfg.c **** * 
   5:Generated_Source\PSoC4/cyfitter_cfg.c **** * PSoC Creator  4.2
   6:Generated_Source\PSoC4/cyfitter_cfg.c **** *
   7:Generated_Source\PSoC4/cyfitter_cfg.c **** * Description:
   8:Generated_Source\PSoC4/cyfitter_cfg.c **** * This file contains device initialization code.
   9:Generated_Source\PSoC4/cyfitter_cfg.c **** * Except for the user defined sections in CyClockStartupError(), this file should not be modified.
  10:Generated_Source\PSoC4/cyfitter_cfg.c **** * This file is automatically generated by PSoC Creator.
  11:Generated_Source\PSoC4/cyfitter_cfg.c **** *
  12:Generated_Source\PSoC4/cyfitter_cfg.c **** ********************************************************************************
  13:Generated_Source\PSoC4/cyfitter_cfg.c **** * Copyright (c) 2007-2018 Cypress Semiconductor.  All rights reserved.
  14:Generated_Source\PSoC4/cyfitter_cfg.c **** * You may use this file only in accordance with the license, terms, conditions, 
  15:Generated_Source\PSoC4/cyfitter_cfg.c **** * disclaimers, and limitations in the end user license agreement accompanying 
  16:Generated_Source\PSoC4/cyfitter_cfg.c **** * the software package with which this file was provided.
  17:Generated_Source\PSoC4/cyfitter_cfg.c **** ********************************************************************************/
  18:Generated_Source\PSoC4/cyfitter_cfg.c **** 
  19:Generated_Source\PSoC4/cyfitter_cfg.c **** #include <string.h>
  20:Generated_Source\PSoC4/cyfitter_cfg.c **** #include "cytypes.h"
  21:Generated_Source\PSoC4/cyfitter_cfg.c **** #include "cydevice_trm.h"
  22:Generated_Source\PSoC4/cyfitter_cfg.c **** #include "cyfitter.h"
  23:Generated_Source\PSoC4/cyfitter_cfg.c **** #include "CyLib.h"
  24:Generated_Source\PSoC4/cyfitter_cfg.c **** #include "CyLFClk.h"
  25:Generated_Source\PSoC4/cyfitter_cfg.c **** #include "cyfitter_cfg.h"
  26:Generated_Source\PSoC4/cyfitter_cfg.c **** #include "cyapicallbacks.h"
  27:Generated_Source\PSoC4/cyfitter_cfg.c **** 
  28:Generated_Source\PSoC4/cyfitter_cfg.c **** 
  29:Generated_Source\PSoC4/cyfitter_cfg.c **** #if defined(__GNUC__) || defined(__ARMCC_VERSION)
  30:Generated_Source\PSoC4/cyfitter_cfg.c ****     #define CYPACKED 
  31:Generated_Source\PSoC4/cyfitter_cfg.c ****     #define CYPACKED_ATTR __attribute__ ((packed))
ARM GAS  C:\Users\ABAD_S~1\AppData\Local\Temp\ccMmqsUz.s 			page 2


  32:Generated_Source\PSoC4/cyfitter_cfg.c ****     #define CYALIGNED __attribute__ ((aligned))
  33:Generated_Source\PSoC4/cyfitter_cfg.c ****     #define CY_CFG_UNUSED __attribute__ ((unused))
  34:Generated_Source\PSoC4/cyfitter_cfg.c ****     #ifndef CY_CFG_SECTION
  35:Generated_Source\PSoC4/cyfitter_cfg.c ****         #define CY_CFG_SECTION __attribute__ ((section(".psocinit")))
  36:Generated_Source\PSoC4/cyfitter_cfg.c ****     #endif
  37:Generated_Source\PSoC4/cyfitter_cfg.c ****     
  38:Generated_Source\PSoC4/cyfitter_cfg.c ****     #if defined(__ARMCC_VERSION)
  39:Generated_Source\PSoC4/cyfitter_cfg.c ****         #define CY_CFG_MEMORY_BARRIER() __memory_changed()
  40:Generated_Source\PSoC4/cyfitter_cfg.c ****     #else
  41:Generated_Source\PSoC4/cyfitter_cfg.c ****         #define CY_CFG_MEMORY_BARRIER() __sync_synchronize()
  42:Generated_Source\PSoC4/cyfitter_cfg.c ****     #endif
  43:Generated_Source\PSoC4/cyfitter_cfg.c ****     
  44:Generated_Source\PSoC4/cyfitter_cfg.c **** #elif defined(__ICCARM__)
  45:Generated_Source\PSoC4/cyfitter_cfg.c ****     #include <intrinsics.h>
  46:Generated_Source\PSoC4/cyfitter_cfg.c **** 
  47:Generated_Source\PSoC4/cyfitter_cfg.c ****     #define CYPACKED __packed
  48:Generated_Source\PSoC4/cyfitter_cfg.c ****     #define CYPACKED_ATTR 
  49:Generated_Source\PSoC4/cyfitter_cfg.c ****     #define CYALIGNED _Pragma("data_alignment=4")
  50:Generated_Source\PSoC4/cyfitter_cfg.c ****     #define CY_CFG_UNUSED _Pragma("diag_suppress=Pe177")
  51:Generated_Source\PSoC4/cyfitter_cfg.c ****     #define CY_CFG_SECTION _Pragma("location=\".psocinit\"")
  52:Generated_Source\PSoC4/cyfitter_cfg.c ****     
  53:Generated_Source\PSoC4/cyfitter_cfg.c ****     #define CY_CFG_MEMORY_BARRIER() __DMB()
  54:Generated_Source\PSoC4/cyfitter_cfg.c ****     
  55:Generated_Source\PSoC4/cyfitter_cfg.c **** #else
  56:Generated_Source\PSoC4/cyfitter_cfg.c ****     #error Unsupported toolchain
  57:Generated_Source\PSoC4/cyfitter_cfg.c **** #endif
  58:Generated_Source\PSoC4/cyfitter_cfg.c **** 
  59:Generated_Source\PSoC4/cyfitter_cfg.c **** #ifndef CYCODE
  60:Generated_Source\PSoC4/cyfitter_cfg.c ****     #define CYCODE
  61:Generated_Source\PSoC4/cyfitter_cfg.c **** #endif
  62:Generated_Source\PSoC4/cyfitter_cfg.c **** #ifndef CYDATA
  63:Generated_Source\PSoC4/cyfitter_cfg.c ****     #define CYDATA
  64:Generated_Source\PSoC4/cyfitter_cfg.c **** #endif
  65:Generated_Source\PSoC4/cyfitter_cfg.c **** #ifndef CYFAR
  66:Generated_Source\PSoC4/cyfitter_cfg.c ****     #define CYFAR
  67:Generated_Source\PSoC4/cyfitter_cfg.c **** #endif
  68:Generated_Source\PSoC4/cyfitter_cfg.c **** #ifndef CYXDATA
  69:Generated_Source\PSoC4/cyfitter_cfg.c ****     #define CYXDATA
  70:Generated_Source\PSoC4/cyfitter_cfg.c **** #endif
  71:Generated_Source\PSoC4/cyfitter_cfg.c **** 
  72:Generated_Source\PSoC4/cyfitter_cfg.c **** 
  73:Generated_Source\PSoC4/cyfitter_cfg.c **** CY_CFG_UNUSED
  74:Generated_Source\PSoC4/cyfitter_cfg.c **** static void CYMEMZERO(void *s, size_t n);
  75:Generated_Source\PSoC4/cyfitter_cfg.c **** CY_CFG_UNUSED
  76:Generated_Source\PSoC4/cyfitter_cfg.c **** static void CYMEMZERO(void *s, size_t n)
  77:Generated_Source\PSoC4/cyfitter_cfg.c **** {
  78:Generated_Source\PSoC4/cyfitter_cfg.c **** 	(void)memset(s, 0, n);
  79:Generated_Source\PSoC4/cyfitter_cfg.c **** }
  80:Generated_Source\PSoC4/cyfitter_cfg.c **** CY_CFG_UNUSED
  81:Generated_Source\PSoC4/cyfitter_cfg.c **** static void CYCONFIGCPY(void *dest, const void *src, size_t n);
  82:Generated_Source\PSoC4/cyfitter_cfg.c **** CY_CFG_UNUSED
  83:Generated_Source\PSoC4/cyfitter_cfg.c **** static void CYCONFIGCPY(void *dest, const void *src, size_t n)
  84:Generated_Source\PSoC4/cyfitter_cfg.c **** {
  85:Generated_Source\PSoC4/cyfitter_cfg.c **** 	(void)memcpy(dest, src, n);
  86:Generated_Source\PSoC4/cyfitter_cfg.c **** }
  87:Generated_Source\PSoC4/cyfitter_cfg.c **** CY_CFG_UNUSED
  88:Generated_Source\PSoC4/cyfitter_cfg.c **** static void CYCONFIGCPYCODE(void *dest, const void *src, size_t n);
ARM GAS  C:\Users\ABAD_S~1\AppData\Local\Temp\ccMmqsUz.s 			page 3


  89:Generated_Source\PSoC4/cyfitter_cfg.c **** CY_CFG_UNUSED
  90:Generated_Source\PSoC4/cyfitter_cfg.c **** static void CYCONFIGCPYCODE(void *dest, const void *src, size_t n)
  91:Generated_Source\PSoC4/cyfitter_cfg.c **** {
  92:Generated_Source\PSoC4/cyfitter_cfg.c **** 	(void)memcpy(dest, src, n);
  93:Generated_Source\PSoC4/cyfitter_cfg.c **** }
  94:Generated_Source\PSoC4/cyfitter_cfg.c **** 
  95:Generated_Source\PSoC4/cyfitter_cfg.c **** 
  96:Generated_Source\PSoC4/cyfitter_cfg.c **** 
  97:Generated_Source\PSoC4/cyfitter_cfg.c **** 
  98:Generated_Source\PSoC4/cyfitter_cfg.c **** /* Clock startup error codes                                                   */
  99:Generated_Source\PSoC4/cyfitter_cfg.c **** #define CYCLOCKSTART_NO_ERROR    0u
 100:Generated_Source\PSoC4/cyfitter_cfg.c **** #define CYCLOCKSTART_XTAL_ERROR  1u
 101:Generated_Source\PSoC4/cyfitter_cfg.c **** #define CYCLOCKSTART_32KHZ_ERROR 2u
 102:Generated_Source\PSoC4/cyfitter_cfg.c **** #define CYCLOCKSTART_PLL_ERROR   3u
 103:Generated_Source\PSoC4/cyfitter_cfg.c **** #define CYCLOCKSTART_FLL_ERROR   4u
 104:Generated_Source\PSoC4/cyfitter_cfg.c **** #define CYCLOCKSTART_WCO_ERROR   5u
 105:Generated_Source\PSoC4/cyfitter_cfg.c **** 
 106:Generated_Source\PSoC4/cyfitter_cfg.c **** 
 107:Generated_Source\PSoC4/cyfitter_cfg.c **** #ifdef CY_NEED_CYCLOCKSTARTUPERROR
 108:Generated_Source\PSoC4/cyfitter_cfg.c **** /*******************************************************************************
 109:Generated_Source\PSoC4/cyfitter_cfg.c **** * Function Name: CyClockStartupError
 110:Generated_Source\PSoC4/cyfitter_cfg.c **** ********************************************************************************
 111:Generated_Source\PSoC4/cyfitter_cfg.c **** * Summary:
 112:Generated_Source\PSoC4/cyfitter_cfg.c **** *  If an error is encountered during clock configuration (crystal startup error,
 113:Generated_Source\PSoC4/cyfitter_cfg.c **** *  PLL lock error, etc.), the system will end up here.  Unless reimplemented by
 114:Generated_Source\PSoC4/cyfitter_cfg.c **** *  the customer, this function will stop in an infinite loop.
 115:Generated_Source\PSoC4/cyfitter_cfg.c **** *
 116:Generated_Source\PSoC4/cyfitter_cfg.c **** * Parameters:
 117:Generated_Source\PSoC4/cyfitter_cfg.c **** *   void
 118:Generated_Source\PSoC4/cyfitter_cfg.c **** *
 119:Generated_Source\PSoC4/cyfitter_cfg.c **** * Return:
 120:Generated_Source\PSoC4/cyfitter_cfg.c **** *   void
 121:Generated_Source\PSoC4/cyfitter_cfg.c **** *
 122:Generated_Source\PSoC4/cyfitter_cfg.c **** *******************************************************************************/
 123:Generated_Source\PSoC4/cyfitter_cfg.c **** CY_CFG_UNUSED
 124:Generated_Source\PSoC4/cyfitter_cfg.c **** static void CyClockStartupError(uint8 errorCode);
 125:Generated_Source\PSoC4/cyfitter_cfg.c **** CY_CFG_UNUSED
 126:Generated_Source\PSoC4/cyfitter_cfg.c **** static void CyClockStartupError(uint8 errorCode)
 127:Generated_Source\PSoC4/cyfitter_cfg.c **** {
 128:Generated_Source\PSoC4/cyfitter_cfg.c ****     /* To remove the compiler warning if errorCode not used.                */
 129:Generated_Source\PSoC4/cyfitter_cfg.c ****     errorCode = errorCode;
 130:Generated_Source\PSoC4/cyfitter_cfg.c **** 
 131:Generated_Source\PSoC4/cyfitter_cfg.c ****     /* If we have a clock startup error (bad MHz crystal, PLL lock, etc.),  */
 132:Generated_Source\PSoC4/cyfitter_cfg.c ****     /* we will end up here to allow the customer to implement something to  */
 133:Generated_Source\PSoC4/cyfitter_cfg.c ****     /* deal with the clock condition.                                       */
 134:Generated_Source\PSoC4/cyfitter_cfg.c **** 
 135:Generated_Source\PSoC4/cyfitter_cfg.c **** #ifdef CY_CFG_CLOCK_STARTUP_ERROR_CALLBACK
 136:Generated_Source\PSoC4/cyfitter_cfg.c ****     CY_CFG_Clock_Startup_ErrorCallback();
 137:Generated_Source\PSoC4/cyfitter_cfg.c **** #else
 138:Generated_Source\PSoC4/cyfitter_cfg.c ****     /*  If not using CY_CFG_CLOCK_STARTUP_ERROR_CALLBACK, place your clock startup code here. */
 139:Generated_Source\PSoC4/cyfitter_cfg.c ****     /* `#START CyClockStartupError` */
 140:Generated_Source\PSoC4/cyfitter_cfg.c **** 
 141:Generated_Source\PSoC4/cyfitter_cfg.c **** 
 142:Generated_Source\PSoC4/cyfitter_cfg.c **** 
 143:Generated_Source\PSoC4/cyfitter_cfg.c ****     /* `#END` */
 144:Generated_Source\PSoC4/cyfitter_cfg.c **** 
 145:Generated_Source\PSoC4/cyfitter_cfg.c ****     while(1) {}
ARM GAS  C:\Users\ABAD_S~1\AppData\Local\Temp\ccMmqsUz.s 			page 4


 146:Generated_Source\PSoC4/cyfitter_cfg.c **** #endif /* CY_CFG_CLOCK_STARTUP_ERROR_CALLBACK */
 147:Generated_Source\PSoC4/cyfitter_cfg.c **** }
 148:Generated_Source\PSoC4/cyfitter_cfg.c **** #endif
 149:Generated_Source\PSoC4/cyfitter_cfg.c **** 
 150:Generated_Source\PSoC4/cyfitter_cfg.c **** #define CY_CFG_BASE_ADDR_COUNT 8u
 151:Generated_Source\PSoC4/cyfitter_cfg.c **** CYPACKED typedef struct
 152:Generated_Source\PSoC4/cyfitter_cfg.c **** {
 153:Generated_Source\PSoC4/cyfitter_cfg.c **** 	uint8 offset;
 154:Generated_Source\PSoC4/cyfitter_cfg.c **** 	uint8 value;
 155:Generated_Source\PSoC4/cyfitter_cfg.c **** } CYPACKED_ATTR cy_cfg_addrvalue_t;
 156:Generated_Source\PSoC4/cyfitter_cfg.c **** 
 157:Generated_Source\PSoC4/cyfitter_cfg.c **** 
 158:Generated_Source\PSoC4/cyfitter_cfg.c **** 
 159:Generated_Source\PSoC4/cyfitter_cfg.c **** /*******************************************************************************
 160:Generated_Source\PSoC4/cyfitter_cfg.c **** * Function Name: cfg_write_bytes32
 161:Generated_Source\PSoC4/cyfitter_cfg.c **** ********************************************************************************
 162:Generated_Source\PSoC4/cyfitter_cfg.c **** * Summary:
 163:Generated_Source\PSoC4/cyfitter_cfg.c **** *  This function is used for setting up the chip configuration areas that
 164:Generated_Source\PSoC4/cyfitter_cfg.c **** *  contain relatively sparse data.
 165:Generated_Source\PSoC4/cyfitter_cfg.c **** *
 166:Generated_Source\PSoC4/cyfitter_cfg.c **** * Parameters:
 167:Generated_Source\PSoC4/cyfitter_cfg.c **** *   void
 168:Generated_Source\PSoC4/cyfitter_cfg.c **** *
 169:Generated_Source\PSoC4/cyfitter_cfg.c **** * Return:
 170:Generated_Source\PSoC4/cyfitter_cfg.c **** *   void
 171:Generated_Source\PSoC4/cyfitter_cfg.c **** *
 172:Generated_Source\PSoC4/cyfitter_cfg.c **** *******************************************************************************/
 173:Generated_Source\PSoC4/cyfitter_cfg.c **** static void cfg_write_bytes32(const uint32 addr_table[], const cy_cfg_addrvalue_t data_table[]);
 174:Generated_Source\PSoC4/cyfitter_cfg.c **** static void cfg_write_bytes32(const uint32 addr_table[], const cy_cfg_addrvalue_t data_table[])
 175:Generated_Source\PSoC4/cyfitter_cfg.c **** {
  27              		.loc 1 175 0
  28              		.cfi_startproc
  29              		@ args = 0, pretend = 0, frame = 0
  30              		@ frame_needed = 0, uses_anonymous_args = 0
  31              	.LVL0:
  32 0000 F0B5     		push	{r4, r5, r6, r7, lr}
  33              		.cfi_def_cfa_offset 20
  34              		.cfi_offset 4, -20
  35              		.cfi_offset 5, -16
  36              		.cfi_offset 6, -12
  37              		.cfi_offset 7, -8
  38              		.cfi_offset 14, -4
  39              	.LVL1:
 176:Generated_Source\PSoC4/cyfitter_cfg.c **** 	/* For 32-bit little-endian architectures */
 177:Generated_Source\PSoC4/cyfitter_cfg.c **** 	uint32 i, j = 0u;
  40              		.loc 1 177 0
  41 0002 0025     		movs	r5, #0
 178:Generated_Source\PSoC4/cyfitter_cfg.c **** 	for (i = 0u; i < CY_CFG_BASE_ADDR_COUNT; i++)
  42              		.loc 1 178 0
  43 0004 0027     		movs	r7, #0
  44 0006 11E0     		b	.L2
  45              	.LVL2:
  46              	.L5:
  47              	.LBB2:
 179:Generated_Source\PSoC4/cyfitter_cfg.c **** 	{
 180:Generated_Source\PSoC4/cyfitter_cfg.c **** 		uint32 baseAddr = addr_table[i];
  48              		.loc 1 180 0
ARM GAS  C:\Users\ABAD_S~1\AppData\Local\Temp\ccMmqsUz.s 			page 5


  49 0008 BB00     		lsls	r3, r7, #2
  50 000a C658     		ldr	r6, [r0, r3]
  51              	.LVL3:
 181:Generated_Source\PSoC4/cyfitter_cfg.c **** 		uint8 count = (uint8)baseAddr;
  52              		.loc 1 181 0
  53 000c F3B2     		uxtb	r3, r6
  54              	.LVL4:
 182:Generated_Source\PSoC4/cyfitter_cfg.c **** 		baseAddr &= 0xFFFFFF00u;
  55              		.loc 1 182 0
  56 000e FF22     		movs	r2, #255
  57 0010 9643     		bics	r6, r2
  58              	.LVL5:
 183:Generated_Source\PSoC4/cyfitter_cfg.c **** 		while (count != 0u)
  59              		.loc 1 183 0
  60 0012 08E0     		b	.L3
  61              	.L4:
 184:Generated_Source\PSoC4/cyfitter_cfg.c **** 		{
 185:Generated_Source\PSoC4/cyfitter_cfg.c **** 			CY_SET_REG8((void *)(baseAddr + data_table[j].offset), data_table[j].value);
  62              		.loc 1 185 0
  63 0014 6A00     		lsls	r2, r5, #1
  64 0016 8A18     		adds	r2, r1, r2
  65 0018 1478     		ldrb	r4, [r2]
  66 001a A419     		adds	r4, r4, r6
  67 001c 5278     		ldrb	r2, [r2, #1]
  68 001e 2270     		strb	r2, [r4]
 186:Generated_Source\PSoC4/cyfitter_cfg.c **** 			j++;
  69              		.loc 1 186 0
  70 0020 0135     		adds	r5, r5, #1
  71              	.LVL6:
 187:Generated_Source\PSoC4/cyfitter_cfg.c **** 			count--;
  72              		.loc 1 187 0
  73 0022 013B     		subs	r3, r3, #1
  74              	.LVL7:
  75 0024 DBB2     		uxtb	r3, r3
  76              	.LVL8:
  77              	.L3:
 183:Generated_Source\PSoC4/cyfitter_cfg.c **** 		{
  78              		.loc 1 183 0
  79 0026 002B     		cmp	r3, #0
  80 0028 F4D1     		bne	.L4
  81              	.LBE2:
 178:Generated_Source\PSoC4/cyfitter_cfg.c **** 	{
  82              		.loc 1 178 0 discriminator 2
  83 002a 0137     		adds	r7, r7, #1
  84              	.LVL9:
  85              	.L2:
 178:Generated_Source\PSoC4/cyfitter_cfg.c **** 	{
  86              		.loc 1 178 0 is_stmt 0 discriminator 1
  87 002c 072F     		cmp	r7, #7
  88 002e EBD9     		bls	.L5
 188:Generated_Source\PSoC4/cyfitter_cfg.c **** 		}
 189:Generated_Source\PSoC4/cyfitter_cfg.c **** 	}
 190:Generated_Source\PSoC4/cyfitter_cfg.c **** }
  89              		.loc 1 190 0 is_stmt 1
  90              		@ sp needed
  91              	.LVL10:
  92              	.LVL11:
ARM GAS  C:\Users\ABAD_S~1\AppData\Local\Temp\ccMmqsUz.s 			page 6


  93 0030 F0BD     		pop	{r4, r5, r6, r7, pc}
  94              		.cfi_endproc
  95              	.LFE3:
  96              		.size	cfg_write_bytes32, .-cfg_write_bytes32
  97 0032 C046     		.section	.text.CYMEMZERO,"ax",%progbits
  98              		.align	2
  99              		.code	16
 100              		.thumb_func
 101              		.type	CYMEMZERO, %function
 102              	CYMEMZERO:
 103              	.LFB0:
  77:Generated_Source\PSoC4/cyfitter_cfg.c **** 	(void)memset(s, 0, n);
 104              		.loc 1 77 0
 105              		.cfi_startproc
 106              		@ args = 0, pretend = 0, frame = 0
 107              		@ frame_needed = 0, uses_anonymous_args = 0
 108              	.LVL12:
 109 0000 10B5     		push	{r4, lr}
 110              		.cfi_def_cfa_offset 8
 111              		.cfi_offset 4, -8
 112              		.cfi_offset 14, -4
 113 0002 0A00     		movs	r2, r1
  78:Generated_Source\PSoC4/cyfitter_cfg.c **** }
 114              		.loc 1 78 0
 115 0004 0021     		movs	r1, #0
 116              	.LVL13:
 117 0006 FFF7FEFF 		bl	memset
 118              	.LVL14:
  79:Generated_Source\PSoC4/cyfitter_cfg.c **** CY_CFG_UNUSED
 119              		.loc 1 79 0
 120              		@ sp needed
 121 000a 10BD     		pop	{r4, pc}
 122              		.cfi_endproc
 123              	.LFE0:
 124              		.size	CYMEMZERO, .-CYMEMZERO
 125              		.section	.text.CYCONFIGCPYCODE,"ax",%progbits
 126              		.align	2
 127              		.code	16
 128              		.thumb_func
 129              		.type	CYCONFIGCPYCODE, %function
 130              	CYCONFIGCPYCODE:
 131              	.LFB2:
  91:Generated_Source\PSoC4/cyfitter_cfg.c **** 	(void)memcpy(dest, src, n);
 132              		.loc 1 91 0
 133              		.cfi_startproc
 134              		@ args = 0, pretend = 0, frame = 0
 135              		@ frame_needed = 0, uses_anonymous_args = 0
 136              	.LVL15:
 137 0000 10B5     		push	{r4, lr}
 138              		.cfi_def_cfa_offset 8
 139              		.cfi_offset 4, -8
 140              		.cfi_offset 14, -4
  92:Generated_Source\PSoC4/cyfitter_cfg.c **** }
 141              		.loc 1 92 0
 142 0002 FFF7FEFF 		bl	memcpy
 143              	.LVL16:
  93:Generated_Source\PSoC4/cyfitter_cfg.c **** 
ARM GAS  C:\Users\ABAD_S~1\AppData\Local\Temp\ccMmqsUz.s 			page 7


 144              		.loc 1 93 0
 145              		@ sp needed
 146 0006 10BD     		pop	{r4, pc}
 147              		.cfi_endproc
 148              	.LFE2:
 149              		.size	CYCONFIGCPYCODE, .-CYCONFIGCPYCODE
 150              		.section	.psocinit,"ax",%progbits
 151              		.align	2
 152              		.code	16
 153              		.thumb_func
 154              		.type	ClockSetup, %function
 155              	ClockSetup:
 156              	.LFB4:
 191:Generated_Source\PSoC4/cyfitter_cfg.c **** 
 192:Generated_Source\PSoC4/cyfitter_cfg.c **** 
 193:Generated_Source\PSoC4/cyfitter_cfg.c **** /*******************************************************************************
 194:Generated_Source\PSoC4/cyfitter_cfg.c **** * Function Name: ClockSetup
 195:Generated_Source\PSoC4/cyfitter_cfg.c **** ********************************************************************************
 196:Generated_Source\PSoC4/cyfitter_cfg.c **** *
 197:Generated_Source\PSoC4/cyfitter_cfg.c **** * Summary:
 198:Generated_Source\PSoC4/cyfitter_cfg.c **** *   Performs the initialization of all of the clocks in the device based on the
 199:Generated_Source\PSoC4/cyfitter_cfg.c **** *   settings in the Clock tab of the DWR.  This includes enabling the requested
 200:Generated_Source\PSoC4/cyfitter_cfg.c **** *   clocks and setting the necessary dividers to produce the desired frequency. 
 201:Generated_Source\PSoC4/cyfitter_cfg.c **** *
 202:Generated_Source\PSoC4/cyfitter_cfg.c **** * Parameters:
 203:Generated_Source\PSoC4/cyfitter_cfg.c **** *   void
 204:Generated_Source\PSoC4/cyfitter_cfg.c **** *
 205:Generated_Source\PSoC4/cyfitter_cfg.c **** * Return:
 206:Generated_Source\PSoC4/cyfitter_cfg.c **** *   void
 207:Generated_Source\PSoC4/cyfitter_cfg.c **** *
 208:Generated_Source\PSoC4/cyfitter_cfg.c **** *******************************************************************************/
 209:Generated_Source\PSoC4/cyfitter_cfg.c **** static void ClockSetup(void);
 210:Generated_Source\PSoC4/cyfitter_cfg.c **** CY_CFG_SECTION
 211:Generated_Source\PSoC4/cyfitter_cfg.c **** static void ClockSetup(void)
 212:Generated_Source\PSoC4/cyfitter_cfg.c **** {
 157              		.loc 1 212 0
 158              		.cfi_startproc
 159              		@ args = 0, pretend = 0, frame = 0
 160              		@ frame_needed = 0, uses_anonymous_args = 0
 161 0000 70B5     		push	{r4, r5, r6, lr}
 162              		.cfi_def_cfa_offset 16
 163              		.cfi_offset 4, -16
 164              		.cfi_offset 5, -12
 165              		.cfi_offset 6, -8
 166              		.cfi_offset 14, -4
 213:Generated_Source\PSoC4/cyfitter_cfg.c **** 	/* Enable HALF_EN before trimming for the flash accelerator. */
 214:Generated_Source\PSoC4/cyfitter_cfg.c **** 	CY_SET_REG32((void CYXDATA *)(CYREG_CLK_SELECT), (CY_GET_REG32((void *)CYREG_CLK_SELECT) | 0x00040
 167              		.loc 1 214 0
 168 0002 1C4C     		ldr	r4, .L9
 169 0004 2368     		ldr	r3, [r4]
 170 0006 8022     		movs	r2, #128
 171 0008 D202     		lsls	r2, r2, #11
 172 000a 1343     		orrs	r3, r2
 173 000c 2360     		str	r3, [r4]
 215:Generated_Source\PSoC4/cyfitter_cfg.c **** 
 216:Generated_Source\PSoC4/cyfitter_cfg.c **** 	/* Setup and trim IMO based on desired frequency. */
 217:Generated_Source\PSoC4/cyfitter_cfg.c **** 	CySysClkWriteImoFreq(24u);
ARM GAS  C:\Users\ABAD_S~1\AppData\Local\Temp\ccMmqsUz.s 			page 8


 174              		.loc 1 217 0
 175 000e 1820     		movs	r0, #24
 176 0010 FFF7FEFF 		bl	CySysClkWriteImoFreq
 177              	.LVL17:
 218:Generated_Source\PSoC4/cyfitter_cfg.c **** 
 219:Generated_Source\PSoC4/cyfitter_cfg.c **** 	/* Disable HALF_EN since it is not required at this IMO frequency. */
 220:Generated_Source\PSoC4/cyfitter_cfg.c **** 	CY_SET_REG32((void CYXDATA *)(CYREG_CLK_SELECT), (CY_GET_REG32((void *)CYREG_CLK_SELECT) & 0xFFFBF
 178              		.loc 1 220 0
 179 0014 2268     		ldr	r2, [r4]
 180 0016 184B     		ldr	r3, .L9+4
 181 0018 1340     		ands	r3, r2
 182 001a 2360     		str	r3, [r4]
 221:Generated_Source\PSoC4/cyfitter_cfg.c **** 	/* CYDEV_CLK_ILO_CONFIG Starting address: CYDEV_CLK_ILO_CONFIG */
 222:Generated_Source\PSoC4/cyfitter_cfg.c **** 	CY_SET_REG32((void *)(CYREG_CLK_ILO_CONFIG), 0x80000006u);
 183              		.loc 1 222 0
 184 001c 174A     		ldr	r2, .L9+8
 185 001e 184B     		ldr	r3, .L9+12
 186 0020 1A60     		str	r2, [r3]
 223:Generated_Source\PSoC4/cyfitter_cfg.c **** 
 224:Generated_Source\PSoC4/cyfitter_cfg.c **** 
 225:Generated_Source\PSoC4/cyfitter_cfg.c **** 	/* CYDEV_CLK_SELECT00 Starting address: CYDEV_CLK_SELECT00 */
 226:Generated_Source\PSoC4/cyfitter_cfg.c **** 	CY_SET_REG32((void *)(CYREG_CLK_SELECT02), 0x00000010u);
 187              		.loc 1 226 0
 188 0022 1022     		movs	r2, #16
 189 0024 174B     		ldr	r3, .L9+16
 190 0026 1A60     		str	r2, [r3]
 227:Generated_Source\PSoC4/cyfitter_cfg.c **** 	CY_SET_REG32((void *)(CYREG_CLK_SELECT08), 0x00000011u);
 191              		.loc 1 227 0
 192 0028 0132     		adds	r2, r2, #1
 193 002a 174B     		ldr	r3, .L9+20
 194 002c 1A60     		str	r2, [r3]
 228:Generated_Source\PSoC4/cyfitter_cfg.c **** 	CY_SET_REG32((void *)(CYREG_CLK_SELECT10), 0x00000020u);
 195              		.loc 1 228 0
 196 002e 0F32     		adds	r2, r2, #15
 197 0030 164B     		ldr	r3, .L9+24
 198 0032 1A60     		str	r2, [r3]
 229:Generated_Source\PSoC4/cyfitter_cfg.c **** 	CY_SET_REG32((void *)(CYREG_CLK_SELECT12), 0x00000030u);
 199              		.loc 1 229 0
 200 0034 1032     		adds	r2, r2, #16
 201 0036 164B     		ldr	r3, .L9+28
 202 0038 1A60     		str	r2, [r3]
 230:Generated_Source\PSoC4/cyfitter_cfg.c **** 
 231:Generated_Source\PSoC4/cyfitter_cfg.c **** 	/* CYDEV_CLK_IMO_CONFIG Starting address: CYDEV_CLK_IMO_CONFIG */
 232:Generated_Source\PSoC4/cyfitter_cfg.c **** 	CY_SET_REG32((void *)(CYREG_CLK_IMO_CONFIG), 0x80000000u);
 203              		.loc 1 232 0
 204 003a 8022     		movs	r2, #128
 205 003c 1206     		lsls	r2, r2, #24
 206 003e 154B     		ldr	r3, .L9+32
 207 0040 1A60     		str	r2, [r3]
 233:Generated_Source\PSoC4/cyfitter_cfg.c **** 
 234:Generated_Source\PSoC4/cyfitter_cfg.c **** 	/* CYDEV_CLK_SELECT Starting address: CYDEV_CLK_SELECT */
 235:Generated_Source\PSoC4/cyfitter_cfg.c **** 	CY_SET_REG32((void *)(CYREG_CLK_SELECT), 0x00000000u);
 208              		.loc 1 235 0
 209 0042 0025     		movs	r5, #0
 210 0044 2560     		str	r5, [r4]
 236:Generated_Source\PSoC4/cyfitter_cfg.c **** 
 237:Generated_Source\PSoC4/cyfitter_cfg.c **** 	/* CYDEV_CLK_DIVIDER_A00 Starting address: CYDEV_CLK_DIVIDER_A00 */
ARM GAS  C:\Users\ABAD_S~1\AppData\Local\Temp\ccMmqsUz.s 			page 9


 238:Generated_Source\PSoC4/cyfitter_cfg.c **** 	CY_SET_REG32((void *)(CYREG_CLK_DIVIDER_A00), 0x8000000Eu);
 211              		.loc 1 238 0
 212 0046 144A     		ldr	r2, .L9+36
 213 0048 144B     		ldr	r3, .L9+40
 214 004a 1A60     		str	r2, [r3]
 239:Generated_Source\PSoC4/cyfitter_cfg.c **** 
 240:Generated_Source\PSoC4/cyfitter_cfg.c **** 	/* CYDEV_CLK_DIVIDER_B00 Starting address: CYDEV_CLK_DIVIDER_B00 */
 241:Generated_Source\PSoC4/cyfitter_cfg.c **** 	CY_SET_REG32((void *)(CYREG_CLK_DIVIDER_B00), 0x80000034u);
 215              		.loc 1 241 0
 216 004c 144A     		ldr	r2, .L9+44
 217 004e 154B     		ldr	r3, .L9+48
 218 0050 1A60     		str	r2, [r3]
 242:Generated_Source\PSoC4/cyfitter_cfg.c **** 
 243:Generated_Source\PSoC4/cyfitter_cfg.c **** 	/* CYDEV_CLK_DIVIDER_C00 Starting address: CYDEV_CLK_DIVIDER_C00 */
 244:Generated_Source\PSoC4/cyfitter_cfg.c **** 	CY_SET_REG32((void *)(CYREG_CLK_DIVIDER_C00), 0x80000077u);
 219              		.loc 1 244 0
 220 0052 154A     		ldr	r2, .L9+52
 221 0054 154B     		ldr	r3, .L9+56
 222 0056 1A60     		str	r2, [r3]
 245:Generated_Source\PSoC4/cyfitter_cfg.c **** 
 246:Generated_Source\PSoC4/cyfitter_cfg.c **** 	/* CYDEV_CLK_DIVIDER_A01 Starting address: CYDEV_CLK_DIVIDER_A01 */
 247:Generated_Source\PSoC4/cyfitter_cfg.c **** 	CY_SET_REG32((void *)(CYREG_CLK_DIVIDER_A01), 0x800000EFu);
 223              		.loc 1 247 0
 224 0058 154A     		ldr	r2, .L9+60
 225 005a 164B     		ldr	r3, .L9+64
 226 005c 1A60     		str	r2, [r3]
 248:Generated_Source\PSoC4/cyfitter_cfg.c **** 
 249:Generated_Source\PSoC4/cyfitter_cfg.c **** 	(void)CyIntSetVector(9u, &CySysWdtIsr);
 227              		.loc 1 249 0
 228 005e 1649     		ldr	r1, .L9+68
 229 0060 0920     		movs	r0, #9
 230 0062 FFF7FEFF 		bl	CyIntSetVector
 231              	.LVL18:
 250:Generated_Source\PSoC4/cyfitter_cfg.c **** 	CyIntEnable(9u);
 232              		.loc 1 250 0
 233 0066 0920     		movs	r0, #9
 234 0068 FFF7FEFF 		bl	CyIntEnable
 235              	.LVL19:
 251:Generated_Source\PSoC4/cyfitter_cfg.c **** 	CY_SET_REG32((void *)(CYREG_WDT_CONFIG), 0x00000000u);
 236              		.loc 1 251 0
 237 006c 134B     		ldr	r3, .L9+72
 238 006e 1D60     		str	r5, [r3]
 252:Generated_Source\PSoC4/cyfitter_cfg.c **** }
 239              		.loc 1 252 0
 240              		@ sp needed
 241 0070 70BD     		pop	{r4, r5, r6, pc}
 242              	.L10:
 243 0072 C046     		.align	2
 244              	.L9:
 245 0074 00010B40 		.word	1074462976
 246 0078 FFFFFBFF 		.word	-262145
 247 007c 06000080 		.word	-2147483642
 248 0080 04010B40 		.word	1074462980
 249 0084 08020240 		.word	1073873416
 250 0088 20020240 		.word	1073873440
 251 008c 28020240 		.word	1073873448
 252 0090 30020240 		.word	1073873456
ARM GAS  C:\Users\ABAD_S~1\AppData\Local\Temp\ccMmqsUz.s 			page 10


 253 0094 08010B40 		.word	1074462984
 254 0098 0E000080 		.word	-2147483634
 255 009c 00000240 		.word	1073872896
 256 00a0 34000080 		.word	-2147483596
 257 00a4 40000240 		.word	1073872960
 258 00a8 77000080 		.word	-2147483529
 259 00ac 80000240 		.word	1073873024
 260 00b0 EF000080 		.word	-2147483409
 261 00b4 04000240 		.word	1073872900
 262 00b8 00000000 		.word	CySysWdtIsr
 263 00bc 0C020B40 		.word	1074463244
 264              		.cfi_endproc
 265              	.LFE4:
 266              		.size	ClockSetup, .-ClockSetup
 267              		.align	2
 268              		.global	cyfitter_cfg
 269              		.code	16
 270              		.thumb_func
 271              		.type	cyfitter_cfg, %function
 272              	cyfitter_cfg:
 273              	.LFB6:
 253:Generated_Source\PSoC4/cyfitter_cfg.c **** 
 254:Generated_Source\PSoC4/cyfitter_cfg.c **** 
 255:Generated_Source\PSoC4/cyfitter_cfg.c **** /* Analog API Functions */
 256:Generated_Source\PSoC4/cyfitter_cfg.c **** 
 257:Generated_Source\PSoC4/cyfitter_cfg.c **** 
 258:Generated_Source\PSoC4/cyfitter_cfg.c **** /*******************************************************************************
 259:Generated_Source\PSoC4/cyfitter_cfg.c **** * Function Name: AnalogSetDefault
 260:Generated_Source\PSoC4/cyfitter_cfg.c **** ********************************************************************************
 261:Generated_Source\PSoC4/cyfitter_cfg.c **** *
 262:Generated_Source\PSoC4/cyfitter_cfg.c **** * Summary:
 263:Generated_Source\PSoC4/cyfitter_cfg.c **** *  Sets up the analog portions of the chip to default values based on chip
 264:Generated_Source\PSoC4/cyfitter_cfg.c **** *  configuration options from the project.
 265:Generated_Source\PSoC4/cyfitter_cfg.c **** *
 266:Generated_Source\PSoC4/cyfitter_cfg.c **** * Parameters:
 267:Generated_Source\PSoC4/cyfitter_cfg.c **** *  void
 268:Generated_Source\PSoC4/cyfitter_cfg.c **** *
 269:Generated_Source\PSoC4/cyfitter_cfg.c **** * Return:
 270:Generated_Source\PSoC4/cyfitter_cfg.c **** *  void
 271:Generated_Source\PSoC4/cyfitter_cfg.c **** *
 272:Generated_Source\PSoC4/cyfitter_cfg.c **** *******************************************************************************/
 273:Generated_Source\PSoC4/cyfitter_cfg.c **** static void AnalogSetDefault(void);
 274:Generated_Source\PSoC4/cyfitter_cfg.c **** static void AnalogSetDefault(void)
 275:Generated_Source\PSoC4/cyfitter_cfg.c **** {
 276:Generated_Source\PSoC4/cyfitter_cfg.c **** }
 277:Generated_Source\PSoC4/cyfitter_cfg.c **** 
 278:Generated_Source\PSoC4/cyfitter_cfg.c **** 
 279:Generated_Source\PSoC4/cyfitter_cfg.c **** 
 280:Generated_Source\PSoC4/cyfitter_cfg.c **** 
 281:Generated_Source\PSoC4/cyfitter_cfg.c **** /*******************************************************************************
 282:Generated_Source\PSoC4/cyfitter_cfg.c **** * Function Name: cyfitter_cfg
 283:Generated_Source\PSoC4/cyfitter_cfg.c **** ********************************************************************************
 284:Generated_Source\PSoC4/cyfitter_cfg.c **** * Summary:
 285:Generated_Source\PSoC4/cyfitter_cfg.c **** *  This function is called by the start-up code for the selected device. It
 286:Generated_Source\PSoC4/cyfitter_cfg.c **** *  performs all of the necessary device configuration based on the design
 287:Generated_Source\PSoC4/cyfitter_cfg.c **** *  settings.  This includes settings from the Design Wide Resources (DWR) such
 288:Generated_Source\PSoC4/cyfitter_cfg.c **** *  as Clocks and Pins as well as any component configuration that is necessary.
ARM GAS  C:\Users\ABAD_S~1\AppData\Local\Temp\ccMmqsUz.s 			page 11


 289:Generated_Source\PSoC4/cyfitter_cfg.c **** *
 290:Generated_Source\PSoC4/cyfitter_cfg.c **** * Parameters:
 291:Generated_Source\PSoC4/cyfitter_cfg.c **** *   void
 292:Generated_Source\PSoC4/cyfitter_cfg.c **** *
 293:Generated_Source\PSoC4/cyfitter_cfg.c **** * Return:
 294:Generated_Source\PSoC4/cyfitter_cfg.c **** *   void
 295:Generated_Source\PSoC4/cyfitter_cfg.c **** *
 296:Generated_Source\PSoC4/cyfitter_cfg.c **** *******************************************************************************/
 297:Generated_Source\PSoC4/cyfitter_cfg.c **** CY_CFG_SECTION
 298:Generated_Source\PSoC4/cyfitter_cfg.c **** void cyfitter_cfg(void)
 299:Generated_Source\PSoC4/cyfitter_cfg.c **** {
 274              		.loc 1 299 0
 275              		.cfi_startproc
 276              		@ args = 0, pretend = 0, frame = 0
 277              		@ frame_needed = 0, uses_anonymous_args = 0
 278 00c0 70B5     		push	{r4, r5, r6, lr}
 279              		.cfi_def_cfa_offset 16
 280              		.cfi_offset 4, -16
 281              		.cfi_offset 5, -12
 282              		.cfi_offset 6, -8
 283              		.cfi_offset 14, -4
 300:Generated_Source\PSoC4/cyfitter_cfg.c **** 	/* Disable interrupts by default. Let user enable if/when they want. */
 301:Generated_Source\PSoC4/cyfitter_cfg.c **** 	CyGlobalIntDisable;
 284              		.loc 1 301 0
 285              		.syntax divided
 286              	@ 301 "Generated_Source\PSoC4\cyfitter_cfg.c" 1
 287 00c2 72B6     		CPSID   i
 288              	@ 0 "" 2
 289              	.LVL20:
 290              		.thumb
 291              		.syntax unified
 292              	.LBB3:
 302:Generated_Source\PSoC4/cyfitter_cfg.c **** 
 303:Generated_Source\PSoC4/cyfitter_cfg.c **** 	{
 304:Generated_Source\PSoC4/cyfitter_cfg.c **** 		static const uint32 CYCODE cy_cfg_addr_table[] = {
 305:Generated_Source\PSoC4/cyfitter_cfg.c **** 			0x400F0001u, /* Base address: 0x400F0000 Count: 1 */
 306:Generated_Source\PSoC4/cyfitter_cfg.c **** 			0x400F312Du, /* Base address: 0x400F3100 Count: 45 */
 307:Generated_Source\PSoC4/cyfitter_cfg.c **** 			0x400F323Bu, /* Base address: 0x400F3200 Count: 59 */
 308:Generated_Source\PSoC4/cyfitter_cfg.c **** 			0x400F333Bu, /* Base address: 0x400F3300 Count: 59 */
 309:Generated_Source\PSoC4/cyfitter_cfg.c **** 			0x400F4008u, /* Base address: 0x400F4000 Count: 8 */
 310:Generated_Source\PSoC4/cyfitter_cfg.c **** 			0x400F4204u, /* Base address: 0x400F4200 Count: 4 */
 311:Generated_Source\PSoC4/cyfitter_cfg.c **** 			0x400F430Cu, /* Base address: 0x400F4300 Count: 12 */
 312:Generated_Source\PSoC4/cyfitter_cfg.c **** 			0x400F6002u, /* Base address: 0x400F6000 Count: 2 */
 313:Generated_Source\PSoC4/cyfitter_cfg.c **** 		};
 314:Generated_Source\PSoC4/cyfitter_cfg.c **** 
 315:Generated_Source\PSoC4/cyfitter_cfg.c **** 		static const cy_cfg_addrvalue_t CYCODE cy_cfg_data_table[] = {
 316:Generated_Source\PSoC4/cyfitter_cfg.c **** 			{0x81u, 0x0Fu},
 317:Generated_Source\PSoC4/cyfitter_cfg.c **** 			{0x04u, 0x20u},
 318:Generated_Source\PSoC4/cyfitter_cfg.c **** 			{0x06u, 0x22u},
 319:Generated_Source\PSoC4/cyfitter_cfg.c **** 			{0x07u, 0x40u},
 320:Generated_Source\PSoC4/cyfitter_cfg.c **** 			{0x0Cu, 0x82u},
 321:Generated_Source\PSoC4/cyfitter_cfg.c **** 			{0x0Eu, 0x28u},
 322:Generated_Source\PSoC4/cyfitter_cfg.c **** 			{0x17u, 0x16u},
 323:Generated_Source\PSoC4/cyfitter_cfg.c **** 			{0x1Du, 0x80u},
 324:Generated_Source\PSoC4/cyfitter_cfg.c **** 			{0x1Eu, 0x4Au},
 325:Generated_Source\PSoC4/cyfitter_cfg.c **** 			{0x24u, 0x21u},
 326:Generated_Source\PSoC4/cyfitter_cfg.c **** 			{0x25u, 0x38u},
ARM GAS  C:\Users\ABAD_S~1\AppData\Local\Temp\ccMmqsUz.s 			page 12


 327:Generated_Source\PSoC4/cyfitter_cfg.c **** 			{0x26u, 0x18u},
 328:Generated_Source\PSoC4/cyfitter_cfg.c **** 			{0x27u, 0x22u},
 329:Generated_Source\PSoC4/cyfitter_cfg.c **** 			{0x2Du, 0x80u},
 330:Generated_Source\PSoC4/cyfitter_cfg.c **** 			{0x2Eu, 0x01u},
 331:Generated_Source\PSoC4/cyfitter_cfg.c **** 			{0x2Fu, 0x28u},
 332:Generated_Source\PSoC4/cyfitter_cfg.c **** 			{0x36u, 0x08u},
 333:Generated_Source\PSoC4/cyfitter_cfg.c **** 			{0x37u, 0x11u},
 334:Generated_Source\PSoC4/cyfitter_cfg.c **** 			{0x3Au, 0x04u},
 335:Generated_Source\PSoC4/cyfitter_cfg.c **** 			{0x3Bu, 0x04u},
 336:Generated_Source\PSoC4/cyfitter_cfg.c **** 			{0x3Cu, 0x01u},
 337:Generated_Source\PSoC4/cyfitter_cfg.c **** 			{0x3Du, 0x20u},
 338:Generated_Source\PSoC4/cyfitter_cfg.c **** 			{0x3Fu, 0x80u},
 339:Generated_Source\PSoC4/cyfitter_cfg.c **** 			{0x45u, 0xA8u},
 340:Generated_Source\PSoC4/cyfitter_cfg.c **** 			{0x47u, 0x02u},
 341:Generated_Source\PSoC4/cyfitter_cfg.c **** 			{0x4Eu, 0x01u},
 342:Generated_Source\PSoC4/cyfitter_cfg.c **** 			{0x4Fu, 0x08u},
 343:Generated_Source\PSoC4/cyfitter_cfg.c **** 			{0x56u, 0x56u},
 344:Generated_Source\PSoC4/cyfitter_cfg.c **** 			{0x57u, 0x40u},
 345:Generated_Source\PSoC4/cyfitter_cfg.c **** 			{0x66u, 0x01u},
 346:Generated_Source\PSoC4/cyfitter_cfg.c **** 			{0x6Cu, 0x02u},
 347:Generated_Source\PSoC4/cyfitter_cfg.c **** 			{0x6Eu, 0x01u},
 348:Generated_Source\PSoC4/cyfitter_cfg.c **** 			{0x6Fu, 0x5Du},
 349:Generated_Source\PSoC4/cyfitter_cfg.c **** 			{0x74u, 0x80u},
 350:Generated_Source\PSoC4/cyfitter_cfg.c **** 			{0x75u, 0x80u},
 351:Generated_Source\PSoC4/cyfitter_cfg.c **** 			{0x82u, 0x04u},
 352:Generated_Source\PSoC4/cyfitter_cfg.c **** 			{0x86u, 0x01u},
 353:Generated_Source\PSoC4/cyfitter_cfg.c **** 			{0xC0u, 0xF0u},
 354:Generated_Source\PSoC4/cyfitter_cfg.c **** 			{0xC2u, 0xF0u},
 355:Generated_Source\PSoC4/cyfitter_cfg.c **** 			{0xC4u, 0x70u},
 356:Generated_Source\PSoC4/cyfitter_cfg.c **** 			{0xCAu, 0xF0u},
 357:Generated_Source\PSoC4/cyfitter_cfg.c **** 			{0xCCu, 0xE0u},
 358:Generated_Source\PSoC4/cyfitter_cfg.c **** 			{0xCEu, 0xB0u},
 359:Generated_Source\PSoC4/cyfitter_cfg.c **** 			{0xD0u, 0xF0u},
 360:Generated_Source\PSoC4/cyfitter_cfg.c **** 			{0xD2u, 0x10u},
 361:Generated_Source\PSoC4/cyfitter_cfg.c **** 			{0xD8u, 0x80u},
 362:Generated_Source\PSoC4/cyfitter_cfg.c **** 			{0x00u, 0xCDu},
 363:Generated_Source\PSoC4/cyfitter_cfg.c **** 			{0x01u, 0x07u},
 364:Generated_Source\PSoC4/cyfitter_cfg.c **** 			{0x03u, 0x18u},
 365:Generated_Source\PSoC4/cyfitter_cfg.c **** 			{0x04u, 0xCDu},
 366:Generated_Source\PSoC4/cyfitter_cfg.c **** 			{0x08u, 0x8Du},
 367:Generated_Source\PSoC4/cyfitter_cfg.c **** 			{0x09u, 0x13u},
 368:Generated_Source\PSoC4/cyfitter_cfg.c **** 			{0x0Au, 0x40u},
 369:Generated_Source\PSoC4/cyfitter_cfg.c **** 			{0x0Bu, 0x0Cu},
 370:Generated_Source\PSoC4/cyfitter_cfg.c **** 			{0x0Cu, 0x02u},
 371:Generated_Source\PSoC4/cyfitter_cfg.c **** 			{0x0Eu, 0x0Du},
 372:Generated_Source\PSoC4/cyfitter_cfg.c **** 			{0x10u, 0x4Du},
 373:Generated_Source\PSoC4/cyfitter_cfg.c **** 			{0x12u, 0x80u},
 374:Generated_Source\PSoC4/cyfitter_cfg.c **** 			{0x14u, 0x72u},
 375:Generated_Source\PSoC4/cyfitter_cfg.c **** 			{0x16u, 0x08u},
 376:Generated_Source\PSoC4/cyfitter_cfg.c **** 			{0x19u, 0x0Bu},
 377:Generated_Source\PSoC4/cyfitter_cfg.c **** 			{0x1Au, 0x80u},
 378:Generated_Source\PSoC4/cyfitter_cfg.c **** 			{0x1Bu, 0x14u},
 379:Generated_Source\PSoC4/cyfitter_cfg.c **** 			{0x1Cu, 0xCDu},
 380:Generated_Source\PSoC4/cyfitter_cfg.c **** 			{0x1Du, 0x04u},
 381:Generated_Source\PSoC4/cyfitter_cfg.c **** 			{0x1Fu, 0x1Au},
 382:Generated_Source\PSoC4/cyfitter_cfg.c **** 			{0x20u, 0x01u},
 383:Generated_Source\PSoC4/cyfitter_cfg.c **** 			{0x22u, 0x32u},
ARM GAS  C:\Users\ABAD_S~1\AppData\Local\Temp\ccMmqsUz.s 			page 13


 384:Generated_Source\PSoC4/cyfitter_cfg.c **** 			{0x24u, 0x10u},
 385:Generated_Source\PSoC4/cyfitter_cfg.c **** 			{0x26u, 0x60u},
 386:Generated_Source\PSoC4/cyfitter_cfg.c **** 			{0x28u, 0x12u},
 387:Generated_Source\PSoC4/cyfitter_cfg.c **** 			{0x2Au, 0x64u},
 388:Generated_Source\PSoC4/cyfitter_cfg.c **** 			{0x31u, 0x01u},
 389:Generated_Source\PSoC4/cyfitter_cfg.c **** 			{0x32u, 0x80u},
 390:Generated_Source\PSoC4/cyfitter_cfg.c **** 			{0x34u, 0x70u},
 391:Generated_Source\PSoC4/cyfitter_cfg.c **** 			{0x36u, 0x0Fu},
 392:Generated_Source\PSoC4/cyfitter_cfg.c **** 			{0x37u, 0x1Eu},
 393:Generated_Source\PSoC4/cyfitter_cfg.c **** 			{0x3Au, 0xA0u},
 394:Generated_Source\PSoC4/cyfitter_cfg.c **** 			{0x3Bu, 0x80u},
 395:Generated_Source\PSoC4/cyfitter_cfg.c **** 			{0x3Eu, 0x04u},
 396:Generated_Source\PSoC4/cyfitter_cfg.c **** 			{0x3Fu, 0x01u},
 397:Generated_Source\PSoC4/cyfitter_cfg.c **** 			{0x54u, 0x09u},
 398:Generated_Source\PSoC4/cyfitter_cfg.c **** 			{0x58u, 0x04u},
 399:Generated_Source\PSoC4/cyfitter_cfg.c **** 			{0x59u, 0x04u},
 400:Generated_Source\PSoC4/cyfitter_cfg.c **** 			{0x5Bu, 0x04u},
 401:Generated_Source\PSoC4/cyfitter_cfg.c **** 			{0x5Fu, 0x01u},
 402:Generated_Source\PSoC4/cyfitter_cfg.c **** 			{0x80u, 0x0Eu},
 403:Generated_Source\PSoC4/cyfitter_cfg.c **** 			{0x81u, 0x01u},
 404:Generated_Source\PSoC4/cyfitter_cfg.c **** 			{0x8Bu, 0x03u},
 405:Generated_Source\PSoC4/cyfitter_cfg.c **** 			{0x93u, 0x02u},
 406:Generated_Source\PSoC4/cyfitter_cfg.c **** 			{0x98u, 0x04u},
 407:Generated_Source\PSoC4/cyfitter_cfg.c **** 			{0x9Au, 0x09u},
 408:Generated_Source\PSoC4/cyfitter_cfg.c **** 			{0x9Bu, 0x03u},
 409:Generated_Source\PSoC4/cyfitter_cfg.c **** 			{0xA0u, 0x03u},
 410:Generated_Source\PSoC4/cyfitter_cfg.c **** 			{0xA2u, 0x04u},
 411:Generated_Source\PSoC4/cyfitter_cfg.c **** 			{0xA8u, 0x05u},
 412:Generated_Source\PSoC4/cyfitter_cfg.c **** 			{0xAAu, 0x0Au},
 413:Generated_Source\PSoC4/cyfitter_cfg.c **** 			{0xB0u, 0x0Fu},
 414:Generated_Source\PSoC4/cyfitter_cfg.c **** 			{0xB1u, 0x03u},
 415:Generated_Source\PSoC4/cyfitter_cfg.c **** 			{0xB8u, 0x02u},
 416:Generated_Source\PSoC4/cyfitter_cfg.c **** 			{0xD4u, 0x40u},
 417:Generated_Source\PSoC4/cyfitter_cfg.c **** 			{0xD8u, 0x04u},
 418:Generated_Source\PSoC4/cyfitter_cfg.c **** 			{0xD9u, 0x04u},
 419:Generated_Source\PSoC4/cyfitter_cfg.c **** 			{0xDBu, 0x04u},
 420:Generated_Source\PSoC4/cyfitter_cfg.c **** 			{0xDFu, 0x01u},
 421:Generated_Source\PSoC4/cyfitter_cfg.c **** 			{0x01u, 0x02u},
 422:Generated_Source\PSoC4/cyfitter_cfg.c **** 			{0x05u, 0x40u},
 423:Generated_Source\PSoC4/cyfitter_cfg.c **** 			{0x07u, 0x54u},
 424:Generated_Source\PSoC4/cyfitter_cfg.c **** 			{0x09u, 0x20u},
 425:Generated_Source\PSoC4/cyfitter_cfg.c **** 			{0x0Cu, 0x92u},
 426:Generated_Source\PSoC4/cyfitter_cfg.c **** 			{0x0Eu, 0x20u},
 427:Generated_Source\PSoC4/cyfitter_cfg.c **** 			{0x0Fu, 0x08u},
 428:Generated_Source\PSoC4/cyfitter_cfg.c **** 			{0x13u, 0x22u},
 429:Generated_Source\PSoC4/cyfitter_cfg.c **** 			{0x16u, 0x20u},
 430:Generated_Source\PSoC4/cyfitter_cfg.c **** 			{0x17u, 0x22u},
 431:Generated_Source\PSoC4/cyfitter_cfg.c **** 			{0x19u, 0x02u},
 432:Generated_Source\PSoC4/cyfitter_cfg.c **** 			{0x1Cu, 0x10u},
 433:Generated_Source\PSoC4/cyfitter_cfg.c **** 			{0x1Du, 0x50u},
 434:Generated_Source\PSoC4/cyfitter_cfg.c **** 			{0x1Fu, 0x20u},
 435:Generated_Source\PSoC4/cyfitter_cfg.c **** 			{0x21u, 0x02u},
 436:Generated_Source\PSoC4/cyfitter_cfg.c **** 			{0x24u, 0x80u},
 437:Generated_Source\PSoC4/cyfitter_cfg.c **** 			{0x25u, 0x80u},
 438:Generated_Source\PSoC4/cyfitter_cfg.c **** 			{0x26u, 0x80u},
 439:Generated_Source\PSoC4/cyfitter_cfg.c **** 			{0x29u, 0x10u},
 440:Generated_Source\PSoC4/cyfitter_cfg.c **** 			{0x2Au, 0x20u},
ARM GAS  C:\Users\ABAD_S~1\AppData\Local\Temp\ccMmqsUz.s 			page 14


 441:Generated_Source\PSoC4/cyfitter_cfg.c **** 			{0x31u, 0x22u},
 442:Generated_Source\PSoC4/cyfitter_cfg.c **** 			{0x36u, 0x80u},
 443:Generated_Source\PSoC4/cyfitter_cfg.c **** 			{0x37u, 0x20u},
 444:Generated_Source\PSoC4/cyfitter_cfg.c **** 			{0x38u, 0x21u},
 445:Generated_Source\PSoC4/cyfitter_cfg.c **** 			{0x3Cu, 0x01u},
 446:Generated_Source\PSoC4/cyfitter_cfg.c **** 			{0x3Du, 0x20u},
 447:Generated_Source\PSoC4/cyfitter_cfg.c **** 			{0x45u, 0x80u},
 448:Generated_Source\PSoC4/cyfitter_cfg.c **** 			{0x46u, 0x01u},
 449:Generated_Source\PSoC4/cyfitter_cfg.c **** 			{0x5Eu, 0x42u},
 450:Generated_Source\PSoC4/cyfitter_cfg.c **** 			{0x5Fu, 0x14u},
 451:Generated_Source\PSoC4/cyfitter_cfg.c **** 			{0x60u, 0x12u},
 452:Generated_Source\PSoC4/cyfitter_cfg.c **** 			{0x62u, 0x10u},
 453:Generated_Source\PSoC4/cyfitter_cfg.c **** 			{0x67u, 0x01u},
 454:Generated_Source\PSoC4/cyfitter_cfg.c **** 			{0x80u, 0x40u},
 455:Generated_Source\PSoC4/cyfitter_cfg.c **** 			{0x83u, 0x01u},
 456:Generated_Source\PSoC4/cyfitter_cfg.c **** 			{0x85u, 0x02u},
 457:Generated_Source\PSoC4/cyfitter_cfg.c **** 			{0x88u, 0x12u},
 458:Generated_Source\PSoC4/cyfitter_cfg.c **** 			{0x89u, 0x02u},
 459:Generated_Source\PSoC4/cyfitter_cfg.c **** 			{0x8Au, 0x40u},
 460:Generated_Source\PSoC4/cyfitter_cfg.c **** 			{0x8Bu, 0x10u},
 461:Generated_Source\PSoC4/cyfitter_cfg.c **** 			{0x90u, 0x21u},
 462:Generated_Source\PSoC4/cyfitter_cfg.c **** 			{0x92u, 0x40u},
 463:Generated_Source\PSoC4/cyfitter_cfg.c **** 			{0x93u, 0x04u},
 464:Generated_Source\PSoC4/cyfitter_cfg.c **** 			{0x9Au, 0x50u},
 465:Generated_Source\PSoC4/cyfitter_cfg.c **** 			{0x9Bu, 0x76u},
 466:Generated_Source\PSoC4/cyfitter_cfg.c **** 			{0x9Eu, 0x21u},
 467:Generated_Source\PSoC4/cyfitter_cfg.c **** 			{0xA0u, 0x82u},
 468:Generated_Source\PSoC4/cyfitter_cfg.c **** 			{0xA1u, 0x30u},
 469:Generated_Source\PSoC4/cyfitter_cfg.c **** 			{0xA2u, 0x11u},
 470:Generated_Source\PSoC4/cyfitter_cfg.c **** 			{0xA3u, 0x04u},
 471:Generated_Source\PSoC4/cyfitter_cfg.c **** 			{0xA7u, 0x20u},
 472:Generated_Source\PSoC4/cyfitter_cfg.c **** 			{0xC0u, 0xF8u},
 473:Generated_Source\PSoC4/cyfitter_cfg.c **** 			{0xC2u, 0xF2u},
 474:Generated_Source\PSoC4/cyfitter_cfg.c **** 			{0xC4u, 0x7Au},
 475:Generated_Source\PSoC4/cyfitter_cfg.c **** 			{0xCCu, 0x35u},
 476:Generated_Source\PSoC4/cyfitter_cfg.c **** 			{0xCEu, 0xA5u},
 477:Generated_Source\PSoC4/cyfitter_cfg.c **** 			{0xD6u, 0xF0u},
 478:Generated_Source\PSoC4/cyfitter_cfg.c **** 			{0xD8u, 0x1Eu},
 479:Generated_Source\PSoC4/cyfitter_cfg.c **** 			{0xE0u, 0x02u},
 480:Generated_Source\PSoC4/cyfitter_cfg.c **** 			{0x0Eu, 0x80u},
 481:Generated_Source\PSoC4/cyfitter_cfg.c **** 			{0x66u, 0x02u},
 482:Generated_Source\PSoC4/cyfitter_cfg.c **** 			{0x82u, 0x02u},
 483:Generated_Source\PSoC4/cyfitter_cfg.c **** 			{0x86u, 0x40u},
 484:Generated_Source\PSoC4/cyfitter_cfg.c **** 			{0xC2u, 0x20u},
 485:Generated_Source\PSoC4/cyfitter_cfg.c **** 			{0xD8u, 0x80u},
 486:Generated_Source\PSoC4/cyfitter_cfg.c **** 			{0xE4u, 0x40u},
 487:Generated_Source\PSoC4/cyfitter_cfg.c **** 			{0xE6u, 0x20u},
 488:Generated_Source\PSoC4/cyfitter_cfg.c **** 			{0x5Au, 0x02u},
 489:Generated_Source\PSoC4/cyfitter_cfg.c **** 			{0x60u, 0x10u},
 490:Generated_Source\PSoC4/cyfitter_cfg.c **** 			{0xD6u, 0x02u},
 491:Generated_Source\PSoC4/cyfitter_cfg.c **** 			{0xD8u, 0x02u},
 492:Generated_Source\PSoC4/cyfitter_cfg.c **** 			{0x18u, 0x10u},
 493:Generated_Source\PSoC4/cyfitter_cfg.c **** 			{0x22u, 0x01u},
 494:Generated_Source\PSoC4/cyfitter_cfg.c **** 			{0x52u, 0x10u},
 495:Generated_Source\PSoC4/cyfitter_cfg.c **** 			{0x59u, 0x40u},
 496:Generated_Source\PSoC4/cyfitter_cfg.c **** 			{0x86u, 0x10u},
 497:Generated_Source\PSoC4/cyfitter_cfg.c **** 			{0x89u, 0x40u},
ARM GAS  C:\Users\ABAD_S~1\AppData\Local\Temp\ccMmqsUz.s 			page 15


 498:Generated_Source\PSoC4/cyfitter_cfg.c **** 			{0x94u, 0x10u},
 499:Generated_Source\PSoC4/cyfitter_cfg.c **** 			{0x96u, 0x02u},
 500:Generated_Source\PSoC4/cyfitter_cfg.c **** 			{0xC6u, 0x08u},
 501:Generated_Source\PSoC4/cyfitter_cfg.c **** 			{0xC8u, 0x02u},
 502:Generated_Source\PSoC4/cyfitter_cfg.c **** 			{0xD4u, 0x05u},
 503:Generated_Source\PSoC4/cyfitter_cfg.c **** 			{0xE0u, 0x01u},
 504:Generated_Source\PSoC4/cyfitter_cfg.c **** 			{0x01u, 0x01u},
 505:Generated_Source\PSoC4/cyfitter_cfg.c **** 			{0x10u, 0x01u},
 506:Generated_Source\PSoC4/cyfitter_cfg.c **** 		};
 507:Generated_Source\PSoC4/cyfitter_cfg.c **** 
 508:Generated_Source\PSoC4/cyfitter_cfg.c **** 
 509:Generated_Source\PSoC4/cyfitter_cfg.c **** 
 510:Generated_Source\PSoC4/cyfitter_cfg.c **** 		CYPACKED typedef struct {
 511:Generated_Source\PSoC4/cyfitter_cfg.c **** 			void CYFAR *address;
 512:Generated_Source\PSoC4/cyfitter_cfg.c **** 			uint16 size;
 513:Generated_Source\PSoC4/cyfitter_cfg.c **** 		} CYPACKED_ATTR cfg_memset_t;
 514:Generated_Source\PSoC4/cyfitter_cfg.c **** 
 515:Generated_Source\PSoC4/cyfitter_cfg.c **** 
 516:Generated_Source\PSoC4/cyfitter_cfg.c **** 		CYPACKED typedef struct {
 517:Generated_Source\PSoC4/cyfitter_cfg.c **** 			void CYFAR *dest;
 518:Generated_Source\PSoC4/cyfitter_cfg.c **** 			const void CYCODE *src;
 519:Generated_Source\PSoC4/cyfitter_cfg.c **** 			uint16 size;
 520:Generated_Source\PSoC4/cyfitter_cfg.c **** 		} CYPACKED_ATTR cfg_memcpy_t;
 521:Generated_Source\PSoC4/cyfitter_cfg.c **** 
 522:Generated_Source\PSoC4/cyfitter_cfg.c **** 		static const cfg_memset_t CYCODE cfg_memset_list[] = {
 523:Generated_Source\PSoC4/cyfitter_cfg.c **** 			/* address, size */
 524:Generated_Source\PSoC4/cyfitter_cfg.c **** 			{(void CYFAR *)(CYDEV_UDB_P0_U0_BASE), 128u},
 525:Generated_Source\PSoC4/cyfitter_cfg.c **** 			{(void CYFAR *)(CYDEV_UDB_P0_ROUTE_BASE), 768u},
 526:Generated_Source\PSoC4/cyfitter_cfg.c **** 			{(void CYFAR *)(CYDEV_UDB_DSI0_BASE), 1024u},
 527:Generated_Source\PSoC4/cyfitter_cfg.c **** 		};
 528:Generated_Source\PSoC4/cyfitter_cfg.c **** 
 529:Generated_Source\PSoC4/cyfitter_cfg.c **** 		/* UDB_0_1_1_CONFIG Address: CYDEV_UDB_P0_U1_BASE Size (bytes): 128 */
 530:Generated_Source\PSoC4/cyfitter_cfg.c **** 		static const uint8 CYCODE BS_UDB_0_1_1_CONFIG_VAL[] = {
 531:Generated_Source\PSoC4/cyfitter_cfg.c **** 			0x84u, 0x33u, 0x00u, 0x44u, 0x04u, 0x00u, 0x00u, 0x00u, 0x0Au, 0x9Cu, 0x10u, 0x03u, 0x60u, 0x82u
 532:Generated_Source\PSoC4/cyfitter_cfg.c **** 			0x04u, 0x18u, 0x80u, 0x02u, 0x56u, 0xC1u, 0x09u, 0x38u, 0x01u, 0x18u, 0x00u, 0x02u, 0x84u, 0x00u
 533:Generated_Source\PSoC4/cyfitter_cfg.c **** 			0x07u, 0x1Au, 0x38u, 0x00u, 0x80u, 0x18u, 0x04u, 0x00u, 0x84u, 0x02u, 0x00u, 0x18u, 0x00u, 0x1Au
 534:Generated_Source\PSoC4/cyfitter_cfg.c **** 			0x08u, 0x00u, 0x00u, 0x0Fu, 0x7Fu, 0xE0u, 0x80u, 0x13u, 0x20u, 0x00u, 0x00u, 0x28u, 0x00u, 0x00u
 535:Generated_Source\PSoC4/cyfitter_cfg.c **** 			0x32u, 0x04u, 0x10u, 0x00u, 0x05u, 0x0Du, 0xFCu, 0xBEu, 0x3Du, 0xFFu, 0xFFu, 0xFFu, 0x22u, 0x00u
 536:Generated_Source\PSoC4/cyfitter_cfg.c **** 			0x04u, 0x00u, 0x00u, 0x00u, 0x00u, 0x00u, 0x02u, 0x2Cu, 0x04u, 0x04u, 0x04u, 0x04u, 0x00u, 0x00u
 537:Generated_Source\PSoC4/cyfitter_cfg.c **** 			0x00u, 0x00u, 0xC0u, 0x00u, 0x40u, 0x01u, 0x10u, 0x11u, 0xC0u, 0x01u, 0x00u, 0x11u, 0x40u, 0x01u
 538:Generated_Source\PSoC4/cyfitter_cfg.c **** 			0x00u, 0x00u, 0x00u, 0x00u, 0x00u, 0x00u, 0x00u, 0x00u, 0x00u, 0x00u, 0x00u, 0x00u, 0x00u, 0x00u
 539:Generated_Source\PSoC4/cyfitter_cfg.c **** 
 540:Generated_Source\PSoC4/cyfitter_cfg.c **** 		static const cfg_memcpy_t CYCODE cfg_memcpy_list [] = {
 541:Generated_Source\PSoC4/cyfitter_cfg.c **** 			/* dest, src, size */
 542:Generated_Source\PSoC4/cyfitter_cfg.c **** 			{(void CYFAR *)(CYDEV_UDB_P0_U1_BASE), BS_UDB_0_1_1_CONFIG_VAL, 128u},
 543:Generated_Source\PSoC4/cyfitter_cfg.c **** 		};
 544:Generated_Source\PSoC4/cyfitter_cfg.c **** 
 545:Generated_Source\PSoC4/cyfitter_cfg.c **** 		uint8 CYDATA i;
 546:Generated_Source\PSoC4/cyfitter_cfg.c **** 
 547:Generated_Source\PSoC4/cyfitter_cfg.c **** 		/* Zero out critical memory blocks before beginning configuration */
 548:Generated_Source\PSoC4/cyfitter_cfg.c **** 		for (i = 0u; i < (sizeof(cfg_memset_list)/sizeof(cfg_memset_list[0])); i++)
 293              		.loc 1 548 0
 294 00c4 0024     		movs	r4, #0
 295 00c6 0FE0     		b	.L12
 296              	.LVL21:
 297              	.L13:
 298              	.LBB4:
ARM GAS  C:\Users\ABAD_S~1\AppData\Local\Temp\ccMmqsUz.s 			page 16


 549:Generated_Source\PSoC4/cyfitter_cfg.c **** 		{
 550:Generated_Source\PSoC4/cyfitter_cfg.c **** 			const cfg_memset_t CYCODE * CYDATA ms = &cfg_memset_list[i];
 551:Generated_Source\PSoC4/cyfitter_cfg.c **** 			CYMEMZERO(ms->address, (size_t)(uint32)(ms->size));
 299              		.loc 1 551 0 discriminator 3
 300 00c8 4148     		ldr	r0, .L16
 301 00ca 6200     		lsls	r2, r4, #1
 302 00cc 1319     		adds	r3, r2, r4
 303 00ce 5900     		lsls	r1, r3, #1
 304 00d0 0B00     		movs	r3, r1
 305 00d2 4118     		adds	r1, r0, r1
 306 00d4 8988     		ldrh	r1, [r1, #4]
 307 00d6 1A5A     		ldrh	r2, [r3, r0]
 308 00d8 C318     		adds	r3, r0, r3
 309 00da 5888     		ldrh	r0, [r3, #2]
 310 00dc 0004     		lsls	r0, r0, #16
 311 00de 1043     		orrs	r0, r2
 312 00e0 FFF7FEFF 		bl	CYMEMZERO
 313              	.LVL22:
 314              	.LBE4:
 548:Generated_Source\PSoC4/cyfitter_cfg.c **** 		{
 315              		.loc 1 548 0 discriminator 3
 316 00e4 0134     		adds	r4, r4, #1
 317              	.LVL23:
 318 00e6 E4B2     		uxtb	r4, r4
 319              	.LVL24:
 320              	.L12:
 548:Generated_Source\PSoC4/cyfitter_cfg.c **** 		{
 321              		.loc 1 548 0 is_stmt 0 discriminator 1
 322 00e8 022C     		cmp	r4, #2
 323 00ea EDD9     		bls	.L13
 324 00ec 0024     		movs	r4, #0
 325              	.LVL25:
 326 00ee 11E0     		b	.L14
 327              	.LVL26:
 328              	.L15:
 329              	.LBB5:
 552:Generated_Source\PSoC4/cyfitter_cfg.c **** 		}
 553:Generated_Source\PSoC4/cyfitter_cfg.c **** 
 554:Generated_Source\PSoC4/cyfitter_cfg.c **** 		/* Copy device configuration data into registers */
 555:Generated_Source\PSoC4/cyfitter_cfg.c **** 		for (i = 0u; i < (sizeof(cfg_memcpy_list)/sizeof(cfg_memcpy_list[0])); i++)
 556:Generated_Source\PSoC4/cyfitter_cfg.c **** 		{
 557:Generated_Source\PSoC4/cyfitter_cfg.c **** 			const cfg_memcpy_t CYCODE * CYDATA mc = &cfg_memcpy_list[i];
 558:Generated_Source\PSoC4/cyfitter_cfg.c **** 			void * CYDATA destPtr = mc->dest;
 330              		.loc 1 558 0 is_stmt 1 discriminator 3
 331 00f0 374E     		ldr	r6, .L16
 332 00f2 A200     		lsls	r2, r4, #2
 333 00f4 1319     		adds	r3, r2, r4
 334 00f6 5900     		lsls	r1, r3, #1
 335 00f8 7118     		adds	r1, r6, r1
 336 00fa 8D8A     		ldrh	r5, [r1, #20]
 337 00fc C88A     		ldrh	r0, [r1, #22]
 338 00fe 0004     		lsls	r0, r0, #16
 339 0100 2843     		orrs	r0, r5
 340              	.LVL27:
 559:Generated_Source\PSoC4/cyfitter_cfg.c **** 			const void CYCODE * CYDATA srcPtr = mc->src;
 341              		.loc 1 559 0 discriminator 3
 342 0102 0A8B     		ldrh	r2, [r1, #24]
ARM GAS  C:\Users\ABAD_S~1\AppData\Local\Temp\ccMmqsUz.s 			page 17


 343 0104 498B     		ldrh	r1, [r1, #26]
 344 0106 0904     		lsls	r1, r1, #16
 345 0108 1143     		orrs	r1, r2
 346              	.LVL28:
 560:Generated_Source\PSoC4/cyfitter_cfg.c **** 			uint16 CYDATA numBytes = mc->size;
 561:Generated_Source\PSoC4/cyfitter_cfg.c **** 			CYCONFIGCPYCODE(destPtr, srcPtr, numBytes);
 347              		.loc 1 561 0 discriminator 3
 348 010a 8022     		movs	r2, #128
 349 010c FFF7FEFF 		bl	CYCONFIGCPYCODE
 350              	.LVL29:
 351              	.LBE5:
 555:Generated_Source\PSoC4/cyfitter_cfg.c **** 		{
 352              		.loc 1 555 0 discriminator 3
 353 0110 0134     		adds	r4, r4, #1
 354              	.LVL30:
 355 0112 E4B2     		uxtb	r4, r4
 356              	.LVL31:
 357              	.L14:
 555:Generated_Source\PSoC4/cyfitter_cfg.c **** 		{
 358              		.loc 1 555 0 is_stmt 0 discriminator 1
 359 0114 002C     		cmp	r4, #0
 360 0116 EBD0     		beq	.L15
 562:Generated_Source\PSoC4/cyfitter_cfg.c **** 		}
 563:Generated_Source\PSoC4/cyfitter_cfg.c **** 
 564:Generated_Source\PSoC4/cyfitter_cfg.c **** 		cfg_write_bytes32(cy_cfg_addr_table, cy_cfg_data_table);
 361              		.loc 1 564 0 is_stmt 1
 362 0118 2D49     		ldr	r1, .L16
 363 011a 2031     		adds	r1, r1, #32
 364 011c 2D48     		ldr	r0, .L16+4
 365 011e 1C30     		adds	r0, r0, #28
 366 0120 FFF7FEFF 		bl	cfg_write_bytes32
 367              	.LVL32:
 565:Generated_Source\PSoC4/cyfitter_cfg.c **** 
 566:Generated_Source\PSoC4/cyfitter_cfg.c **** 		/* HSIOM Starting address: CYDEV_HSIOM_BASE */
 567:Generated_Source\PSoC4/cyfitter_cfg.c **** 		CY_SET_REG32((void *)(CYDEV_HSIOM_BASE), 0x00030000u);
 368              		.loc 1 567 0
 369 0124 C022     		movs	r2, #192
 370 0126 9202     		lsls	r2, r2, #10
 371 0128 2B4B     		ldr	r3, .L16+8
 372 012a 1A60     		str	r2, [r3]
 568:Generated_Source\PSoC4/cyfitter_cfg.c **** 		CY_SET_REG32((void *)(CYREG_HSIOM_PORT_SEL1), 0x00000008u);
 373              		.loc 1 568 0
 374 012c 0822     		movs	r2, #8
 375 012e 2B4B     		ldr	r3, .L16+12
 376 0130 1A60     		str	r2, [r3]
 569:Generated_Source\PSoC4/cyfitter_cfg.c **** 		CY_SET_REG32((void *)(CYREG_HSIOM_PORT_SEL2), 0x30300000u);
 377              		.loc 1 569 0
 378 0132 2B4A     		ldr	r2, .L16+16
 379 0134 2B4B     		ldr	r3, .L16+20
 380 0136 1A60     		str	r2, [r3]
 570:Generated_Source\PSoC4/cyfitter_cfg.c **** 		CY_SET_REG32((void *)(CYREG_HSIOM_PORT_SEL3), 0x0000EE33u);
 381              		.loc 1 570 0
 382 0138 2B4A     		ldr	r2, .L16+24
 383 013a 2C4B     		ldr	r3, .L16+28
 384 013c 1A60     		str	r2, [r3]
 571:Generated_Source\PSoC4/cyfitter_cfg.c **** 		CY_SET_REG32((void *)(CYREG_HSIOM_PORT_SEL4), 0x000000EEu);
 385              		.loc 1 571 0
ARM GAS  C:\Users\ABAD_S~1\AppData\Local\Temp\ccMmqsUz.s 			page 18


 386 013e EE22     		movs	r2, #238
 387 0140 2B4B     		ldr	r3, .L16+32
 388 0142 1A60     		str	r2, [r3]
 572:Generated_Source\PSoC4/cyfitter_cfg.c **** 
 573:Generated_Source\PSoC4/cyfitter_cfg.c **** 		/* UDB_PA_0 Starting address: CYDEV_UDB_PA0_BASE */
 574:Generated_Source\PSoC4/cyfitter_cfg.c **** 		CY_SET_REG32((void *)(CYDEV_UDB_PA0_BASE), 0x00990000u);
 389              		.loc 1 574 0
 390 0144 9923     		movs	r3, #153
 391 0146 1B04     		lsls	r3, r3, #16
 392 0148 2A4A     		ldr	r2, .L16+36
 393 014a 1360     		str	r3, [r2]
 575:Generated_Source\PSoC4/cyfitter_cfg.c **** 		CY_SET_REG32((void *)(CYREG_UDB_PA0_CFG8), 0x03000000u);
 394              		.loc 1 575 0
 395 014c C021     		movs	r1, #192
 396 014e 8904     		lsls	r1, r1, #18
 397 0150 294A     		ldr	r2, .L16+40
 398 0152 1160     		str	r1, [r2]
 576:Generated_Source\PSoC4/cyfitter_cfg.c **** 
 577:Generated_Source\PSoC4/cyfitter_cfg.c **** 		/* UDB_PA_1 Starting address: CYDEV_UDB_PA1_BASE */
 578:Generated_Source\PSoC4/cyfitter_cfg.c **** 		CY_SET_REG32((void *)(CYDEV_UDB_PA1_BASE), 0x00990000u);
 399              		.loc 1 578 0
 400 0154 294A     		ldr	r2, .L16+44
 401 0156 1360     		str	r3, [r2]
 579:Generated_Source\PSoC4/cyfitter_cfg.c **** 
 580:Generated_Source\PSoC4/cyfitter_cfg.c **** 		/* UDB_PA_2 Starting address: CYDEV_UDB_PA2_BASE */
 581:Generated_Source\PSoC4/cyfitter_cfg.c **** 		CY_SET_REG32((void *)(CYDEV_UDB_PA2_BASE), 0x00990000u);
 402              		.loc 1 581 0
 403 0158 294A     		ldr	r2, .L16+48
 404 015a 1360     		str	r3, [r2]
 582:Generated_Source\PSoC4/cyfitter_cfg.c **** 		CY_SET_REG32((void *)(CYREG_UDB_PA2_CFG8), 0x91000000u);
 405              		.loc 1 582 0
 406 015c 9121     		movs	r1, #145
 407 015e 0906     		lsls	r1, r1, #24
 408 0160 284A     		ldr	r2, .L16+52
 409 0162 1160     		str	r1, [r2]
 583:Generated_Source\PSoC4/cyfitter_cfg.c **** 
 584:Generated_Source\PSoC4/cyfitter_cfg.c **** 		/* UDB_PA_3 Starting address: CYDEV_UDB_PA3_BASE */
 585:Generated_Source\PSoC4/cyfitter_cfg.c **** 		CY_SET_REG32((void *)(CYDEV_UDB_PA3_BASE), 0x00990000u);
 410              		.loc 1 585 0
 411 0164 284A     		ldr	r2, .L16+56
 412 0166 1360     		str	r3, [r2]
 586:Generated_Source\PSoC4/cyfitter_cfg.c **** 		CY_SET_REG32((void *)(CYREG_UDB_PA3_CFG8), 0x00580000u);
 413              		.loc 1 586 0
 414 0168 B022     		movs	r2, #176
 415 016a D203     		lsls	r2, r2, #15
 416 016c 274B     		ldr	r3, .L16+60
 417 016e 1A60     		str	r2, [r3]
 587:Generated_Source\PSoC4/cyfitter_cfg.c **** 
 588:Generated_Source\PSoC4/cyfitter_cfg.c **** 		/* Enable UDB array and digital routing */
 589:Generated_Source\PSoC4/cyfitter_cfg.c **** 		CY_SET_XTND_REG8((void *)CYREG_UDB_UDBIF_WAIT_CFG, (uint8)((CY_GET_XTND_REG8((void *)CYREG_UDB_UD
 418              		.loc 1 589 0
 419 0170 2749     		ldr	r1, .L16+64
 420 0172 0B78     		ldrb	r3, [r1]
 421 0174 3C22     		movs	r2, #60
 422 0176 9343     		bics	r3, r2
 423 0178 1422     		movs	r2, #20
 424 017a 1343     		orrs	r3, r2
ARM GAS  C:\Users\ABAD_S~1\AppData\Local\Temp\ccMmqsUz.s 			page 19


 425 017c DBB2     		uxtb	r3, r3
 426 017e 0B70     		strb	r3, [r1]
 590:Generated_Source\PSoC4/cyfitter_cfg.c **** 		CY_SET_XTND_REG8((void *)CYREG_UDB_UDBIF_BANK_CTL, (uint8)(CY_GET_XTND_REG8((void *)CYREG_UDB_UDB
 427              		.loc 1 590 0
 428 0180 244A     		ldr	r2, .L16+68
 429 0182 1178     		ldrb	r1, [r2]
 430 0184 1623     		movs	r3, #22
 431 0186 0B43     		orrs	r3, r1
 432 0188 DBB2     		uxtb	r3, r3
 433 018a 1370     		strb	r3, [r2]
 434              	.LBE3:
 591:Generated_Source\PSoC4/cyfitter_cfg.c **** 	}
 592:Generated_Source\PSoC4/cyfitter_cfg.c **** 
 593:Generated_Source\PSoC4/cyfitter_cfg.c **** 	/* Perform second pass device configuration. These items must be configured in specific order afte
 594:Generated_Source\PSoC4/cyfitter_cfg.c **** 	/* IOPINS0_0 Starting address: CYDEV_PRT0_BASE */
 595:Generated_Source\PSoC4/cyfitter_cfg.c **** 	CY_SET_REG32((void *)(CYDEV_PRT0_BASE), 0x00000031u);
 435              		.loc 1 595 0
 436 018c 3122     		movs	r2, #49
 437 018e 224B     		ldr	r3, .L16+72
 438 0190 1A60     		str	r2, [r3]
 596:Generated_Source\PSoC4/cyfitter_cfg.c **** 	CY_SET_REG32((void *)(CYREG_PRT0_PC), 0x00012034u);
 439              		.loc 1 596 0
 440 0192 224A     		ldr	r2, .L16+76
 441 0194 224B     		ldr	r3, .L16+80
 442 0196 1A60     		str	r2, [r3]
 597:Generated_Source\PSoC4/cyfitter_cfg.c **** 
 598:Generated_Source\PSoC4/cyfitter_cfg.c **** 	/* IOPINS0_1 Starting address: CYDEV_PRT1_BASE */
 599:Generated_Source\PSoC4/cyfitter_cfg.c **** 	CY_SET_REG32((void *)(CYDEV_PRT1_BASE), 0x00000001u);
 443              		.loc 1 599 0
 444 0198 0122     		movs	r2, #1
 445 019a 224B     		ldr	r3, .L16+84
 446 019c 1A60     		str	r2, [r3]
 600:Generated_Source\PSoC4/cyfitter_cfg.c **** 	CY_SET_REG32((void *)(CYREG_PRT1_PC), 0x00000006u);
 447              		.loc 1 600 0
 448 019e 0532     		adds	r2, r2, #5
 449 01a0 214B     		ldr	r3, .L16+88
 450 01a2 1A60     		str	r2, [r3]
 601:Generated_Source\PSoC4/cyfitter_cfg.c **** 
 602:Generated_Source\PSoC4/cyfitter_cfg.c **** 	/* IOPINS0_2 Starting address: CYDEV_PRT2_BASE */
 603:Generated_Source\PSoC4/cyfitter_cfg.c **** 	CY_SET_REG32((void *)(CYDEV_PRT2_BASE), 0x000000A0u);
 451              		.loc 1 603 0
 452 01a4 9A32     		adds	r2, r2, #154
 453 01a6 214B     		ldr	r3, .L16+92
 454 01a8 1A60     		str	r2, [r3]
 604:Generated_Source\PSoC4/cyfitter_cfg.c **** 	CY_SET_REG32((void *)(CYREG_PRT2_PC), 0x00C30000u);
 455              		.loc 1 604 0
 456 01aa C322     		movs	r2, #195
 457 01ac 1204     		lsls	r2, r2, #16
 458 01ae 204B     		ldr	r3, .L16+96
 459 01b0 1A60     		str	r2, [r3]
 605:Generated_Source\PSoC4/cyfitter_cfg.c **** 
 606:Generated_Source\PSoC4/cyfitter_cfg.c **** 	/* IOPINS0_3 Starting address: CYDEV_PRT3_BASE */
 607:Generated_Source\PSoC4/cyfitter_cfg.c **** 	CY_SET_REG32((void *)(CYDEV_PRT3_BASE), 0x00000003u);
 460              		.loc 1 607 0
 461 01b2 0323     		movs	r3, #3
 462 01b4 1F4A     		ldr	r2, .L16+100
 463 01b6 1360     		str	r3, [r2]
ARM GAS  C:\Users\ABAD_S~1\AppData\Local\Temp\ccMmqsUz.s 			page 20


 608:Generated_Source\PSoC4/cyfitter_cfg.c **** 	CY_SET_REG32((void *)(CYREG_PRT3_PC), 0x00000DB6u);
 464              		.loc 1 608 0
 465 01b8 1F49     		ldr	r1, .L16+104
 466 01ba 204A     		ldr	r2, .L16+108
 467 01bc 1160     		str	r1, [r2]
 609:Generated_Source\PSoC4/cyfitter_cfg.c **** 
 610:Generated_Source\PSoC4/cyfitter_cfg.c **** 	/* IOPINS0_4 Starting address: CYDEV_PRT4_BASE */
 611:Generated_Source\PSoC4/cyfitter_cfg.c **** 	CY_SET_REG32((void *)(CYDEV_PRT4_BASE), 0x00000003u);
 468              		.loc 1 611 0
 469 01be 204A     		ldr	r2, .L16+112
 470 01c0 1360     		str	r3, [r2]
 612:Generated_Source\PSoC4/cyfitter_cfg.c **** 	CY_SET_REG32((void *)(CYREG_PRT4_PC), 0x00000024u);
 471              		.loc 1 612 0
 472 01c2 2422     		movs	r2, #36
 473 01c4 1F4B     		ldr	r3, .L16+116
 474 01c6 1A60     		str	r2, [r3]
 613:Generated_Source\PSoC4/cyfitter_cfg.c **** 
 614:Generated_Source\PSoC4/cyfitter_cfg.c **** 
 615:Generated_Source\PSoC4/cyfitter_cfg.c **** 	/* Setup clocks based on selections from Clock DWR */
 616:Generated_Source\PSoC4/cyfitter_cfg.c **** 	ClockSetup();
 475              		.loc 1 616 0
 476 01c8 FFF71AFF 		bl	ClockSetup
 477              	.LVL33:
 617:Generated_Source\PSoC4/cyfitter_cfg.c **** 
 618:Generated_Source\PSoC4/cyfitter_cfg.c **** 	/* Perform basic analog initialization to defaults */
 619:Generated_Source\PSoC4/cyfitter_cfg.c **** 	AnalogSetDefault();
 620:Generated_Source\PSoC4/cyfitter_cfg.c **** 
 621:Generated_Source\PSoC4/cyfitter_cfg.c **** }
 478              		.loc 1 621 0
 479              		@ sp needed
 480              	.LVL34:
 481 01cc 70BD     		pop	{r4, r5, r6, pc}
 482              	.L17:
 483 01ce C046     		.align	2
 484              	.L16:
 485 01d0 00000000 		.word	.LANCHOR0
 486 01d4 80010000 		.word	.LANCHOR1
 487 01d8 00000140 		.word	1073807360
 488 01dc 04000140 		.word	1073807364
 489 01e0 00003030 		.word	808452096
 490 01e4 08000140 		.word	1073807368
 491 01e8 33EE0000 		.word	60979
 492 01ec 0C000140 		.word	1073807372
 493 01f0 10000140 		.word	1073807376
 494 01f4 00500F40 		.word	1074745344
 495 01f8 08500F40 		.word	1074745352
 496 01fc 10500F40 		.word	1074745360
 497 0200 20500F40 		.word	1074745376
 498 0204 28500F40 		.word	1074745384
 499 0208 30500F40 		.word	1074745392
 500 020c 38500F40 		.word	1074745400
 501 0210 01700F40 		.word	1074753537
 502 0214 00700F40 		.word	1074753536
 503 0218 00000440 		.word	1074003968
 504 021c 34200100 		.word	73780
 505 0220 08000440 		.word	1074003976
 506 0224 00010440 		.word	1074004224
ARM GAS  C:\Users\ABAD_S~1\AppData\Local\Temp\ccMmqsUz.s 			page 21


 507 0228 08010440 		.word	1074004232
 508 022c 00020440 		.word	1074004480
 509 0230 08020440 		.word	1074004488
 510 0234 00030440 		.word	1074004736
 511 0238 B60D0000 		.word	3510
 512 023c 08030440 		.word	1074004744
 513 0240 00040440 		.word	1074004992
 514 0244 08040440 		.word	1074005000
 515              		.cfi_endproc
 516              	.LFE6:
 517              		.size	cyfitter_cfg, .-cyfitter_cfg
 518              		.section	.rodata
 519              		.align	2
 520              		.set	.LANCHOR0,. + 0
 521              		.set	.LANCHOR1,. + 384
 522              		.type	cfg_memset_list.4875, %object
 523              		.size	cfg_memset_list.4875, 18
 524              	cfg_memset_list.4875:
 525 0000 00300F40 		.word	1074737152
 526 0004 8000     		.short	128
 527 0006 00310F40 		.4byte	1074737408
 528 000a 0003     		.short	768
 529 000c 00400F40 		.word	1074741248
 530 0010 0004     		.short	1024
 531 0012 0000     		.space	2
 532              		.type	cfg_memcpy_list.4877, %object
 533              		.size	cfg_memcpy_list.4877, 10
 534              	cfg_memcpy_list.4877:
 535 0014 80300F40 		.word	1074737280
 536 0018 BC010000 		.word	BS_UDB_0_1_1_CONFIG_VAL.4876
 537 001c 8000     		.short	128
 538 001e 0000     		.space	2
 539              		.type	cy_cfg_data_table.4865, %object
 540              		.size	cy_cfg_data_table.4865, 380
 541              	cy_cfg_data_table.4865:
 542 0020 81       		.byte	-127
 543 0021 0F       		.byte	15
 544 0022 04       		.byte	4
 545 0023 20       		.byte	32
 546 0024 06       		.byte	6
 547 0025 22       		.byte	34
 548 0026 07       		.byte	7
 549 0027 40       		.byte	64
 550 0028 0C       		.byte	12
 551 0029 82       		.byte	-126
 552 002a 0E       		.byte	14
 553 002b 28       		.byte	40
 554 002c 17       		.byte	23
 555 002d 16       		.byte	22
 556 002e 1D       		.byte	29
 557 002f 80       		.byte	-128
 558 0030 1E       		.byte	30
 559 0031 4A       		.byte	74
 560 0032 24       		.byte	36
 561 0033 21       		.byte	33
 562 0034 25       		.byte	37
 563 0035 38       		.byte	56
ARM GAS  C:\Users\ABAD_S~1\AppData\Local\Temp\ccMmqsUz.s 			page 22


 564 0036 26       		.byte	38
 565 0037 18       		.byte	24
 566 0038 27       		.byte	39
 567 0039 22       		.byte	34
 568 003a 2D       		.byte	45
 569 003b 80       		.byte	-128
 570 003c 2E       		.byte	46
 571 003d 01       		.byte	1
 572 003e 2F       		.byte	47
 573 003f 28       		.byte	40
 574 0040 36       		.byte	54
 575 0041 08       		.byte	8
 576 0042 37       		.byte	55
 577 0043 11       		.byte	17
 578 0044 3A       		.byte	58
 579 0045 04       		.byte	4
 580 0046 3B       		.byte	59
 581 0047 04       		.byte	4
 582 0048 3C       		.byte	60
 583 0049 01       		.byte	1
 584 004a 3D       		.byte	61
 585 004b 20       		.byte	32
 586 004c 3F       		.byte	63
 587 004d 80       		.byte	-128
 588 004e 45       		.byte	69
 589 004f A8       		.byte	-88
 590 0050 47       		.byte	71
 591 0051 02       		.byte	2
 592 0052 4E       		.byte	78
 593 0053 01       		.byte	1
 594 0054 4F       		.byte	79
 595 0055 08       		.byte	8
 596 0056 56       		.byte	86
 597 0057 56       		.byte	86
 598 0058 57       		.byte	87
 599 0059 40       		.byte	64
 600 005a 66       		.byte	102
 601 005b 01       		.byte	1
 602 005c 6C       		.byte	108
 603 005d 02       		.byte	2
 604 005e 6E       		.byte	110
 605 005f 01       		.byte	1
 606 0060 6F       		.byte	111
 607 0061 5D       		.byte	93
 608 0062 74       		.byte	116
 609 0063 80       		.byte	-128
 610 0064 75       		.byte	117
 611 0065 80       		.byte	-128
 612 0066 82       		.byte	-126
 613 0067 04       		.byte	4
 614 0068 86       		.byte	-122
 615 0069 01       		.byte	1
 616 006a C0       		.byte	-64
 617 006b F0       		.byte	-16
 618 006c C2       		.byte	-62
 619 006d F0       		.byte	-16
 620 006e C4       		.byte	-60
ARM GAS  C:\Users\ABAD_S~1\AppData\Local\Temp\ccMmqsUz.s 			page 23


 621 006f 70       		.byte	112
 622 0070 CA       		.byte	-54
 623 0071 F0       		.byte	-16
 624 0072 CC       		.byte	-52
 625 0073 E0       		.byte	-32
 626 0074 CE       		.byte	-50
 627 0075 B0       		.byte	-80
 628 0076 D0       		.byte	-48
 629 0077 F0       		.byte	-16
 630 0078 D2       		.byte	-46
 631 0079 10       		.byte	16
 632 007a D8       		.byte	-40
 633 007b 80       		.byte	-128
 634 007c 00       		.byte	0
 635 007d CD       		.byte	-51
 636 007e 01       		.byte	1
 637 007f 07       		.byte	7
 638 0080 03       		.byte	3
 639 0081 18       		.byte	24
 640 0082 04       		.byte	4
 641 0083 CD       		.byte	-51
 642 0084 08       		.byte	8
 643 0085 8D       		.byte	-115
 644 0086 09       		.byte	9
 645 0087 13       		.byte	19
 646 0088 0A       		.byte	10
 647 0089 40       		.byte	64
 648 008a 0B       		.byte	11
 649 008b 0C       		.byte	12
 650 008c 0C       		.byte	12
 651 008d 02       		.byte	2
 652 008e 0E       		.byte	14
 653 008f 0D       		.byte	13
 654 0090 10       		.byte	16
 655 0091 4D       		.byte	77
 656 0092 12       		.byte	18
 657 0093 80       		.byte	-128
 658 0094 14       		.byte	20
 659 0095 72       		.byte	114
 660 0096 16       		.byte	22
 661 0097 08       		.byte	8
 662 0098 19       		.byte	25
 663 0099 0B       		.byte	11
 664 009a 1A       		.byte	26
 665 009b 80       		.byte	-128
 666 009c 1B       		.byte	27
 667 009d 14       		.byte	20
 668 009e 1C       		.byte	28
 669 009f CD       		.byte	-51
 670 00a0 1D       		.byte	29
 671 00a1 04       		.byte	4
 672 00a2 1F       		.byte	31
 673 00a3 1A       		.byte	26
 674 00a4 20       		.byte	32
 675 00a5 01       		.byte	1
 676 00a6 22       		.byte	34
 677 00a7 32       		.byte	50
ARM GAS  C:\Users\ABAD_S~1\AppData\Local\Temp\ccMmqsUz.s 			page 24


 678 00a8 24       		.byte	36
 679 00a9 10       		.byte	16
 680 00aa 26       		.byte	38
 681 00ab 60       		.byte	96
 682 00ac 28       		.byte	40
 683 00ad 12       		.byte	18
 684 00ae 2A       		.byte	42
 685 00af 64       		.byte	100
 686 00b0 31       		.byte	49
 687 00b1 01       		.byte	1
 688 00b2 32       		.byte	50
 689 00b3 80       		.byte	-128
 690 00b4 34       		.byte	52
 691 00b5 70       		.byte	112
 692 00b6 36       		.byte	54
 693 00b7 0F       		.byte	15
 694 00b8 37       		.byte	55
 695 00b9 1E       		.byte	30
 696 00ba 3A       		.byte	58
 697 00bb A0       		.byte	-96
 698 00bc 3B       		.byte	59
 699 00bd 80       		.byte	-128
 700 00be 3E       		.byte	62
 701 00bf 04       		.byte	4
 702 00c0 3F       		.byte	63
 703 00c1 01       		.byte	1
 704 00c2 54       		.byte	84
 705 00c3 09       		.byte	9
 706 00c4 58       		.byte	88
 707 00c5 04       		.byte	4
 708 00c6 59       		.byte	89
 709 00c7 04       		.byte	4
 710 00c8 5B       		.byte	91
 711 00c9 04       		.byte	4
 712 00ca 5F       		.byte	95
 713 00cb 01       		.byte	1
 714 00cc 80       		.byte	-128
 715 00cd 0E       		.byte	14
 716 00ce 81       		.byte	-127
 717 00cf 01       		.byte	1
 718 00d0 8B       		.byte	-117
 719 00d1 03       		.byte	3
 720 00d2 93       		.byte	-109
 721 00d3 02       		.byte	2
 722 00d4 98       		.byte	-104
 723 00d5 04       		.byte	4
 724 00d6 9A       		.byte	-102
 725 00d7 09       		.byte	9
 726 00d8 9B       		.byte	-101
 727 00d9 03       		.byte	3
 728 00da A0       		.byte	-96
 729 00db 03       		.byte	3
 730 00dc A2       		.byte	-94
 731 00dd 04       		.byte	4
 732 00de A8       		.byte	-88
 733 00df 05       		.byte	5
 734 00e0 AA       		.byte	-86
ARM GAS  C:\Users\ABAD_S~1\AppData\Local\Temp\ccMmqsUz.s 			page 25


 735 00e1 0A       		.byte	10
 736 00e2 B0       		.byte	-80
 737 00e3 0F       		.byte	15
 738 00e4 B1       		.byte	-79
 739 00e5 03       		.byte	3
 740 00e6 B8       		.byte	-72
 741 00e7 02       		.byte	2
 742 00e8 D4       		.byte	-44
 743 00e9 40       		.byte	64
 744 00ea D8       		.byte	-40
 745 00eb 04       		.byte	4
 746 00ec D9       		.byte	-39
 747 00ed 04       		.byte	4
 748 00ee DB       		.byte	-37
 749 00ef 04       		.byte	4
 750 00f0 DF       		.byte	-33
 751 00f1 01       		.byte	1
 752 00f2 01       		.byte	1
 753 00f3 02       		.byte	2
 754 00f4 05       		.byte	5
 755 00f5 40       		.byte	64
 756 00f6 07       		.byte	7
 757 00f7 54       		.byte	84
 758 00f8 09       		.byte	9
 759 00f9 20       		.byte	32
 760 00fa 0C       		.byte	12
 761 00fb 92       		.byte	-110
 762 00fc 0E       		.byte	14
 763 00fd 20       		.byte	32
 764 00fe 0F       		.byte	15
 765 00ff 08       		.byte	8
 766 0100 13       		.byte	19
 767 0101 22       		.byte	34
 768 0102 16       		.byte	22
 769 0103 20       		.byte	32
 770 0104 17       		.byte	23
 771 0105 22       		.byte	34
 772 0106 19       		.byte	25
 773 0107 02       		.byte	2
 774 0108 1C       		.byte	28
 775 0109 10       		.byte	16
 776 010a 1D       		.byte	29
 777 010b 50       		.byte	80
 778 010c 1F       		.byte	31
 779 010d 20       		.byte	32
 780 010e 21       		.byte	33
 781 010f 02       		.byte	2
 782 0110 24       		.byte	36
 783 0111 80       		.byte	-128
 784 0112 25       		.byte	37
 785 0113 80       		.byte	-128
 786 0114 26       		.byte	38
 787 0115 80       		.byte	-128
 788 0116 29       		.byte	41
 789 0117 10       		.byte	16
 790 0118 2A       		.byte	42
 791 0119 20       		.byte	32
ARM GAS  C:\Users\ABAD_S~1\AppData\Local\Temp\ccMmqsUz.s 			page 26


 792 011a 31       		.byte	49
 793 011b 22       		.byte	34
 794 011c 36       		.byte	54
 795 011d 80       		.byte	-128
 796 011e 37       		.byte	55
 797 011f 20       		.byte	32
 798 0120 38       		.byte	56
 799 0121 21       		.byte	33
 800 0122 3C       		.byte	60
 801 0123 01       		.byte	1
 802 0124 3D       		.byte	61
 803 0125 20       		.byte	32
 804 0126 45       		.byte	69
 805 0127 80       		.byte	-128
 806 0128 46       		.byte	70
 807 0129 01       		.byte	1
 808 012a 5E       		.byte	94
 809 012b 42       		.byte	66
 810 012c 5F       		.byte	95
 811 012d 14       		.byte	20
 812 012e 60       		.byte	96
 813 012f 12       		.byte	18
 814 0130 62       		.byte	98
 815 0131 10       		.byte	16
 816 0132 67       		.byte	103
 817 0133 01       		.byte	1
 818 0134 80       		.byte	-128
 819 0135 40       		.byte	64
 820 0136 83       		.byte	-125
 821 0137 01       		.byte	1
 822 0138 85       		.byte	-123
 823 0139 02       		.byte	2
 824 013a 88       		.byte	-120
 825 013b 12       		.byte	18
 826 013c 89       		.byte	-119
 827 013d 02       		.byte	2
 828 013e 8A       		.byte	-118
 829 013f 40       		.byte	64
 830 0140 8B       		.byte	-117
 831 0141 10       		.byte	16
 832 0142 90       		.byte	-112
 833 0143 21       		.byte	33
 834 0144 92       		.byte	-110
 835 0145 40       		.byte	64
 836 0146 93       		.byte	-109
 837 0147 04       		.byte	4
 838 0148 9A       		.byte	-102
 839 0149 50       		.byte	80
 840 014a 9B       		.byte	-101
 841 014b 76       		.byte	118
 842 014c 9E       		.byte	-98
 843 014d 21       		.byte	33
 844 014e A0       		.byte	-96
 845 014f 82       		.byte	-126
 846 0150 A1       		.byte	-95
 847 0151 30       		.byte	48
 848 0152 A2       		.byte	-94
ARM GAS  C:\Users\ABAD_S~1\AppData\Local\Temp\ccMmqsUz.s 			page 27


 849 0153 11       		.byte	17
 850 0154 A3       		.byte	-93
 851 0155 04       		.byte	4
 852 0156 A7       		.byte	-89
 853 0157 20       		.byte	32
 854 0158 C0       		.byte	-64
 855 0159 F8       		.byte	-8
 856 015a C2       		.byte	-62
 857 015b F2       		.byte	-14
 858 015c C4       		.byte	-60
 859 015d 7A       		.byte	122
 860 015e CC       		.byte	-52
 861 015f 35       		.byte	53
 862 0160 CE       		.byte	-50
 863 0161 A5       		.byte	-91
 864 0162 D6       		.byte	-42
 865 0163 F0       		.byte	-16
 866 0164 D8       		.byte	-40
 867 0165 1E       		.byte	30
 868 0166 E0       		.byte	-32
 869 0167 02       		.byte	2
 870 0168 0E       		.byte	14
 871 0169 80       		.byte	-128
 872 016a 66       		.byte	102
 873 016b 02       		.byte	2
 874 016c 82       		.byte	-126
 875 016d 02       		.byte	2
 876 016e 86       		.byte	-122
 877 016f 40       		.byte	64
 878 0170 C2       		.byte	-62
 879 0171 20       		.byte	32
 880 0172 D8       		.byte	-40
 881 0173 80       		.byte	-128
 882 0174 E4       		.byte	-28
 883 0175 40       		.byte	64
 884 0176 E6       		.byte	-26
 885 0177 20       		.byte	32
 886 0178 5A       		.byte	90
 887 0179 02       		.byte	2
 888 017a 60       		.byte	96
 889 017b 10       		.byte	16
 890 017c D6       		.byte	-42
 891 017d 02       		.byte	2
 892 017e D8       		.byte	-40
 893 017f 02       		.byte	2
 894 0180 18       		.byte	24
 895 0181 10       		.byte	16
 896 0182 22       		.byte	34
 897 0183 01       		.byte	1
 898 0184 52       		.byte	82
 899 0185 10       		.byte	16
 900 0186 59       		.byte	89
 901 0187 40       		.byte	64
 902 0188 86       		.byte	-122
 903 0189 10       		.byte	16
 904 018a 89       		.byte	-119
 905 018b 40       		.byte	64
ARM GAS  C:\Users\ABAD_S~1\AppData\Local\Temp\ccMmqsUz.s 			page 28


 906 018c 94       		.byte	-108
 907 018d 10       		.byte	16
 908 018e 96       		.byte	-106
 909 018f 02       		.byte	2
 910 0190 C6       		.byte	-58
 911 0191 08       		.byte	8
 912 0192 C8       		.byte	-56
 913 0193 02       		.byte	2
 914 0194 D4       		.byte	-44
 915 0195 05       		.byte	5
 916 0196 E0       		.byte	-32
 917 0197 01       		.byte	1
 918 0198 01       		.byte	1
 919 0199 01       		.byte	1
 920 019a 10       		.byte	16
 921 019b 01       		.byte	1
 922              		.type	cy_cfg_addr_table.4864, %object
 923              		.size	cy_cfg_addr_table.4864, 32
 924              	cy_cfg_addr_table.4864:
 925 019c 01000F40 		.word	1074724865
 926 01a0 2D310F40 		.word	1074737453
 927 01a4 3B320F40 		.word	1074737723
 928 01a8 3B330F40 		.word	1074737979
 929 01ac 08400F40 		.word	1074741256
 930 01b0 04420F40 		.word	1074741764
 931 01b4 0C430F40 		.word	1074742028
 932 01b8 02600F40 		.word	1074749442
 933              		.type	BS_UDB_0_1_1_CONFIG_VAL.4876, %object
 934              		.size	BS_UDB_0_1_1_CONFIG_VAL.4876, 128
 935              	BS_UDB_0_1_1_CONFIG_VAL.4876:
 936 01bc 84       		.byte	-124
 937 01bd 33       		.byte	51
 938 01be 00       		.byte	0
 939 01bf 44       		.byte	68
 940 01c0 04       		.byte	4
 941 01c1 00       		.byte	0
 942 01c2 00       		.byte	0
 943 01c3 00       		.byte	0
 944 01c4 0A       		.byte	10
 945 01c5 9C       		.byte	-100
 946 01c6 10       		.byte	16
 947 01c7 03       		.byte	3
 948 01c8 60       		.byte	96
 949 01c9 82       		.byte	-126
 950 01ca 00       		.byte	0
 951 01cb 00       		.byte	0
 952 01cc 04       		.byte	4
 953 01cd 18       		.byte	24
 954 01ce 80       		.byte	-128
 955 01cf 02       		.byte	2
 956 01d0 56       		.byte	86
 957 01d1 C1       		.byte	-63
 958 01d2 09       		.byte	9
 959 01d3 38       		.byte	56
 960 01d4 01       		.byte	1
 961 01d5 18       		.byte	24
 962 01d6 00       		.byte	0
ARM GAS  C:\Users\ABAD_S~1\AppData\Local\Temp\ccMmqsUz.s 			page 29


 963 01d7 02       		.byte	2
 964 01d8 84       		.byte	-124
 965 01d9 00       		.byte	0
 966 01da 00       		.byte	0
 967 01db 00       		.byte	0
 968 01dc 07       		.byte	7
 969 01dd 1A       		.byte	26
 970 01de 38       		.byte	56
 971 01df 00       		.byte	0
 972 01e0 80       		.byte	-128
 973 01e1 18       		.byte	24
 974 01e2 04       		.byte	4
 975 01e3 00       		.byte	0
 976 01e4 84       		.byte	-124
 977 01e5 02       		.byte	2
 978 01e6 00       		.byte	0
 979 01e7 18       		.byte	24
 980 01e8 00       		.byte	0
 981 01e9 1A       		.byte	26
 982 01ea 00       		.byte	0
 983 01eb 00       		.byte	0
 984 01ec 08       		.byte	8
 985 01ed 00       		.byte	0
 986 01ee 00       		.byte	0
 987 01ef 0F       		.byte	15
 988 01f0 7F       		.byte	127
 989 01f1 E0       		.byte	-32
 990 01f2 80       		.byte	-128
 991 01f3 13       		.byte	19
 992 01f4 20       		.byte	32
 993 01f5 00       		.byte	0
 994 01f6 00       		.byte	0
 995 01f7 28       		.byte	40
 996 01f8 00       		.byte	0
 997 01f9 00       		.byte	0
 998 01fa 41       		.byte	65
 999 01fb 00       		.byte	0
 1000 01fc 32       		.byte	50
 1001 01fd 04       		.byte	4
 1002 01fe 10       		.byte	16
 1003 01ff 00       		.byte	0
 1004 0200 05       		.byte	5
 1005 0201 0D       		.byte	13
 1006 0202 FC       		.byte	-4
 1007 0203 BE       		.byte	-66
 1008 0204 3D       		.byte	61
 1009 0205 FF       		.byte	-1
 1010 0206 FF       		.byte	-1
 1011 0207 FF       		.byte	-1
 1012 0208 22       		.byte	34
 1013 0209 00       		.byte	0
 1014 020a F0       		.byte	-16
 1015 020b 08       		.byte	8
 1016 020c 04       		.byte	4
 1017 020d 00       		.byte	0
 1018 020e 00       		.byte	0
 1019 020f 00       		.byte	0
ARM GAS  C:\Users\ABAD_S~1\AppData\Local\Temp\ccMmqsUz.s 			page 30


 1020 0210 00       		.byte	0
 1021 0211 00       		.byte	0
 1022 0212 02       		.byte	2
 1023 0213 2C       		.byte	44
 1024 0214 04       		.byte	4
 1025 0215 04       		.byte	4
 1026 0216 04       		.byte	4
 1027 0217 04       		.byte	4
 1028 0218 00       		.byte	0
 1029 0219 00       		.byte	0
 1030 021a 00       		.byte	0
 1031 021b 01       		.byte	1
 1032 021c 00       		.byte	0
 1033 021d 00       		.byte	0
 1034 021e C0       		.byte	-64
 1035 021f 00       		.byte	0
 1036 0220 40       		.byte	64
 1037 0221 01       		.byte	1
 1038 0222 10       		.byte	16
 1039 0223 11       		.byte	17
 1040 0224 C0       		.byte	-64
 1041 0225 01       		.byte	1
 1042 0226 00       		.byte	0
 1043 0227 11       		.byte	17
 1044 0228 40       		.byte	64
 1045 0229 01       		.byte	1
 1046 022a 40       		.byte	64
 1047 022b 01       		.byte	1
 1048 022c 00       		.byte	0
 1049 022d 00       		.byte	0
 1050 022e 00       		.byte	0
 1051 022f 00       		.byte	0
 1052 0230 00       		.byte	0
 1053 0231 00       		.byte	0
 1054 0232 00       		.byte	0
 1055 0233 00       		.byte	0
 1056 0234 00       		.byte	0
 1057 0235 00       		.byte	0
 1058 0236 00       		.byte	0
 1059 0237 00       		.byte	0
 1060 0238 00       		.byte	0
 1061 0239 00       		.byte	0
 1062 023a 00       		.byte	0
 1063 023b 00       		.byte	0
 1064              		.text
 1065              	.Letext0:
 1066              		.file 2 "c:\\program files (x86)\\cypress\\psoc creator\\4.2\\psoc creator\\import\\gnu\\arm\\5.4.
 1067              		.file 3 "Generated_Source\\PSoC4\\cytypes.h"
 1068              		.file 4 "Generated_Source\\PSoC4\\CyLib.h"