ARM GAS  C:\Users\ABAD_S~1\AppData\Local\Temp\ccwwLJqn.s 			page 1


   1              		.syntax unified
   2              		.cpu cortex-m0
   3              		.fpu softvfp
   4              		.eabi_attribute 20, 1
   5              		.eabi_attribute 21, 1
   6              		.eabi_attribute 23, 3
   7              		.eabi_attribute 24, 1
   8              		.eabi_attribute 25, 1
   9              		.eabi_attribute 26, 1
  10              		.eabi_attribute 30, 1
  11              		.eabi_attribute 34, 0
  12              		.eabi_attribute 18, 4
  13              		.thumb
  14              		.syntax unified
  15              		.file	"main.c"
  16              		.text
  17              	.Ltext0:
  18              		.cfi_sections	.debug_frame
  19              		.section	.text.Beep,"ax",%progbits
  20              		.align	2
  21              		.global	Beep
  22              		.code	16
  23              		.thumb_func
  24              		.type	Beep, %function
  25              	Beep:
  26              	.LFB33:
  27              		.file 1 "main.c"
   1:main.c        **** /*******************************
   2:main.c        ****  *   CODE BY: Abad Sethi       * 
   3:main.c        ****  *                             *
   4:main.c        ****  *  RFID reader with i2c LCD   *
   5:main.c        ****  *                             *
   6:main.c        ****  ******************************/
   7:main.c        **** 
   8:main.c        **** #include "project.h"
   9:main.c        **** #include "RC522.h"
  10:main.c        **** #include "LiquidCrystal_I2C.h"
  11:main.c        **** 
  12:main.c        **** uint32_t Addr = 0x27;
  13:main.c        **** 
  14:main.c        **** unsigned char status;
  15:main.c        **** 
  16:main.c        **** void Beep(uint16 Milliseconds)
  17:main.c        **** {
  28              		.loc 1 17 0
  29              		.cfi_startproc
  30              		@ args = 0, pretend = 0, frame = 0
  31              		@ frame_needed = 0, uses_anonymous_args = 0
  32              	.LVL0:
  33 0000 10B5     		push	{r4, lr}
  34              		.cfi_def_cfa_offset 8
  35              		.cfi_offset 4, -8
  36              		.cfi_offset 14, -4
  37 0002 0400     		movs	r4, r0
  18:main.c        **** 	PWM_1_Start();
  38              		.loc 1 18 0
  39 0004 FFF7FEFF 		bl	PWM_1_Start
ARM GAS  C:\Users\ABAD_S~1\AppData\Local\Temp\ccwwLJqn.s 			page 2


  40              	.LVL1:
  19:main.c        **** 	CyDelay(Milliseconds);
  41              		.loc 1 19 0
  42 0008 2000     		movs	r0, r4
  43 000a FFF7FEFF 		bl	CyDelay
  44              	.LVL2:
  20:main.c        **** 	PWM_1_Stop();
  45              		.loc 1 20 0
  46 000e FFF7FEFF 		bl	PWM_1_Stop
  47              	.LVL3:
  21:main.c        **** }
  48              		.loc 1 21 0
  49              		@ sp needed
  50 0012 10BD     		pop	{r4, pc}
  51              		.cfi_endproc
  52              	.LFE33:
  53              		.size	Beep, .-Beep
  54              		.section	.text.GreenLed,"ax",%progbits
  55              		.align	2
  56              		.global	GreenLed
  57              		.code	16
  58              		.thumb_func
  59              		.type	GreenLed, %function
  60              	GreenLed:
  61              	.LFB34:
  22:main.c        **** void GreenLed(uint16 Milliseconds)
  23:main.c        **** {
  62              		.loc 1 23 0
  63              		.cfi_startproc
  64              		@ args = 0, pretend = 0, frame = 0
  65              		@ frame_needed = 0, uses_anonymous_args = 0
  66              	.LVL4:
  67 0000 10B5     		push	{r4, lr}
  68              		.cfi_def_cfa_offset 8
  69              		.cfi_offset 4, -8
  70              		.cfi_offset 14, -4
  71 0002 0400     		movs	r4, r0
  24:main.c        **** 	PWM_2_Start();
  72              		.loc 1 24 0
  73 0004 FFF7FEFF 		bl	PWM_2_Start
  74              	.LVL5:
  25:main.c        **** 	CyDelay(Milliseconds);
  75              		.loc 1 25 0
  76 0008 2000     		movs	r0, r4
  77 000a FFF7FEFF 		bl	CyDelay
  78              	.LVL6:
  26:main.c        **** 	PWM_2_Stop();
  79              		.loc 1 26 0
  80 000e FFF7FEFF 		bl	PWM_2_Stop
  81              	.LVL7:
  27:main.c        **** }
  82              		.loc 1 27 0
  83              		@ sp needed
  84 0012 10BD     		pop	{r4, pc}
  85              		.cfi_endproc
  86              	.LFE34:
  87              		.size	GreenLed, .-GreenLed
ARM GAS  C:\Users\ABAD_S~1\AppData\Local\Temp\ccwwLJqn.s 			page 3


  88              		.section	.text.GreenLedBlink,"ax",%progbits
  89              		.align	2
  90              		.global	GreenLedBlink
  91              		.code	16
  92              		.thumb_func
  93              		.type	GreenLedBlink, %function
  94              	GreenLedBlink:
  95              	.LFB35:
  28:main.c        **** 
  29:main.c        **** void GreenLedBlink()
  30:main.c        **** {
  96              		.loc 1 30 0
  97              		.cfi_startproc
  98              		@ args = 0, pretend = 0, frame = 0
  99              		@ frame_needed = 0, uses_anonymous_args = 0
 100 0000 10B5     		push	{r4, lr}
 101              		.cfi_def_cfa_offset 8
 102              		.cfi_offset 4, -8
 103              		.cfi_offset 14, -4
  31:main.c        **** 	GreenLed(250);
 104              		.loc 1 31 0
 105 0002 FA20     		movs	r0, #250
 106 0004 FFF7FEFF 		bl	GreenLed
 107              	.LVL8:
  32:main.c        ****     CyDelay(250);
 108              		.loc 1 32 0
 109 0008 FA20     		movs	r0, #250
 110 000a FFF7FEFF 		bl	CyDelay
 111              	.LVL9:
  33:main.c        ****     GreenLed(250);
 112              		.loc 1 33 0
 113 000e FA20     		movs	r0, #250
 114 0010 FFF7FEFF 		bl	GreenLed
 115              	.LVL10:
  34:main.c        ****     CyDelay(250);
 116              		.loc 1 34 0
 117 0014 FA20     		movs	r0, #250
 118 0016 FFF7FEFF 		bl	CyDelay
 119              	.LVL11:
  35:main.c        ****     GreenLed(250);
 120              		.loc 1 35 0
 121 001a FA20     		movs	r0, #250
 122 001c FFF7FEFF 		bl	GreenLed
 123              	.LVL12:
  36:main.c        ****     CyDelay(250);
 124              		.loc 1 36 0
 125 0020 FA20     		movs	r0, #250
 126 0022 FFF7FEFF 		bl	CyDelay
 127              	.LVL13:
  37:main.c        ****     GreenLed(250);
 128              		.loc 1 37 0
 129 0026 FA20     		movs	r0, #250
 130 0028 FFF7FEFF 		bl	GreenLed
 131              	.LVL14:
  38:main.c        ****     CyDelay(250);
 132              		.loc 1 38 0
 133 002c FA20     		movs	r0, #250
ARM GAS  C:\Users\ABAD_S~1\AppData\Local\Temp\ccwwLJqn.s 			page 4


 134 002e FFF7FEFF 		bl	CyDelay
 135              	.LVL15:
  39:main.c        **** }
 136              		.loc 1 39 0
 137              		@ sp needed
 138 0032 10BD     		pop	{r4, pc}
 139              		.cfi_endproc
 140              	.LFE35:
 141              		.size	GreenLedBlink, .-GreenLedBlink
 142              		.section	.text.main,"ax",%progbits
 143              		.align	2
 144              		.global	main
 145              		.code	16
 146              		.thumb_func
 147              		.type	main, %function
 148              	main:
 149              	.LFB36:
  40:main.c        **** 
  41:main.c        **** 
  42:main.c        **** int main(void)
  43:main.c        **** {
 150              		.loc 1 43 0
 151              		.cfi_startproc
 152              		@ Volatile: function does not return.
 153              		@ args = 0, pretend = 0, frame = 0
 154              		@ frame_needed = 0, uses_anonymous_args = 0
 155 0000 10B5     		push	{r4, lr}
 156              		.cfi_def_cfa_offset 8
 157              		.cfi_offset 4, -8
 158              		.cfi_offset 14, -4
  44:main.c        ****     CyGlobalIntEnable; /* Enable global interrupts. */
 159              		.loc 1 44 0
 160              		.syntax divided
 161              	@ 44 "main.c" 1
 162 0002 62B6     		CPSIE   i
 163              	@ 0 "" 2
  45:main.c        ****     SPI_Start();
 164              		.loc 1 45 0
 165              		.thumb
 166              		.syntax unified
 167 0004 FFF7FEFF 		bl	SPI_Start
 168              	.LVL16:
  46:main.c        ****     I2C_Start();
 169              		.loc 1 46 0
 170 0008 FFF7FEFF 		bl	I2C_Start
 171              	.LVL17:
  47:main.c        ****     LiquidCrystal_I2C_init(Addr,16,2,0);
 172              		.loc 1 47 0
 173 000c 544B     		ldr	r3, .L7
 174 000e 1878     		ldrb	r0, [r3]
 175 0010 0023     		movs	r3, #0
 176 0012 0222     		movs	r2, #2
 177 0014 1021     		movs	r1, #16
 178 0016 FFF7FEFF 		bl	LiquidCrystal_I2C_init
 179              	.LVL18:
  48:main.c        ****     PCD_Init();
 180              		.loc 1 48 0
ARM GAS  C:\Users\ABAD_S~1\AppData\Local\Temp\ccwwLJqn.s 			page 5


 181 001a FFF7FEFF 		bl	PCD_Init
 182              	.LVL19:
  49:main.c        ****     begin();
 183              		.loc 1 49 0
 184 001e FFF7FEFF 		bl	begin
 185              	.LVL20:
  50:main.c        ****     //RED_Write(0U);
  51:main.c        ****     
  52:main.c        ****     //PWM_1_Start();
  53:main.c        ****     //PWM_1_WriteCompare(5);
  54:main.c        ****     //PWM_1_WriteCompare((int)PWM_1_ReadPeriod/2);
  55:main.c        ****     
  56:main.c        ****       //LCD_Position(0,0);  LCD_PrintString("Version: "); 
  57:main.c        ****       //LCD_PrintHexUint8(PCD_ReadRegister(VersionReg));   // test PCD_ReadRegister()
  58:main.c        ****     
  59:main.c        ****         
  60:main.c        ****     PCD_AntennaOn() ; PCD_ReadRegister(TxControlReg);   // for test PCD_WriteRegister()
 186              		.loc 1 60 0
 187 0022 FFF7FEFF 		bl	PCD_AntennaOn
 188              	.LVL21:
 189 0026 1420     		movs	r0, #20
 190 0028 FFF7FEFF 		bl	PCD_ReadRegister
 191              	.LVL22:
  61:main.c        ****     PCD_AntennaOff(); PCD_ReadRegister(TxControlReg);
 192              		.loc 1 61 0
 193 002c FFF7FEFF 		bl	PCD_AntennaOff
 194              	.LVL23:
 195 0030 1420     		movs	r0, #20
 196 0032 FFF7FEFF 		bl	PCD_ReadRegister
 197              	.LVL24:
 198              	.L5:
  62:main.c        ****     
  63:main.c        ****     
  64:main.c        ****     for(;;)
  65:main.c        ****     {
  66:main.c        ****         
  67:main.c        ****     clear();
 199              		.loc 1 67 0
 200 0036 FFF7FEFF 		bl	clear
 201              	.LVL25:
  68:main.c        ****     LCD_print("READ YOUR CARD");
 202              		.loc 1 68 0
 203 003a 4A48     		ldr	r0, .L7+4
 204 003c FFF7FEFF 		bl	LCD_print
 205              	.LVL26:
  69:main.c        ****     CyDelay(1000);
 206              		.loc 1 69 0
 207 0040 FA20     		movs	r0, #250
 208 0042 8000     		lsls	r0, r0, #2
 209 0044 FFF7FEFF 		bl	CyDelay
 210              	.LVL27:
  70:main.c        ****     clear();
 211              		.loc 1 70 0
 212 0048 FFF7FEFF 		bl	clear
 213              	.LVL28:
  71:main.c        ****     CyDelay(500);
 214              		.loc 1 71 0
ARM GAS  C:\Users\ABAD_S~1\AppData\Local\Temp\ccwwLJqn.s 			page 6


 215 004c FA20     		movs	r0, #250
 216 004e 4000     		lsls	r0, r0, #1
 217 0050 FFF7FEFF 		bl	CyDelay
 218              	.LVL29:
  72:main.c        ****     PCD_Reset();
 219              		.loc 1 72 0
 220 0054 FFF7FEFF 		bl	PCD_Reset
 221              	.LVL30:
  73:main.c        ****     PCD_Init();  
 222              		.loc 1 73 0
 223 0058 FFF7FEFF 		bl	PCD_Init
 224              	.LVL31:
  74:main.c        ****     PCD_WriteRegister(BitFramingReg,     0x07); //BitFraming
 225              		.loc 1 74 0
 226 005c 0721     		movs	r1, #7
 227 005e 0D20     		movs	r0, #13
 228 0060 FFF7FEFF 		bl	PCD_WriteRegister
 229              	.LVL32:
  75:main.c        **** 
  76:main.c        ****     PCD_WriteRegister(CommIEnReg,        0xF7);      //CommIEn
 230              		.loc 1 76 0
 231 0064 F721     		movs	r1, #247
 232 0066 0220     		movs	r0, #2
 233 0068 FFF7FEFF 		bl	PCD_WriteRegister
 234              	.LVL33:
  77:main.c        ****     PCD_ClearRegisterBitMask( ComIrqReg, 0x80);     // ComIrq
 235              		.loc 1 77 0
 236 006c 8021     		movs	r1, #128
 237 006e 0420     		movs	r0, #4
 238 0070 FFF7FEFF 		bl	PCD_ClearRegisterBitMask
 239              	.LVL34:
  78:main.c        ****     PCD_SetRegisterBitMask( FIFOLevelReg,0x80);     //immediately clears the internal FIFO   buffer
 240              		.loc 1 78 0
 241 0074 8021     		movs	r1, #128
 242 0076 0A20     		movs	r0, #10
 243 0078 FFF7FEFF 		bl	PCD_SetRegisterBitMask
 244              	.LVL35:
  79:main.c        ****     PCD_WriteRegister(CommandReg,        0x00);     // idle
 245              		.loc 1 79 0
 246 007c 0021     		movs	r1, #0
 247 007e 0120     		movs	r0, #1
 248 0080 FFF7FEFF 		bl	PCD_WriteRegister
 249              	.LVL36:
  80:main.c        ****     //fill Tx  buffer 
  81:main.c        ****     PCD_WriteRegister( FIFODataReg,        0x26); 
 250              		.loc 1 81 0
 251 0084 2621     		movs	r1, #38
 252 0086 0920     		movs	r0, #9
 253 0088 FFF7FEFF 		bl	PCD_WriteRegister
 254              	.LVL37:
  82:main.c        ****     // end fill Tx  buffer 
  83:main.c        ****     PCD_WriteRegister( CommandReg,        0x0C);    //send data, activate read
 255              		.loc 1 83 0
 256 008c 0C21     		movs	r1, #12
 257 008e 0120     		movs	r0, #1
 258 0090 FFF7FEFF 		bl	PCD_WriteRegister
 259              	.LVL38:
ARM GAS  C:\Users\ABAD_S~1\AppData\Local\Temp\ccwwLJqn.s 			page 7


  84:main.c        ****     PCD_SetRegisterBitMask( BitFramingReg,0x80);    //  buffer
 260              		.loc 1 84 0
 261 0094 8021     		movs	r1, #128
 262 0096 0D20     		movs	r0, #13
 263 0098 FFF7FEFF 		bl	PCD_SetRegisterBitMask
 264              	.LVL39:
  85:main.c        ****     status=PCD_ReadRegister(ComIrqReg) & 0b0100000;
 265              		.loc 1 85 0
 266 009c 0420     		movs	r0, #4
 267 009e FFF7FEFF 		bl	PCD_ReadRegister
 268              	.LVL40:
 269 00a2 2023     		movs	r3, #32
 270 00a4 1840     		ands	r0, r3
 271 00a6 304B     		ldr	r3, .L7+8
 272 00a8 1870     		strb	r0, [r3]
  86:main.c        ****    
  87:main.c        ****   
  88:main.c        ****     
  89:main.c        ****     // end   while
  90:main.c        ****     if(status) {
 273              		.loc 1 90 0
 274 00aa C4D0     		beq	.L5
  91:main.c        ****         Beep(150);
 275              		.loc 1 91 0
 276 00ac 9620     		movs	r0, #150
 277 00ae FFF7FEFF 		bl	Beep
 278              	.LVL41:
  92:main.c        ****         LCD_print("Verified user");
 279              		.loc 1 92 0
 280 00b2 2E48     		ldr	r0, .L7+12
 281 00b4 FFF7FEFF 		bl	LCD_print
 282              	.LVL42:
  93:main.c        ****         GreenLed(2000);
 283              		.loc 1 93 0
 284 00b8 FA24     		movs	r4, #250
 285 00ba E400     		lsls	r4, r4, #3
 286 00bc 2000     		movs	r0, r4
 287 00be FFF7FEFF 		bl	GreenLed
 288              	.LVL43:
  94:main.c        ****         clear();
 289              		.loc 1 94 0
 290 00c2 FFF7FEFF 		bl	clear
 291              	.LVL44:
  95:main.c        ****         LCD_print("Access granted");
 292              		.loc 1 95 0
 293 00c6 2A48     		ldr	r0, .L7+16
 294 00c8 FFF7FEFF 		bl	LCD_print
 295              	.LVL45:
  96:main.c        ****         CyDelay(2000);
 296              		.loc 1 96 0
 297 00cc 2000     		movs	r0, r4
 298 00ce FFF7FEFF 		bl	CyDelay
 299              	.LVL46:
  97:main.c        ****         clear();
 300              		.loc 1 97 0
 301 00d2 FFF7FEFF 		bl	clear
 302              	.LVL47:
ARM GAS  C:\Users\ABAD_S~1\AppData\Local\Temp\ccwwLJqn.s 			page 8


  98:main.c        ****         LCD_print("Welcome:");
 303              		.loc 1 98 0
 304 00d6 2748     		ldr	r0, .L7+20
 305 00d8 FFF7FEFF 		bl	LCD_print
 306              	.LVL48:
  99:main.c        ****         CyDelay(1400);
 307              		.loc 1 99 0
 308 00dc AF20     		movs	r0, #175
 309 00de C000     		lsls	r0, r0, #3
 310 00e0 FFF7FEFF 		bl	CyDelay
 311              	.LVL49:
 100:main.c        ****         setCursor(0,1);
 312              		.loc 1 100 0
 313 00e4 0121     		movs	r1, #1
 314 00e6 0020     		movs	r0, #0
 315 00e8 FFF7FEFF 		bl	setCursor
 316              	.LVL50:
 101:main.c        ****         LCD_print("Abad Sethi");
 317              		.loc 1 101 0
 318 00ec 2248     		ldr	r0, .L7+24
 319 00ee FFF7FEFF 		bl	LCD_print
 320              	.LVL51:
 102:main.c        ****         CyDelay(2000);
 321              		.loc 1 102 0
 322 00f2 2000     		movs	r0, r4
 323 00f4 FFF7FEFF 		bl	CyDelay
 324              	.LVL52:
 103:main.c        ****         clear();
 325              		.loc 1 103 0
 326 00f8 FFF7FEFF 		bl	clear
 327              	.LVL53:
 104:main.c        ****         setCursor(0,0);
 328              		.loc 1 104 0
 329 00fc 0021     		movs	r1, #0
 330 00fe 0020     		movs	r0, #0
 331 0100 FFF7FEFF 		bl	setCursor
 332              	.LVL54:
 105:main.c        ****         LCD_print("Buggy starts in");
 333              		.loc 1 105 0
 334 0104 1D48     		ldr	r0, .L7+28
 335 0106 FFF7FEFF 		bl	LCD_print
 336              	.LVL55:
 106:main.c        ****         CyDelay(1000);
 337              		.loc 1 106 0
 338 010a FA24     		movs	r4, #250
 339 010c A400     		lsls	r4, r4, #2
 340 010e 2000     		movs	r0, r4
 341 0110 FFF7FEFF 		bl	CyDelay
 342              	.LVL56:
 107:main.c        ****         setCursor(0,1);
 343              		.loc 1 107 0
 344 0114 0121     		movs	r1, #1
 345 0116 0020     		movs	r0, #0
 346 0118 FFF7FEFF 		bl	setCursor
 347              	.LVL57:
 108:main.c        ****         LCD_print("3..");
 348              		.loc 1 108 0
ARM GAS  C:\Users\ABAD_S~1\AppData\Local\Temp\ccwwLJqn.s 			page 9


 349 011c 1848     		ldr	r0, .L7+32
 350 011e FFF7FEFF 		bl	LCD_print
 351              	.LVL58:
 109:main.c        ****         CyDelay(1000);
 352              		.loc 1 109 0
 353 0122 2000     		movs	r0, r4
 354 0124 FFF7FEFF 		bl	CyDelay
 355              	.LVL59:
 110:main.c        ****         LCD_print("2..");
 356              		.loc 1 110 0
 357 0128 1648     		ldr	r0, .L7+36
 358 012a FFF7FEFF 		bl	LCD_print
 359              	.LVL60:
 111:main.c        ****         CyDelay(1000);
 360              		.loc 1 111 0
 361 012e 2000     		movs	r0, r4
 362 0130 FFF7FEFF 		bl	CyDelay
 363              	.LVL61:
 112:main.c        ****         LCD_print("1..");
 364              		.loc 1 112 0
 365 0134 1448     		ldr	r0, .L7+40
 366 0136 FFF7FEFF 		bl	LCD_print
 367              	.LVL62:
 113:main.c        ****         CyDelay(1000);
 368              		.loc 1 113 0
 369 013a 2000     		movs	r0, r4
 370 013c FFF7FEFF 		bl	CyDelay
 371              	.LVL63:
 114:main.c        ****         clear();
 372              		.loc 1 114 0
 373 0140 FFF7FEFF 		bl	clear
 374              	.LVL64:
 115:main.c        ****         LCD_print("BUGGY STARTED");
 375              		.loc 1 115 0
 376 0144 1148     		ldr	r0, .L7+44
 377 0146 FFF7FEFF 		bl	LCD_print
 378              	.LVL65:
 116:main.c        ****         setCursor(0,1);
 379              		.loc 1 116 0
 380 014a 0121     		movs	r1, #1
 381 014c 0020     		movs	r0, #0
 382 014e FFF7FEFF 		bl	setCursor
 383              	.LVL66:
 117:main.c        ****         LCD_print("SUCESSFULLY");
 384              		.loc 1 117 0
 385 0152 0F48     		ldr	r0, .L7+48
 386 0154 FFF7FEFF 		bl	LCD_print
 387              	.LVL67:
 118:main.c        ****         GreenLedBlink();
 388              		.loc 1 118 0
 389 0158 FFF7FEFF 		bl	GreenLedBlink
 390              	.LVL68:
 391 015c 6BE7     		b	.L5
 392              	.L8:
 393 015e C046     		.align	2
 394              	.L7:
 395 0160 00000000 		.word	.LANCHOR0
ARM GAS  C:\Users\ABAD_S~1\AppData\Local\Temp\ccwwLJqn.s 			page 10


 396 0164 00000000 		.word	.LC1
 397 0168 00000000 		.word	status
 398 016c 10000000 		.word	.LC4
 399 0170 20000000 		.word	.LC6
 400 0174 30000000 		.word	.LC8
 401 0178 3C000000 		.word	.LC10
 402 017c 48000000 		.word	.LC12
 403 0180 58000000 		.word	.LC14
 404 0184 5C000000 		.word	.LC16
 405 0188 60000000 		.word	.LC18
 406 018c 64000000 		.word	.LC20
 407 0190 74000000 		.word	.LC22
 408              		.cfi_endproc
 409              	.LFE36:
 410              		.size	main, .-main
 411              		.comm	status,1,1
 412              		.global	Addr
 413              		.comm	uid,12,4
 414              		.data
 415              		.align	2
 416              		.set	.LANCHOR0,. + 0
 417              		.type	Addr, %object
 418              		.size	Addr, 4
 419              	Addr:
 420 0000 27000000 		.word	39
 421              		.section	.rodata.str1.4,"aMS",%progbits,1
 422              		.align	2
 423              	.LC1:
 424 0000 52454144 		.ascii	"READ YOUR CARD\000"
 424      20594F55 
 424      52204341 
 424      524400
 425 000f 00       		.space	1
 426              	.LC4:
 427 0010 56657269 		.ascii	"Verified user\000"
 427      66696564 
 427      20757365 
 427      7200
 428 001e 0000     		.space	2
 429              	.LC6:
 430 0020 41636365 		.ascii	"Access granted\000"
 430      73732067 
 430      72616E74 
 430      656400
 431 002f 00       		.space	1
 432              	.LC8:
 433 0030 57656C63 		.ascii	"Welcome:\000"
 433      6F6D653A 
 433      00
 434 0039 000000   		.space	3
 435              	.LC10:
 436 003c 41626164 		.ascii	"Abad Sethi\000"
 436      20536574 
 436      686900
 437 0047 00       		.space	1
 438              	.LC12:
 439 0048 42756767 		.ascii	"Buggy starts in\000"
ARM GAS  C:\Users\ABAD_S~1\AppData\Local\Temp\ccwwLJqn.s 			page 11


 439      79207374 
 439      61727473 
 439      20696E00 
 440              	.LC14:
 441 0058 332E2E00 		.ascii	"3..\000"
 442              	.LC16:
 443 005c 322E2E00 		.ascii	"2..\000"
 444              	.LC18:
 445 0060 312E2E00 		.ascii	"1..\000"
 446              	.LC20:
 447 0064 42554747 		.ascii	"BUGGY STARTED\000"
 447      59205354 
 447      41525445 
 447      4400
 448 0072 0000     		.space	2
 449              	.LC22:
 450 0074 53554345 		.ascii	"SUCESSFULLY\000"
 450      53534655 
 450      4C4C5900 
 451              		.text
 452              	.Letext0:
 453              		.file 2 "c:\\program files (x86)\\cypress\\psoc creator\\4.2\\psoc creator\\import\\gnu\\arm\\5.4.
 454              		.file 3 "c:\\program files (x86)\\cypress\\psoc creator\\4.2\\psoc creator\\import\\gnu\\arm\\5.4.
 455              		.file 4 "Generated_Source\\PSoC4/cytypes.h"
 456              		.file 5 "RC522.h"
 457              		.file 6 "Generated_Source\\PSoC4/PWM_1.h"
 458              		.file 7 "Generated_Source\\PSoC4/CyLib.h"
 459              		.file 8 "Generated_Source\\PSoC4/PWM_2.h"
 460              		.file 9 "Generated_Source\\PSoC4/SPI.h"
 461              		.file 10 "Generated_Source\\PSoC4/I2C.h"
 462              		.file 11 "LiquidCrystal_I2C.h"