ARM GAS  C:\Users\ABAD_S~1\AppData\Local\Temp\cckPFQC2.s 			page 1


   1              		.syntax unified
   2              		.cpu cortex-m0
   3              		.fpu softvfp
   4              		.eabi_attribute 20, 1
   5              		.eabi_attribute 21, 1
   6              		.eabi_attribute 23, 3
   7              		.eabi_attribute 24, 1
   8              		.eabi_attribute 25, 1
   9              		.eabi_attribute 26, 1
  10              		.eabi_attribute 30, 1
  11              		.eabi_attribute 34, 0
  12              		.eabi_attribute 18, 4
  13              		.thumb
  14              		.syntax unified
  15              		.file	"RC522.c"
  16              		.text
  17              	.Ltext0:
  18              		.cfi_sections	.debug_frame
  19              		.section	.text.PCD_WriteRegister,"ax",%progbits
  20              		.align	2
  21              		.global	PCD_WriteRegister
  22              		.code	16
  23              		.thumb_func
  24              		.type	PCD_WriteRegister, %function
  25              	PCD_WriteRegister:
  26              	.LFB33:
  27              		.file 1 "RC522.c"
   1:RC522.c       **** #include <project.h>
   2:RC522.c       **** #include "SPI.h"
   3:RC522.c       **** //#include "CReset.h"
   4:RC522.c       **** #include <string.h>
   5:RC522.c       **** #include <stdio.h>
   6:RC522.c       **** #include <stdint.h>
   7:RC522.c       **** #include <stdbool.h>
   8:RC522.c       **** #include <stddef.h>
   9:RC522.c       **** #include "RC522.h"
  10:RC522.c       **** 
  11:RC522.c       **** 
  12:RC522.c       **** 
  13:RC522.c       **** unsigned char     readData;
  14:RC522.c       **** unsigned char     readDummy;
  15:RC522.c       **** 
  16:RC522.c       **** void PCD_WriteRegister(unsigned char addr, unsigned char value) {
  28              		.loc 1 16 0
  29              		.cfi_startproc
  30              		@ args = 0, pretend = 0, frame = 0
  31              		@ frame_needed = 0, uses_anonymous_args = 0
  32              	.LVL0:
  33 0000 70B5     		push	{r4, r5, r6, lr}
  34              		.cfi_def_cfa_offset 16
  35              		.cfi_offset 4, -16
  36              		.cfi_offset 5, -12
  37              		.cfi_offset 6, -8
  38              		.cfi_offset 14, -4
  39 0002 0400     		movs	r4, r0
  40 0004 0D00     		movs	r5, r1
  17:RC522.c       ****          SPI_ClearFIFO(); SPI_ClearRxBuffer();//SS = false;
ARM GAS  C:\Users\ABAD_S~1\AppData\Local\Temp\cckPFQC2.s 			page 2


  41              		.loc 1 17 0
  42 0006 FFF7FEFF 		bl	SPI_ClearFIFO
  43              	.LVL1:
  44 000a FFF7FEFF 		bl	SPI_ClearRxBuffer
  45              	.LVL2:
  46              	.L2:
  18:RC522.c       ****         while ( ! (SPI_ReadTxStatus() & SPI_STS_SPI_IDLE) );//Espera a que el canal este disponible
  47              		.loc 1 18 0 discriminator 1
  48 000e FFF7FEFF 		bl	SPI_ReadTxStatus
  49              	.LVL3:
  50 0012 C306     		lsls	r3, r0, #27
  51 0014 FBD5     		bpl	.L2
  19:RC522.c       ****         SPI_WriteTxData((addr<<1)&0x7E);//Equivalente a SPI.transfer((addr<<1)&0x7E);
  52              		.loc 1 19 0
  53 0016 6400     		lsls	r4, r4, #1
  54 0018 7E20     		movs	r0, #126
  55 001a 2040     		ands	r0, r4
  56 001c FFF7FEFF 		bl	SPI_WriteTxData
  57              	.LVL4:
  58              	.L3:
  20:RC522.c       ****           while ( ! (SPI_ReadTxStatus() & SPI_STS_SPI_IDLE) ); 
  59              		.loc 1 20 0 discriminator 1
  60 0020 FFF7FEFF 		bl	SPI_ReadTxStatus
  61              	.LVL5:
  62 0024 C306     		lsls	r3, r0, #27
  63 0026 FBD5     		bpl	.L3
  21:RC522.c       ****         SPI_WriteTxData(value);// Equivalente a  SPI.transfer(val);
  64              		.loc 1 21 0
  65 0028 2800     		movs	r0, r5
  66 002a FFF7FEFF 		bl	SPI_WriteTxData
  67              	.LVL6:
  22:RC522.c       ****         CyDelayUs(600);// >500
  68              		.loc 1 22 0
  69 002e 9620     		movs	r0, #150
  70 0030 8000     		lsls	r0, r0, #2
  71 0032 FFF7FEFF 		bl	CyDelayUs
  72              	.LVL7:
  23:RC522.c       **** }
  73              		.loc 1 23 0
  74              		@ sp needed
  75 0036 70BD     		pop	{r4, r5, r6, pc}
  76              		.cfi_endproc
  77              	.LFE33:
  78              		.size	PCD_WriteRegister, .-PCD_WriteRegister
  79              		.section	.text.PCD_WriteRegisters,"ax",%progbits
  80              		.align	2
  81              		.global	PCD_WriteRegisters
  82              		.code	16
  83              		.thumb_func
  84              		.type	PCD_WriteRegisters, %function
  85              	PCD_WriteRegisters:
  86              	.LFB34:
  24:RC522.c       **** void PCD_WriteRegisters( unsigned char addr,unsigned char count,unsigned char *values){
  87              		.loc 1 24 0
  88              		.cfi_startproc
  89              		@ args = 0, pretend = 0, frame = 0
  90              		@ frame_needed = 0, uses_anonymous_args = 0
ARM GAS  C:\Users\ABAD_S~1\AppData\Local\Temp\cckPFQC2.s 			page 3


  91              	.LVL8:
  92 0000 70B5     		push	{r4, r5, r6, lr}
  93              		.cfi_def_cfa_offset 16
  94              		.cfi_offset 4, -16
  95              		.cfi_offset 5, -12
  96              		.cfi_offset 6, -8
  97              		.cfi_offset 14, -4
  98 0002 0400     		movs	r4, r0
  99 0004 0D00     		movs	r5, r1
 100 0006 1600     		movs	r6, r2
 101              	.LVL9:
 102              	.L5:
  25:RC522.c       **** 
  26:RC522.c       ****     //SS = false;
  27:RC522.c       ****     while ( ! (SPI_ReadTxStatus() & SPI_STS_SPI_IDLE) );//   Espera a que el canal este disponible 
 103              		.loc 1 27 0 discriminator 1
 104 0008 FFF7FEFF 		bl	SPI_ReadTxStatus
 105              	.LVL10:
 106 000c C306     		lsls	r3, r0, #27
 107 000e FBD5     		bpl	.L5
  28:RC522.c       ****     SPI_WriteTxData((addr << 1 ) & 0x7E );//Equivalente a SPI.transfer((addr<<1)&0x7E);
 108              		.loc 1 28 0
 109 0010 6400     		lsls	r4, r4, #1
 110 0012 7E20     		movs	r0, #126
 111 0014 2040     		ands	r0, r4
 112 0016 FFF7FEFF 		bl	SPI_WriteTxData
 113              	.LVL11:
 114              	.LBB2:
  29:RC522.c       ****     // MSB == 0 is for writing. LSB is not used in address. Datasheet section 8.1.2.3.
  30:RC522.c       **** 	for (unsigned char index = 0; index < count; index++) {
 115              		.loc 1 30 0
 116 001a 0024     		movs	r4, #0
 117 001c 08E0     		b	.L6
 118              	.LVL12:
 119              	.L7:
  31:RC522.c       ****         while ( ! (SPI_ReadTxStatus() & SPI_STS_SPI_IDLE) );//Espera a que el canal este disponible
 120              		.loc 1 31 0 discriminator 1
 121 001e FFF7FEFF 		bl	SPI_ReadTxStatus
 122              	.LVL13:
 123 0022 C306     		lsls	r3, r0, #27
 124 0024 FBD5     		bpl	.L7
  32:RC522.c       **** 		SPI_WriteTxData(values[index]);  
 125              		.loc 1 32 0 discriminator 2
 126 0026 305D     		ldrb	r0, [r6, r4]
 127 0028 FFF7FEFF 		bl	SPI_WriteTxData
 128              	.LVL14:
  30:RC522.c       ****         while ( ! (SPI_ReadTxStatus() & SPI_STS_SPI_IDLE) );//Espera a que el canal este disponible
 129              		.loc 1 30 0 discriminator 2
 130 002c 0134     		adds	r4, r4, #1
 131              	.LVL15:
 132 002e E4B2     		uxtb	r4, r4
 133              	.LVL16:
 134              	.L6:
  30:RC522.c       ****         while ( ! (SPI_ReadTxStatus() & SPI_STS_SPI_IDLE) );//Espera a que el canal este disponible
 135              		.loc 1 30 0 is_stmt 0 discriminator 1
 136 0030 AC42     		cmp	r4, r5
 137 0032 F4D3     		bcc	.L7
ARM GAS  C:\Users\ABAD_S~1\AppData\Local\Temp\cckPFQC2.s 			page 4


 138              	.LBE2:
  33:RC522.c       **** 	}
  34:RC522.c       **** 	//SS = true;
  35:RC522.c       **** }
 139              		.loc 1 35 0 is_stmt 1
 140              		@ sp needed
 141              	.LVL17:
 142              	.LVL18:
 143 0034 70BD     		pop	{r4, r5, r6, pc}
 144              		.cfi_endproc
 145              	.LFE34:
 146              		.size	PCD_WriteRegisters, .-PCD_WriteRegisters
 147 0036 C046     		.section	.text.PCD_ReadRegister,"ax",%progbits
 148              		.align	2
 149              		.global	PCD_ReadRegister
 150              		.code	16
 151              		.thumb_func
 152              		.type	PCD_ReadRegister, %function
 153              	PCD_ReadRegister:
 154              	.LFB35:
  36:RC522.c       **** 
  37:RC522.c       **** unsigned char PCD_ReadRegister(unsigned char addr) {
 155              		.loc 1 37 0
 156              		.cfi_startproc
 157              		@ args = 0, pretend = 0, frame = 0
 158              		@ frame_needed = 0, uses_anonymous_args = 0
 159              	.LVL19:
 160 0000 10B5     		push	{r4, lr}
 161              		.cfi_def_cfa_offset 8
 162              		.cfi_offset 4, -8
 163              		.cfi_offset 14, -4
 164 0002 0400     		movs	r4, r0
  38:RC522.c       ****         unsigned char value;
  39:RC522.c       ****  
  40:RC522.c       ****     SPI_ClearFIFO(); SPI_ClearRxBuffer();
 165              		.loc 1 40 0
 166 0004 FFF7FEFF 		bl	SPI_ClearFIFO
 167              	.LVL20:
 168 0008 FFF7FEFF 		bl	SPI_ClearRxBuffer
 169              	.LVL21:
 170              	.L9:
  41:RC522.c       ****    while (!(SPI_ReadTxStatus()&SPI_STS_SPI_IDLE));//Espera a que el canal este disponible
 171              		.loc 1 41 0 discriminator 1
 172 000c FFF7FEFF 		bl	SPI_ReadTxStatus
 173              	.LVL22:
 174 0010 C306     		lsls	r3, r0, #27
 175 0012 FBD5     		bpl	.L9
  42:RC522.c       ****    SPI_WriteTxData(((addr<<1)&0x7E)|0x80);   // Equivalente a SPI.transfer(((addr<<1)&0x7E) | 0x80)
 176              		.loc 1 42 0
 177 0014 6400     		lsls	r4, r4, #1
 178 0016 7E20     		movs	r0, #126
 179 0018 0440     		ands	r4, r0
 180 001a FE38     		subs	r0, r0, #254
 181 001c 2043     		orrs	r0, r4
 182 001e C0B2     		uxtb	r0, r0
 183 0020 FFF7FEFF 		bl	SPI_WriteTxData
 184              	.LVL23:
ARM GAS  C:\Users\ABAD_S~1\AppData\Local\Temp\cckPFQC2.s 			page 5


  43:RC522.c       ****    SPI_WriteTxData(((0x00<<1)&0x7E)|0x00);  
 185              		.loc 1 43 0
 186 0024 0020     		movs	r0, #0
 187 0026 FFF7FEFF 		bl	SPI_WriteTxData
 188              	.LVL24:
  44:RC522.c       ****    CyDelayUs(500);  SPI_ReadRxData(); 
 189              		.loc 1 44 0
 190 002a FA20     		movs	r0, #250
 191 002c 4000     		lsls	r0, r0, #1
 192 002e FFF7FEFF 		bl	CyDelayUs
 193              	.LVL25:
 194 0032 FFF7FEFF 		bl	SPI_ReadRxData
 195              	.LVL26:
  45:RC522.c       ****    value = SPI_ReadRxData(); 
 196              		.loc 1 45 0
 197 0036 FFF7FEFF 		bl	SPI_ReadRxData
 198              	.LVL27:
  46:RC522.c       ****     
  47:RC522.c       ****     
  48:RC522.c       **** 	return value;
  49:RC522.c       **** } // End PCD_ReadRegister()
 199              		.loc 1 49 0
 200              		@ sp needed
 201 003a 10BD     		pop	{r4, pc}
 202              		.cfi_endproc
 203              	.LFE35:
 204              		.size	PCD_ReadRegister, .-PCD_ReadRegister
 205              		.section	.text.PCD_ReadRegisters,"ax",%progbits
 206              		.align	2
 207              		.global	PCD_ReadRegisters
 208              		.code	16
 209              		.thumb_func
 210              		.type	PCD_ReadRegisters, %function
 211              	PCD_ReadRegisters:
 212              	.LFB36:
  50:RC522.c       **** 
  51:RC522.c       **** void PCD_ReadRegisters(	unsigned char addr,	///< The register to read from. One of the PCD_Register
  52:RC522.c       ****                         unsigned char count,			///< The number of bytes to read
  53:RC522.c       **** 						unsigned char *values,		///< Byte array to store the values in.
  54:RC522.c       ****                         unsigned char rxAlign		///< Only bit positions rxAlign..7 in values[0] are 
  55:RC522.c       **** 								) {
 213              		.loc 1 55 0
 214              		.cfi_startproc
 215              		@ args = 0, pretend = 0, frame = 8
 216              		@ frame_needed = 0, uses_anonymous_args = 0
 217              	.LVL28:
 218 0000 F0B5     		push	{r4, r5, r6, r7, lr}
 219              		.cfi_def_cfa_offset 20
 220              		.cfi_offset 4, -20
 221              		.cfi_offset 5, -16
 222              		.cfi_offset 6, -12
 223              		.cfi_offset 7, -8
 224              		.cfi_offset 14, -4
 225 0002 83B0     		sub	sp, sp, #12
 226              		.cfi_def_cfa_offset 32
 227 0004 0400     		movs	r4, r0
 228 0006 1500     		movs	r5, r2
ARM GAS  C:\Users\ABAD_S~1\AppData\Local\Temp\cckPFQC2.s 			page 6


 229 0008 1E00     		movs	r6, r3
  56:RC522.c       **** 	if (count == 0) {
 230              		.loc 1 56 0
 231 000a 0029     		cmp	r1, #0
 232 000c 3DD0     		beq	.L10
 233              	.LVL29:
  57:RC522.c       **** 		return;
  58:RC522.c       **** 	}
  59:RC522.c       ****     //SSPCON1bits.SSPEN=1;   // Enable SPI port
  60:RC522.c       ****     unsigned char index = 0;							// Index in values array.
  61:RC522.c       ****     //Activa con c0
  62:RC522.c       ****     //SS = false;
  63:RC522.c       **** 	count--;								// One read is performed outside of the loop
 234              		.loc 1 63 0
 235 000e 0139     		subs	r1, r1, #1
 236              	.LVL30:
 237 0010 CFB2     		uxtb	r7, r1
 238              	.LVL31:
 239              	.L12:
  64:RC522.c       ****     while ( ! (SPI_ReadTxStatus() & SPI_STS_SPI_IDLE) );
 240              		.loc 1 64 0 discriminator 1
 241 0012 FFF7FEFF 		bl	SPI_ReadTxStatus
 242              	.LVL32:
 243 0016 C306     		lsls	r3, r0, #27
 244 0018 FBD5     		bpl	.L12
  65:RC522.c       **** 	SPI_WriteTxData(((addr<<1)&0x7E)|0x80);// Equivalente a SPI.transfer(((addr<<1)&0x7E) | 0x80);
 245              		.loc 1 65 0
 246 001a 6400     		lsls	r4, r4, #1
 247 001c 7E23     		movs	r3, #126
 248 001e 1C40     		ands	r4, r3
 249 0020 FE3B     		subs	r3, r3, #254
 250 0022 2343     		orrs	r3, r4
 251 0024 DBB2     		uxtb	r3, r3
 252 0026 0193     		str	r3, [sp, #4]
 253 0028 1800     		movs	r0, r3
 254 002a FFF7FEFF 		bl	SPI_WriteTxData
 255              	.LVL33:
  66:RC522.c       **** 	if (rxAlign) {		// Only update bit positions rxAlign..7 in values[0]
 256              		.loc 1 66 0
 257 002e 002E     		cmp	r6, #0
 258 0030 13D0     		beq	.L17
 259              	.LBB3:
  67:RC522.c       **** 		// Create bit mask for bit positions rxAlign..7
  68:RC522.c       **** 		unsigned char mask = (0xFF << rxAlign) & 0xFF;
 260              		.loc 1 68 0
 261 0032 FF23     		movs	r3, #255
 262 0034 B340     		lsls	r3, r3, r6
 263 0036 1E00     		movs	r6, r3
 264 0038 DCB2     		uxtb	r4, r3
 265              	.LVL34:
 266              	.L14:
  69:RC522.c       **** 		// Read value and tell that we want to read the same address again.
  70:RC522.c       ****         while ( ! (SPI_ReadTxStatus() & SPI_STS_SPI_IDLE) );
 267              		.loc 1 70 0 discriminator 1
 268 003a FFF7FEFF 		bl	SPI_ReadTxStatus
 269              	.LVL35:
 270 003e C306     		lsls	r3, r0, #27
ARM GAS  C:\Users\ABAD_S~1\AppData\Local\Temp\cckPFQC2.s 			page 7


 271 0040 FBD5     		bpl	.L14
  71:RC522.c       ****         SPI_WriteTxData(((addr<<1)&0x7E)|0x80);// Equivalente a SPI.transfer(((addr<<1)&0x7E) | 0x8
 272              		.loc 1 71 0
 273 0042 0198     		ldr	r0, [sp, #4]
 274 0044 FFF7FEFF 		bl	SPI_WriteTxData
 275              	.LVL36:
  72:RC522.c       **** 		unsigned char value =  SPI_ReadRxData();
 276              		.loc 1 72 0
 277 0048 FFF7FEFF 		bl	SPI_ReadRxData
 278              	.LVL37:
  73:RC522.c       **** 		// Apply mask to both current value of values[0] and the new data in value.
  74:RC522.c       **** 		values[0] = (values[0] & ~mask) | (value & mask);
 279              		.loc 1 74 0
 280 004c 2B78     		ldrb	r3, [r5]
 281 004e B343     		bics	r3, r6
 282 0050 0440     		ands	r4, r0
 283              	.LVL38:
 284 0052 1C43     		orrs	r4, r3
 285 0054 2C70     		strb	r4, [r5]
 286              	.LVL39:
  75:RC522.c       **** 		index++;
 287              		.loc 1 75 0
 288 0056 0124     		movs	r4, #1
 289 0058 0EE0     		b	.L15
 290              	.LVL40:
 291              	.L17:
 292              	.LBE3:
  60:RC522.c       ****     //Activa con c0
 293              		.loc 1 60 0
 294 005a 0024     		movs	r4, #0
 295 005c 0CE0     		b	.L15
 296              	.LVL41:
 297              	.L16:
  76:RC522.c       **** 	}
  77:RC522.c       **** 	while (index < count) {
  78:RC522.c       ****         while ( ! (SPI_ReadTxStatus() & SPI_STS_SPI_IDLE) );
 298              		.loc 1 78 0 discriminator 1
 299 005e FFF7FEFF 		bl	SPI_ReadTxStatus
 300              	.LVL42:
 301 0062 C306     		lsls	r3, r0, #27
 302 0064 FBD5     		bpl	.L16
  79:RC522.c       **** 		SPI_WriteTxData(((addr<<1)&0x7E)|0x80);// Equivalente a SPI.transfer(((addr<<1)&0x7E) | 0x80);
 303              		.loc 1 79 0
 304 0066 0198     		ldr	r0, [sp, #4]
 305 0068 FFF7FEFF 		bl	SPI_WriteTxData
 306              	.LVL43:
  80:RC522.c       **** 		values[index] = SPI_ReadRxData();
 307              		.loc 1 80 0
 308 006c 2E19     		adds	r6, r5, r4
 309 006e FFF7FEFF 		bl	SPI_ReadRxData
 310              	.LVL44:
 311 0072 3070     		strb	r0, [r6]
  81:RC522.c       ****         index++;
 312              		.loc 1 81 0
 313 0074 0134     		adds	r4, r4, #1
 314              	.LVL45:
 315 0076 E4B2     		uxtb	r4, r4
ARM GAS  C:\Users\ABAD_S~1\AppData\Local\Temp\cckPFQC2.s 			page 8


 316              	.LVL46:
 317              	.L15:
  77:RC522.c       ****         while ( ! (SPI_ReadTxStatus() & SPI_STS_SPI_IDLE) );
 318              		.loc 1 77 0
 319 0078 BC42     		cmp	r4, r7
 320 007a F0D3     		bcc	.L16
  82:RC522.c       **** 	}
  83:RC522.c       ****     SPI_WriteTxData(0x00);
 321              		.loc 1 83 0
 322 007c 0020     		movs	r0, #0
 323 007e FFF7FEFF 		bl	SPI_WriteTxData
 324              	.LVL47:
  84:RC522.c       **** 	values[index] = SPI_ReadRxData(); // Equivalente a val = SPI.transfer(0x00);
 325              		.loc 1 84 0
 326 0082 2C19     		adds	r4, r5, r4
 327              	.LVL48:
 328 0084 FFF7FEFF 		bl	SPI_ReadRxData
 329              	.LVL49:
 330 0088 2070     		strb	r0, [r4]
 331              	.LVL50:
 332              	.L10:
  85:RC522.c       **** 	//SSPCON1bits.SSPEN=0;   // Enable SPI port
  86:RC522.c       ****     //SS = true;
  87:RC522.c       **** } // End PCD_ReadRegisters()
 333              		.loc 1 87 0
 334 008a 03B0     		add	sp, sp, #12
 335              		@ sp needed
 336              	.LVL51:
 337 008c F0BD     		pop	{r4, r5, r6, r7, pc}
 338              		.cfi_endproc
 339              	.LFE36:
 340              		.size	PCD_ReadRegisters, .-PCD_ReadRegisters
 341 008e C046     		.section	.text.PCD_SetRegisterBitMask,"ax",%progbits
 342              		.align	2
 343              		.global	PCD_SetRegisterBitMask
 344              		.code	16
 345              		.thumb_func
 346              		.type	PCD_SetRegisterBitMask, %function
 347              	PCD_SetRegisterBitMask:
 348              	.LFB37:
  88:RC522.c       **** 
  89:RC522.c       **** void PCD_SetRegisterBitMask( unsigned char reg,   ///< The register to update. One of the PCD_Regis
  90:RC522.c       **** 							 unsigned char mask   ///< The bits to set.
  91:RC522.c       **** 									) { 
 349              		.loc 1 91 0
 350              		.cfi_startproc
 351              		@ args = 0, pretend = 0, frame = 0
 352              		@ frame_needed = 0, uses_anonymous_args = 0
 353              	.LVL52:
 354 0000 70B5     		push	{r4, r5, r6, lr}
 355              		.cfi_def_cfa_offset 16
 356              		.cfi_offset 4, -16
 357              		.cfi_offset 5, -12
 358              		.cfi_offset 6, -8
 359              		.cfi_offset 14, -4
 360 0002 0500     		movs	r5, r0
 361 0004 0C00     		movs	r4, r1
ARM GAS  C:\Users\ABAD_S~1\AppData\Local\Temp\cckPFQC2.s 			page 9


  92:RC522.c       **** 	unsigned char tmp;
  93:RC522.c       **** 	tmp = PCD_ReadRegister(reg);
 362              		.loc 1 93 0
 363 0006 FFF7FEFF 		bl	PCD_ReadRegister
 364              	.LVL53:
  94:RC522.c       **** 	PCD_WriteRegister(reg, tmp | mask);			// set bit mask
 365              		.loc 1 94 0
 366 000a 0443     		orrs	r4, r0
 367 000c E1B2     		uxtb	r1, r4
 368 000e 2800     		movs	r0, r5
 369              	.LVL54:
 370 0010 FFF7FEFF 		bl	PCD_WriteRegister
 371              	.LVL55:
  95:RC522.c       **** } // End PCD_SetRegisterBitMask()
 372              		.loc 1 95 0
 373              		@ sp needed
 374 0014 70BD     		pop	{r4, r5, r6, pc}
 375              		.cfi_endproc
 376              	.LFE37:
 377              		.size	PCD_SetRegisterBitMask, .-PCD_SetRegisterBitMask
 378 0016 C046     		.section	.text.PCD_ClearRegisterBitMask,"ax",%progbits
 379              		.align	2
 380              		.global	PCD_ClearRegisterBitMask
 381              		.code	16
 382              		.thumb_func
 383              		.type	PCD_ClearRegisterBitMask, %function
 384              	PCD_ClearRegisterBitMask:
 385              	.LFB38:
  96:RC522.c       **** 
  97:RC522.c       **** 
  98:RC522.c       **** void PCD_ClearRegisterBitMask(	unsigned char reg,	///< The register to update. One of the PCD_Regis
  99:RC522.c       **** 								unsigned char mask			///< The bits to clear.
 100:RC522.c       **** 									  ) {
 386              		.loc 1 100 0
 387              		.cfi_startproc
 388              		@ args = 0, pretend = 0, frame = 0
 389              		@ frame_needed = 0, uses_anonymous_args = 0
 390              	.LVL56:
 391 0000 70B5     		push	{r4, r5, r6, lr}
 392              		.cfi_def_cfa_offset 16
 393              		.cfi_offset 4, -16
 394              		.cfi_offset 5, -12
 395              		.cfi_offset 6, -8
 396              		.cfi_offset 14, -4
 397 0002 0400     		movs	r4, r0
 398 0004 0D00     		movs	r5, r1
 101:RC522.c       **** 	unsigned char tmp;
 102:RC522.c       **** 	tmp = PCD_ReadRegister(reg);
 399              		.loc 1 102 0
 400 0006 FFF7FEFF 		bl	PCD_ReadRegister
 401              	.LVL57:
 103:RC522.c       **** PCD_WriteRegister(reg,(~ mask & tmp));		//PCD_WriteRegister(reg,(tmp&(~mask)));		// clear bit mask
 402              		.loc 1 103 0
 403 000a A843     		bics	r0, r5
 404              	.LVL58:
 405 000c C1B2     		uxtb	r1, r0
 406 000e 2000     		movs	r0, r4
ARM GAS  C:\Users\ABAD_S~1\AppData\Local\Temp\cckPFQC2.s 			page 10


 407 0010 FFF7FEFF 		bl	PCD_WriteRegister
 408              	.LVL59:
 104:RC522.c       **** } // End PCD_ClearRegisterBitMask()
 409              		.loc 1 104 0
 410              		@ sp needed
 411 0014 70BD     		pop	{r4, r5, r6, pc}
 412              		.cfi_endproc
 413              	.LFE38:
 414              		.size	PCD_ClearRegisterBitMask, .-PCD_ClearRegisterBitMask
 415 0016 C046     		.section	.text.PCD_CalculateCRC,"ax",%progbits
 416              		.align	2
 417              		.global	PCD_CalculateCRC
 418              		.code	16
 419              		.thumb_func
 420              		.type	PCD_CalculateCRC, %function
 421              	PCD_CalculateCRC:
 422              	.LFB39:
 105:RC522.c       **** 
 106:RC522.c       **** unsigned char  PCD_CalculateCRC(	unsigned char *data,		///< In: Pointer to the data to transfer to 
 107:RC522.c       **** 						unsigned char length,	///< In: The number of bytes to transfer.
 108:RC522.c       **** 						unsigned char *result	///< Out: Pointer to result buffer. Result is written to result[0..1], 
 109:RC522.c       **** 					 ) {
 423              		.loc 1 109 0
 424              		.cfi_startproc
 425              		@ args = 0, pretend = 0, frame = 0
 426              		@ frame_needed = 0, uses_anonymous_args = 0
 427              	.LVL60:
 428 0000 70B5     		push	{r4, r5, r6, lr}
 429              		.cfi_def_cfa_offset 16
 430              		.cfi_offset 4, -16
 431              		.cfi_offset 5, -12
 432              		.cfi_offset 6, -8
 433              		.cfi_offset 14, -4
 434 0002 0600     		movs	r6, r0
 435 0004 0C00     		movs	r4, r1
 436 0006 1500     		movs	r5, r2
 110:RC522.c       **** 	PCD_WriteRegister(CommandReg, PCD_Idle);		// Stop any active command.
 437              		.loc 1 110 0
 438 0008 0021     		movs	r1, #0
 439              	.LVL61:
 440 000a 0120     		movs	r0, #1
 441              	.LVL62:
 442 000c FFF7FEFF 		bl	PCD_WriteRegister
 443              	.LVL63:
 111:RC522.c       **** 	PCD_WriteRegister(DivIrqReg, 0x04);				// Clear the CRCIRq interrupt request bit
 444              		.loc 1 111 0
 445 0010 0421     		movs	r1, #4
 446 0012 0520     		movs	r0, #5
 447 0014 FFF7FEFF 		bl	PCD_WriteRegister
 448              	.LVL64:
 112:RC522.c       **** 	PCD_WriteRegister(FIFOLevelReg, 0x80);			// FlushBuffer = 1, FIFO initialization
 449              		.loc 1 112 0
 450 0018 8021     		movs	r1, #128
 451 001a 0A20     		movs	r0, #10
 452 001c FFF7FEFF 		bl	PCD_WriteRegister
 453              	.LVL65:
 113:RC522.c       **** 	PCD_WriteRegisters(FIFODataReg, length, data);	// Write data to the FIFO
ARM GAS  C:\Users\ABAD_S~1\AppData\Local\Temp\cckPFQC2.s 			page 11


 454              		.loc 1 113 0
 455 0020 3200     		movs	r2, r6
 456 0022 2100     		movs	r1, r4
 457 0024 0920     		movs	r0, #9
 458 0026 FFF7FEFF 		bl	PCD_WriteRegisters
 459              	.LVL66:
 114:RC522.c       **** 	PCD_WriteRegister(CommandReg, PCD_CalcCRC);		// Start the calculation
 460              		.loc 1 114 0
 461 002a 0321     		movs	r1, #3
 462 002c 0120     		movs	r0, #1
 463 002e FFF7FEFF 		bl	PCD_WriteRegister
 464              	.LVL67:
 465              	.LBB4:
 115:RC522.c       **** 	
 116:RC522.c       **** 	// Wait for the CRC calculation to complete. Each iteration of the while-loop takes 17.73?s.
 117:RC522.c       **** 	// TODO check/modify for other architectures than Arduino Uno 16bit
 118:RC522.c       **** 
 119:RC522.c       **** 	// Wait for the CRC calculation to complete. Each iteration of the while-loop takes 17.73us.
 120:RC522.c       **** 	for (uint16_t i = 5000; i > 0; i--) {
 466              		.loc 1 120 0
 467 0032 0D4C     		ldr	r4, .L25
 468 0034 14E0     		b	.L21
 469              	.LVL68:
 470              	.L24:
 471              	.LBB5:
 121:RC522.c       **** 		// DivIrqReg[7..0] bits are: Set2 reserved reserved MfinActIRq reserved CRCIRq reserved reserved
 122:RC522.c       **** 		unsigned char n = PCD_ReadRegister(DivIrqReg);
 472              		.loc 1 122 0
 473 0036 0520     		movs	r0, #5
 474 0038 FFF7FEFF 		bl	PCD_ReadRegister
 475              	.LVL69:
 123:RC522.c       **** 		if (n & 0x04) {									// CRCIRq bit set - calculation done
 476              		.loc 1 123 0
 477 003c 4307     		lsls	r3, r0, #29
 478 003e 0DD5     		bpl	.L22
 124:RC522.c       **** 			PCD_WriteRegister(CommandReg, PCD_Idle);	// Stop calculating CRC for new content in the FIFO.
 479              		.loc 1 124 0
 480 0040 0021     		movs	r1, #0
 481 0042 0120     		movs	r0, #1
 482              	.LVL70:
 483 0044 FFF7FEFF 		bl	PCD_WriteRegister
 484              	.LVL71:
 125:RC522.c       **** 			// Transfer the result from the registers to the result buffer
 126:RC522.c       **** 			result[0] = PCD_ReadRegister(CRCResultRegL);
 485              		.loc 1 126 0
 486 0048 2220     		movs	r0, #34
 487 004a FFF7FEFF 		bl	PCD_ReadRegister
 488              	.LVL72:
 489 004e 2870     		strb	r0, [r5]
 127:RC522.c       **** 			result[1] = PCD_ReadRegister(CRCResultRegH);
 490              		.loc 1 127 0
 491 0050 2120     		movs	r0, #33
 492 0052 FFF7FEFF 		bl	PCD_ReadRegister
 493              	.LVL73:
 494 0056 6870     		strb	r0, [r5, #1]
 128:RC522.c       **** 			return STATUS_OK;
 495              		.loc 1 128 0
ARM GAS  C:\Users\ABAD_S~1\AppData\Local\Temp\cckPFQC2.s 			page 12


 496 0058 0020     		movs	r0, #0
 497 005a 04E0     		b	.L23
 498              	.LVL74:
 499              	.L22:
 500              	.LBE5:
 120:RC522.c       **** 		// DivIrqReg[7..0] bits are: Set2 reserved reserved MfinActIRq reserved CRCIRq reserved reserved
 501              		.loc 1 120 0 discriminator 2
 502 005c 013C     		subs	r4, r4, #1
 503              	.LVL75:
 504 005e A4B2     		uxth	r4, r4
 505              	.LVL76:
 506              	.L21:
 120:RC522.c       **** 		// DivIrqReg[7..0] bits are: Set2 reserved reserved MfinActIRq reserved CRCIRq reserved reserved
 507              		.loc 1 120 0 is_stmt 0 discriminator 1
 508 0060 002C     		cmp	r4, #0
 509 0062 E8D1     		bne	.L24
 510              	.LBE4:
 129:RC522.c       **** 		}
 130:RC522.c       **** 	}
 131:RC522.c       **** 	// 89ms passed and nothing happend. Communication with the MFRC522 might be down.
 132:RC522.c       **** 	return STATUS_TIMEOUT;
 511              		.loc 1 132 0 is_stmt 1
 512 0064 0320     		movs	r0, #3
 513              	.L23:
 133:RC522.c       **** }
 514              		.loc 1 133 0
 515              		@ sp needed
 516              	.LVL77:
 517              	.LVL78:
 518              	.LVL79:
 519 0066 70BD     		pop	{r4, r5, r6, pc}
 520              	.L26:
 521              		.align	2
 522              	.L25:
 523 0068 88130000 		.word	5000
 524              		.cfi_endproc
 525              	.LFE39:
 526              		.size	PCD_CalculateCRC, .-PCD_CalculateCRC
 527              		.section	.text.PCD_Reset,"ax",%progbits
 528              		.align	2
 529              		.global	PCD_Reset
 530              		.code	16
 531              		.thumb_func
 532              		.type	PCD_Reset, %function
 533              	PCD_Reset:
 534              	.LFB41:
 134:RC522.c       **** 
 135:RC522.c       **** 
 136:RC522.c       **** 
 137:RC522.c       **** 
 138:RC522.c       **** 
 139:RC522.c       **** void PCD_Init(void) {
 140:RC522.c       **** 	// Set the chipSelectPin as digital output, do not select the slave yet
 141:RC522.c       ****     bool hardReset;
 142:RC522.c       ****     SPI_Start();
 143:RC522.c       ****     //SS = true;
 144:RC522.c       ****     //rst entrada
ARM GAS  C:\Users\ABAD_S~1\AppData\Local\Temp\cckPFQC2.s 			page 13


 145:RC522.c       ****     
 146:RC522.c       ****     if (RESET_Read() == 0) {      
 147:RC522.c       ****     RESET_Write(0);		// Make shure we have a clean LOW state.
 148:RC522.c       ****     CyDelayUs(20);				// 8.8.1 Reset timing requirements says about 100ns. Let us be generous: 2?sl
 149:RC522.c       ****     RESET_Write(1); // Exit power down mode. This triggers a hard reset.
 150:RC522.c       ****     CyDelay(50);//Delay 50 ms
 151:RC522.c       **** 	hardReset = true;   
 152:RC522.c       ****     }
 153:RC522.c       ****     if(!hardReset){
 154:RC522.c       **** 	PCD_Reset();
 155:RC522.c       ****     }
 156:RC522.c       **** 	// Reset baud rates
 157:RC522.c       **** 	PCD_WriteRegister(TxModeReg, 0x00);
 158:RC522.c       **** 	PCD_WriteRegister(RxModeReg, 0x00);
 159:RC522.c       **** 	// Reset ModWidthReg
 160:RC522.c       **** 	PCD_WriteRegister(ModWidthReg, 0x26);
 161:RC522.c       **** 	// When communicating with a PICC we need a timeout if something goes wrong.
 162:RC522.c       **** 	// f_timer = 13.56 MHz / (2*TPreScaler+1) where TPreScaler = [TPrescaler_Hi:TPrescaler_Lo].
 163:RC522.c       **** 	// TPrescaler_Hi are the four low bits in TModeReg. TPrescaler_Lo is TPrescalerReg.
 164:RC522.c       **** 	PCD_WriteRegister(TModeReg, 0x80);			// TAuto=1;   —Ç–∞–π–º–µ—Ä –∑–∞–ø—É—Å–∫–∞–µ—Ç—Å—è –∞–≤—Ç–æ–º–
 165:RC522.c       **** 	PCD_WriteRegister(TPrescalerReg, 0xA9);		// TPreScaler = TModeReg[3..0]:TPrescalerReg, ie 0x0A9 = 
 166:RC522.c       **** 	PCD_WriteRegister(TReloadRegH, 0x03);		// Reload timer with 0x3E8 = 1000, ie 25ms before timeout.
 167:RC522.c       **** 	PCD_WriteRegister(TReloadRegL, 0xE8);
 168:RC522.c       **** 	PCD_WriteRegister(TxASKReg, 0x40);		// Default 0x00. –ü—Ä–∏–Ω—É–¥–∏—Ç–µ–ª—å–Ω–∞—è –º–æ–¥—É–ª—è—Ü–∏
 169:RC522.c       **** 	PCD_WriteRegister(ModeReg, 0x3D);		// Default 0x3F. –£—Å—Ç–∞–Ω–æ–≤–∏—Ç–µ –ø—Ä–µ–¥—É—Å—Ç–∞–Ω–æ–≤–ª–
 170:RC522.c       **** 	PCD_AntennaOn();						// Enable the antenna driver pins TX1 and TX2 (they were disabled by the res
 171:RC522.c       **** } // End PCD_Init()
 172:RC522.c       **** 
 173:RC522.c       **** void PCD_Reset(void){
 535              		.loc 1 173 0
 536              		.cfi_startproc
 537              		@ args = 0, pretend = 0, frame = 0
 538              		@ frame_needed = 0, uses_anonymous_args = 0
 539 0000 10B5     		push	{r4, lr}
 540              		.cfi_def_cfa_offset 8
 541              		.cfi_offset 4, -8
 542              		.cfi_offset 14, -4
 174:RC522.c       **** 	PCD_WriteRegister(CommandReg, PCD_SoftReset);	// Issue the SoftReset command.
 543              		.loc 1 174 0
 544 0002 0F21     		movs	r1, #15
 545 0004 0120     		movs	r0, #1
 546 0006 FFF7FEFF 		bl	PCD_WriteRegister
 547              	.LVL80:
 175:RC522.c       **** 	// The datasheet does not mention how unsigned long the SoftRest command takes to complete.
 176:RC522.c       **** 	// But the MFRC522 might have been in soft power-down mode (triggered by bit 4 of CommandReg) 
 177:RC522.c       **** 	// Section 8.8.2 in the datasheet says the oscillator start-up time is the start up time of the cr
 178:RC522.c       **** 	unsigned char count = 0;
 548              		.loc 1 178 0
 549 000a 0024     		movs	r4, #0
 550              	.LVL81:
 551              	.L29:
 179:RC522.c       **** 	do {
 180:RC522.c       **** 		// Wait for the PowerDown bit in CommandReg to be cleared (max 3x50ms)
 181:RC522.c       **** 	    CyDelay(50);
 552              		.loc 1 181 0 discriminator 2
 553 000c 3220     		movs	r0, #50
 554 000e FFF7FEFF 		bl	CyDelay
ARM GAS  C:\Users\ABAD_S~1\AppData\Local\Temp\cckPFQC2.s 			page 14


 555              	.LVL82:
 182:RC522.c       **** 	} while ((PCD_ReadRegister(CommandReg) & (1 << 4)) && (++count) < 3);
 556              		.loc 1 182 0 discriminator 2
 557 0012 0120     		movs	r0, #1
 558 0014 FFF7FEFF 		bl	PCD_ReadRegister
 559              	.LVL83:
 560 0018 C306     		lsls	r3, r0, #27
 561 001a 03D5     		bpl	.L27
 562              		.loc 1 182 0 is_stmt 0 discriminator 1
 563 001c 0134     		adds	r4, r4, #1
 564              	.LVL84:
 565 001e E4B2     		uxtb	r4, r4
 566              	.LVL85:
 567 0020 022C     		cmp	r4, #2
 568 0022 F3D9     		bls	.L29
 569              	.L27:
 183:RC522.c       **** } // End PCD_Reset()
 570              		.loc 1 183 0 is_stmt 1
 571              		@ sp needed
 572              	.LVL86:
 573 0024 10BD     		pop	{r4, pc}
 574              		.cfi_endproc
 575              	.LFE41:
 576              		.size	PCD_Reset, .-PCD_Reset
 577 0026 C046     		.section	.text.PCD_AntennaOn,"ax",%progbits
 578              		.align	2
 579              		.global	PCD_AntennaOn
 580              		.code	16
 581              		.thumb_func
 582              		.type	PCD_AntennaOn, %function
 583              	PCD_AntennaOn:
 584              	.LFB42:
 184:RC522.c       **** 
 185:RC522.c       **** void PCD_AntennaOn(void) {
 585              		.loc 1 185 0
 586              		.cfi_startproc
 587              		@ args = 0, pretend = 0, frame = 0
 588              		@ frame_needed = 0, uses_anonymous_args = 0
 589 0000 10B5     		push	{r4, lr}
 590              		.cfi_def_cfa_offset 8
 591              		.cfi_offset 4, -8
 592              		.cfi_offset 14, -4
 186:RC522.c       **** 	unsigned char value = PCD_ReadRegister(TxControlReg);
 593              		.loc 1 186 0
 594 0002 1420     		movs	r0, #20
 595 0004 FFF7FEFF 		bl	PCD_ReadRegister
 596              	.LVL87:
 187:RC522.c       **** 	// if ((value & 0x03) != 0x03) {
 188:RC522.c       **** 		PCD_WriteRegister(TxControlReg, value | 0x03);
 597              		.loc 1 188 0
 598 0008 0323     		movs	r3, #3
 599 000a 1843     		orrs	r0, r3
 600              	.LVL88:
 601 000c C1B2     		uxtb	r1, r0
 602 000e 1420     		movs	r0, #20
 603 0010 FFF7FEFF 		bl	PCD_WriteRegister
 604              	.LVL89:
ARM GAS  C:\Users\ABAD_S~1\AppData\Local\Temp\cckPFQC2.s 			page 15


 189:RC522.c       **** 	// }
 190:RC522.c       **** } // End PCD_AntennaOn()
 605              		.loc 1 190 0
 606              		@ sp needed
 607 0014 10BD     		pop	{r4, pc}
 608              		.cfi_endproc
 609              	.LFE42:
 610              		.size	PCD_AntennaOn, .-PCD_AntennaOn
 611 0016 C046     		.section	.text.PCD_Init,"ax",%progbits
 612              		.align	2
 613              		.global	PCD_Init
 614              		.code	16
 615              		.thumb_func
 616              		.type	PCD_Init, %function
 617              	PCD_Init:
 618              	.LFB40:
 139:RC522.c       **** 	// Set the chipSelectPin as digital output, do not select the slave yet
 619              		.loc 1 139 0
 620              		.cfi_startproc
 621              		@ args = 0, pretend = 0, frame = 0
 622              		@ frame_needed = 0, uses_anonymous_args = 0
 623 0000 10B5     		push	{r4, lr}
 624              		.cfi_def_cfa_offset 8
 625              		.cfi_offset 4, -8
 626              		.cfi_offset 14, -4
 142:RC522.c       ****     //SS = true;
 627              		.loc 1 142 0
 628 0002 FFF7FEFF 		bl	SPI_Start
 629              	.LVL90:
 146:RC522.c       ****     RESET_Write(0);		// Make shure we have a clean LOW state.
 630              		.loc 1 146 0
 631 0006 FFF7FEFF 		bl	RESET_Read
 632              	.LVL91:
 633 000a 0028     		cmp	r0, #0
 634 000c 0AD1     		bne	.L32
 147:RC522.c       ****     CyDelayUs(20);				// 8.8.1 Reset timing requirements says about 100ns. Let us be generous: 2?sl
 635              		.loc 1 147 0
 636 000e FFF7FEFF 		bl	RESET_Write
 637              	.LVL92:
 148:RC522.c       ****     RESET_Write(1); // Exit power down mode. This triggers a hard reset.
 638              		.loc 1 148 0
 639 0012 1420     		movs	r0, #20
 640 0014 FFF7FEFF 		bl	CyDelayUs
 641              	.LVL93:
 149:RC522.c       ****     CyDelay(50);//Delay 50 ms
 642              		.loc 1 149 0
 643 0018 0120     		movs	r0, #1
 644 001a FFF7FEFF 		bl	RESET_Write
 645              	.LVL94:
 150:RC522.c       **** 	hardReset = true;   
 646              		.loc 1 150 0
 647 001e 3220     		movs	r0, #50
 648 0020 FFF7FEFF 		bl	CyDelay
 649              	.LVL95:
 650              	.L32:
 157:RC522.c       **** 	PCD_WriteRegister(RxModeReg, 0x00);
 651              		.loc 1 157 0
ARM GAS  C:\Users\ABAD_S~1\AppData\Local\Temp\cckPFQC2.s 			page 16


 652 0024 0021     		movs	r1, #0
 653 0026 1220     		movs	r0, #18
 654 0028 FFF7FEFF 		bl	PCD_WriteRegister
 655              	.LVL96:
 158:RC522.c       **** 	// Reset ModWidthReg
 656              		.loc 1 158 0
 657 002c 0021     		movs	r1, #0
 658 002e 1320     		movs	r0, #19
 659 0030 FFF7FEFF 		bl	PCD_WriteRegister
 660              	.LVL97:
 160:RC522.c       **** 	// When communicating with a PICC we need a timeout if something goes wrong.
 661              		.loc 1 160 0
 662 0034 2621     		movs	r1, #38
 663 0036 2420     		movs	r0, #36
 664 0038 FFF7FEFF 		bl	PCD_WriteRegister
 665              	.LVL98:
 164:RC522.c       **** 	PCD_WriteRegister(TPrescalerReg, 0xA9);		// TPreScaler = TModeReg[3..0]:TPrescalerReg, ie 0x0A9 = 
 666              		.loc 1 164 0
 667 003c 8021     		movs	r1, #128
 668 003e 2A20     		movs	r0, #42
 669 0040 FFF7FEFF 		bl	PCD_WriteRegister
 670              	.LVL99:
 165:RC522.c       **** 	PCD_WriteRegister(TReloadRegH, 0x03);		// Reload timer with 0x3E8 = 1000, ie 25ms before timeout.
 671              		.loc 1 165 0
 672 0044 A921     		movs	r1, #169
 673 0046 2B20     		movs	r0, #43
 674 0048 FFF7FEFF 		bl	PCD_WriteRegister
 675              	.LVL100:
 166:RC522.c       **** 	PCD_WriteRegister(TReloadRegL, 0xE8);
 676              		.loc 1 166 0
 677 004c 0321     		movs	r1, #3
 678 004e 2C20     		movs	r0, #44
 679 0050 FFF7FEFF 		bl	PCD_WriteRegister
 680              	.LVL101:
 167:RC522.c       **** 	PCD_WriteRegister(TxASKReg, 0x40);		// Default 0x00. –ü—Ä–∏–Ω—É–¥–∏—Ç–µ–ª—å–Ω–∞—è –º–æ–¥—É–ª—è—Ü–∏
 681              		.loc 1 167 0
 682 0054 E821     		movs	r1, #232
 683 0056 2D20     		movs	r0, #45
 684 0058 FFF7FEFF 		bl	PCD_WriteRegister
 685              	.LVL102:
 168:RC522.c       **** 	PCD_WriteRegister(ModeReg, 0x3D);		// Default 0x3F. –£—Å—Ç–∞–Ω–æ–≤–∏—Ç–µ –ø—Ä–µ–¥—É—Å—Ç–∞–Ω–æ–≤–ª–
 686              		.loc 1 168 0
 687 005c 4021     		movs	r1, #64
 688 005e 1520     		movs	r0, #21
 689 0060 FFF7FEFF 		bl	PCD_WriteRegister
 690              	.LVL103:
 169:RC522.c       **** 	PCD_AntennaOn();						// Enable the antenna driver pins TX1 and TX2 (they were disabled by the res
 691              		.loc 1 169 0
 692 0064 3D21     		movs	r1, #61
 693 0066 1120     		movs	r0, #17
 694 0068 FFF7FEFF 		bl	PCD_WriteRegister
 695              	.LVL104:
 170:RC522.c       **** } // End PCD_Init()
 696              		.loc 1 170 0
 697 006c FFF7FEFF 		bl	PCD_AntennaOn
 698              	.LVL105:
 171:RC522.c       **** 
ARM GAS  C:\Users\ABAD_S~1\AppData\Local\Temp\cckPFQC2.s 			page 17


 699              		.loc 1 171 0
 700              		@ sp needed
 701 0070 10BD     		pop	{r4, pc}
 702              		.cfi_endproc
 703              	.LFE40:
 704              		.size	PCD_Init, .-PCD_Init
 705 0072 C046     		.section	.text.PCD_AntennaOff,"ax",%progbits
 706              		.align	2
 707              		.global	PCD_AntennaOff
 708              		.code	16
 709              		.thumb_func
 710              		.type	PCD_AntennaOff, %function
 711              	PCD_AntennaOff:
 712              	.LFB43:
 191:RC522.c       **** 
 192:RC522.c       **** void PCD_AntennaOff(void) {
 713              		.loc 1 192 0
 714              		.cfi_startproc
 715              		@ args = 0, pretend = 0, frame = 0
 716              		@ frame_needed = 0, uses_anonymous_args = 0
 717 0000 10B5     		push	{r4, lr}
 718              		.cfi_def_cfa_offset 8
 719              		.cfi_offset 4, -8
 720              		.cfi_offset 14, -4
 193:RC522.c       **** 	PCD_ClearRegisterBitMask(TxControlReg, 0x03);
 721              		.loc 1 193 0
 722 0002 0321     		movs	r1, #3
 723 0004 1420     		movs	r0, #20
 724 0006 FFF7FEFF 		bl	PCD_ClearRegisterBitMask
 725              	.LVL106:
 194:RC522.c       **** } // End PCD_AntennaOff()
 726              		.loc 1 194 0
 727              		@ sp needed
 728 000a 10BD     		pop	{r4, pc}
 729              		.cfi_endproc
 730              	.LFE43:
 731              		.size	PCD_AntennaOff, .-PCD_AntennaOff
 732              		.section	.text.PCD_GetAntennaGain,"ax",%progbits
 733              		.align	2
 734              		.global	PCD_GetAntennaGain
 735              		.code	16
 736              		.thumb_func
 737              		.type	PCD_GetAntennaGain, %function
 738              	PCD_GetAntennaGain:
 739              	.LFB44:
 195:RC522.c       **** 
 196:RC522.c       **** unsigned char PCD_GetAntennaGain() {
 740              		.loc 1 196 0
 741              		.cfi_startproc
 742              		@ args = 0, pretend = 0, frame = 0
 743              		@ frame_needed = 0, uses_anonymous_args = 0
 744 0000 10B5     		push	{r4, lr}
 745              		.cfi_def_cfa_offset 8
 746              		.cfi_offset 4, -8
 747              		.cfi_offset 14, -4
 197:RC522.c       **** 	return PCD_ReadRegister(RFCfgReg) & (0x07<<4);
 748              		.loc 1 197 0
ARM GAS  C:\Users\ABAD_S~1\AppData\Local\Temp\cckPFQC2.s 			page 18


 749 0002 2620     		movs	r0, #38
 750 0004 FFF7FEFF 		bl	PCD_ReadRegister
 751              	.LVL107:
 752 0008 7023     		movs	r3, #112
 753 000a 1840     		ands	r0, r3
 198:RC522.c       **** } // End PCD_GetAntennaGain()
 754              		.loc 1 198 0
 755              		@ sp needed
 756 000c 10BD     		pop	{r4, pc}
 757              		.cfi_endproc
 758              	.LFE44:
 759              		.size	PCD_GetAntennaGain, .-PCD_GetAntennaGain
 760 000e C046     		.section	.text.PCD_SetAntennaGain,"ax",%progbits
 761              		.align	2
 762              		.global	PCD_SetAntennaGain
 763              		.code	16
 764              		.thumb_func
 765              		.type	PCD_SetAntennaGain, %function
 766              	PCD_SetAntennaGain:
 767              	.LFB45:
 199:RC522.c       **** 
 200:RC522.c       **** void PCD_SetAntennaGain(unsigned char mask) {
 768              		.loc 1 200 0
 769              		.cfi_startproc
 770              		@ args = 0, pretend = 0, frame = 0
 771              		@ frame_needed = 0, uses_anonymous_args = 0
 772              	.LVL108:
 773 0000 10B5     		push	{r4, lr}
 774              		.cfi_def_cfa_offset 8
 775              		.cfi_offset 4, -8
 776              		.cfi_offset 14, -4
 777 0002 0400     		movs	r4, r0
 201:RC522.c       **** 	if (PCD_GetAntennaGain() != mask) {						// only bother if there is a change
 778              		.loc 1 201 0
 779 0004 FFF7FEFF 		bl	PCD_GetAntennaGain
 780              	.LVL109:
 781 0008 A042     		cmp	r0, r4
 782 000a 08D0     		beq	.L35
 202:RC522.c       **** 		PCD_ClearRegisterBitMask(RFCfgReg, (0x07<<4));		// clear needed to allow 000 pattern
 783              		.loc 1 202 0
 784 000c 7021     		movs	r1, #112
 785 000e 2620     		movs	r0, #38
 786 0010 FFF7FEFF 		bl	PCD_ClearRegisterBitMask
 787              	.LVL110:
 203:RC522.c       **** 		PCD_SetRegisterBitMask(RFCfgReg, mask & (0x07<<4));	// only set RxGain[2:0] bits
 788              		.loc 1 203 0
 789 0014 7021     		movs	r1, #112
 790 0016 2140     		ands	r1, r4
 791 0018 2620     		movs	r0, #38
 792 001a FFF7FEFF 		bl	PCD_SetRegisterBitMask
 793              	.LVL111:
 794              	.L35:
 204:RC522.c       **** 	}
 205:RC522.c       **** } // End PCD_SetAntennaGain()
 795              		.loc 1 205 0
 796              		@ sp needed
 797 001e 10BD     		pop	{r4, pc}
ARM GAS  C:\Users\ABAD_S~1\AppData\Local\Temp\cckPFQC2.s 			page 19


 798              		.cfi_endproc
 799              	.LFE45:
 800              		.size	PCD_SetAntennaGain, .-PCD_SetAntennaGain
 801              		.section	.text.PCD_PerformSelfTest,"ax",%progbits
 802              		.align	2
 803              		.global	PCD_PerformSelfTest
 804              		.code	16
 805              		.thumb_func
 806              		.type	PCD_PerformSelfTest, %function
 807              	PCD_PerformSelfTest:
 808              	.LFB46:
 206:RC522.c       **** 
 207:RC522.c       **** bool PCD_PerformSelfTest(void) {
 809              		.loc 1 207 0
 810              		.cfi_startproc
 811              		@ args = 0, pretend = 0, frame = 96
 812              		@ frame_needed = 0, uses_anonymous_args = 0
 813 0000 10B5     		push	{r4, lr}
 814              		.cfi_def_cfa_offset 8
 815              		.cfi_offset 4, -8
 816              		.cfi_offset 14, -4
 817 0002 98B0     		sub	sp, sp, #96
 818              		.cfi_def_cfa_offset 104
 208:RC522.c       **** 	// This follows directly the steps outlined in 16.1.1
 209:RC522.c       **** 	// 1. Perform a soft reset.
 210:RC522.c       **** 	PCD_Reset();
 819              		.loc 1 210 0
 820 0004 FFF7FEFF 		bl	PCD_Reset
 821              	.LVL112:
 211:RC522.c       **** 	// 2. Clear the internal buffer by writing 25 bytes of 00h
 212:RC522.c       **** 	unsigned char ZEROES[25] = {0x00};
 822              		.loc 1 212 0
 823 0008 1922     		movs	r2, #25
 824 000a 0021     		movs	r1, #0
 825 000c 11A8     		add	r0, sp, #68
 826 000e FFF7FEFF 		bl	memset
 827              	.LVL113:
 213:RC522.c       **** 	PCD_WriteRegister(FIFOLevelReg, 0x80);		// flush the FIFO buffer
 828              		.loc 1 213 0
 829 0012 8021     		movs	r1, #128
 830 0014 0A20     		movs	r0, #10
 831 0016 FFF7FEFF 		bl	PCD_WriteRegister
 832              	.LVL114:
 214:RC522.c       **** 	PCD_WriteRegisters(FIFODataReg, 25, ZEROES);	// write 25 bytes of 00h to FIFO
 833              		.loc 1 214 0
 834 001a 11AA     		add	r2, sp, #68
 835 001c 1921     		movs	r1, #25
 836 001e 0920     		movs	r0, #9
 837 0020 FFF7FEFF 		bl	PCD_WriteRegisters
 838              	.LVL115:
 215:RC522.c       **** 	PCD_WriteRegister(CommandReg, PCD_Mem);		// transfer to internal buffer
 839              		.loc 1 215 0
 840 0024 0121     		movs	r1, #1
 841 0026 0120     		movs	r0, #1
 842 0028 FFF7FEFF 		bl	PCD_WriteRegister
 843              	.LVL116:
 216:RC522.c       **** 	
ARM GAS  C:\Users\ABAD_S~1\AppData\Local\Temp\cckPFQC2.s 			page 20


 217:RC522.c       **** 	// 3. Enable self-test
 218:RC522.c       **** 	PCD_WriteRegister(AutoTestReg, 0x09);
 844              		.loc 1 218 0
 845 002c 0921     		movs	r1, #9
 846 002e 3620     		movs	r0, #54
 847 0030 FFF7FEFF 		bl	PCD_WriteRegister
 848              	.LVL117:
 219:RC522.c       **** 	
 220:RC522.c       **** 	// 4. Write 00h to FIFO buffer
 221:RC522.c       **** 	PCD_WriteRegister(FIFODataReg, 0x00);
 849              		.loc 1 221 0
 850 0034 0021     		movs	r1, #0
 851 0036 0920     		movs	r0, #9
 852 0038 FFF7FEFF 		bl	PCD_WriteRegister
 853              	.LVL118:
 222:RC522.c       **** 	
 223:RC522.c       **** 	// 5. Start self-test by issuing the CalcCRC command
 224:RC522.c       **** 	PCD_WriteRegister(CommandReg, PCD_CalcCRC);
 854              		.loc 1 224 0
 855 003c 0321     		movs	r1, #3
 856 003e 0120     		movs	r0, #1
 857 0040 FFF7FEFF 		bl	PCD_WriteRegister
 858              	.LVL119:
 859              	.LBB6:
 225:RC522.c       **** 	
 226:RC522.c       **** 	// 6. Wait for self-test to complete
 227:RC522.c       **** 	unsigned char n;
 228:RC522.c       **** 	for (uint8_t i = 0; i < 0xFF; i++) {
 860              		.loc 1 228 0
 861 0044 0024     		movs	r4, #0
 862 0046 06E0     		b	.L38
 863              	.LVL120:
 864              	.L40:
 229:RC522.c       **** 		// The datasheet does not specify exact completion condition except
 230:RC522.c       **** 		// that FIFO buffer should contain 64 bytes.
 231:RC522.c       **** 		// While selftest is initiated by CalcCRC command
 232:RC522.c       **** 		// it behaves differently from normal CRC computation,
 233:RC522.c       **** 		// so one can't reliably use DivIrqReg to check for completion.
 234:RC522.c       **** 		// It is reported that some devices does not trigger CRCIRq flag
 235:RC522.c       **** 		// during selftest.
 236:RC522.c       **** 		n = PCD_ReadRegister(FIFOLevelReg);
 865              		.loc 1 236 0
 866 0048 0A20     		movs	r0, #10
 867 004a FFF7FEFF 		bl	PCD_ReadRegister
 868              	.LVL121:
 237:RC522.c       **** 		if (n >= 64) {
 869              		.loc 1 237 0
 870 004e 3F28     		cmp	r0, #63
 871 0050 03D8     		bhi	.L39
 228:RC522.c       **** 		// The datasheet does not specify exact completion condition except
 872              		.loc 1 228 0 discriminator 2
 873 0052 0134     		adds	r4, r4, #1
 874              	.LVL122:
 875 0054 E4B2     		uxtb	r4, r4
 876              	.LVL123:
 877              	.L38:
 228:RC522.c       **** 		// The datasheet does not specify exact completion condition except
ARM GAS  C:\Users\ABAD_S~1\AppData\Local\Temp\cckPFQC2.s 			page 21


 878              		.loc 1 228 0 is_stmt 0 discriminator 1
 879 0056 FF2C     		cmp	r4, #255
 880 0058 F6D1     		bne	.L40
 881              	.L39:
 882              	.LBE6:
 238:RC522.c       **** 			break;
 239:RC522.c       **** 		}
 240:RC522.c       **** 	}
 241:RC522.c       **** 	PCD_WriteRegister(CommandReg, PCD_Idle);		// Stop calculating CRC for new content in the FIFO.
 883              		.loc 1 241 0 is_stmt 1
 884 005a 0021     		movs	r1, #0
 885 005c 0120     		movs	r0, #1
 886 005e FFF7FEFF 		bl	PCD_WriteRegister
 887              	.LVL124:
 242:RC522.c       **** 	
 243:RC522.c       **** 	// 7. Read out resulting 64 bytes from the FIFO buffer.
 244:RC522.c       **** 	unsigned char result[64];
 245:RC522.c       **** 	PCD_ReadRegisters(FIFODataReg, 64, result, 0);
 888              		.loc 1 245 0
 889 0062 0023     		movs	r3, #0
 890 0064 01AA     		add	r2, sp, #4
 891 0066 4021     		movs	r1, #64
 892 0068 0920     		movs	r0, #9
 893 006a FFF7FEFF 		bl	PCD_ReadRegisters
 894              	.LVL125:
 246:RC522.c       **** 	
 247:RC522.c       **** 	// Auto self-test done
 248:RC522.c       **** 	// Reset AutoTestReg register to be 0 again. Required for normal operation.
 249:RC522.c       **** 	PCD_WriteRegister(AutoTestReg, 0x00);
 895              		.loc 1 249 0
 896 006e 0021     		movs	r1, #0
 897 0070 3620     		movs	r0, #54
 898 0072 FFF7FEFF 		bl	PCD_WriteRegister
 899              	.LVL126:
 250:RC522.c       **** 	
 251:RC522.c       **** 	// Determine firmware version (see section 9.3.4.8 in spec)
 252:RC522.c       **** 	//unsigned char version = PCD_ReadRegister(VersionReg);
 253:RC522.c       **** 	
 254:RC522.c       **** 	// Pick the appropriate reference values
 255:RC522.c       ****     /*
 256:RC522.c       **** 	const unsigned char *reference;
 257:RC522.c       **** 	switch (version) {
 258:RC522.c       **** 		case 0x88:	// Fudan Semiconductor FM17522 clone
 259:RC522.c       **** 			reference = FM17522_firmware_reference;
 260:RC522.c       **** 			break;
 261:RC522.c       **** 		case 0x90:	// Version 0.0
 262:RC522.c       **** 			reference = MFRC522_firmware_referenceV0_0;
 263:RC522.c       **** 			break;
 264:RC522.c       **** 		case 0x91:	// Version 1.0
 265:RC522.c       **** 			reference = MFRC522_firmware_referenceV1_0;
 266:RC522.c       **** 			break;
 267:RC522.c       **** 		case 0x92:	// Version 2.0
 268:RC522.c       **** 			reference = MFRC522_firmware_referenceV2_0;
 269:RC522.c       **** 			break;
 270:RC522.c       **** 		default:	// Unknown version
 271:RC522.c       ****             reference = MFRC522_firmware_referenceV2_0;
 272:RC522.c       **** 			return false; // abort test
ARM GAS  C:\Users\ABAD_S~1\AppData\Local\Temp\cckPFQC2.s 			page 22


 273:RC522.c       **** 	}
 274:RC522.c       **** 	*/
 275:RC522.c       **** 	// Test passed; all is good.
 276:RC522.c       **** 	return true;
 277:RC522.c       **** } // End PCD_PerformSelfTest()
 900              		.loc 1 277 0
 901 0076 0120     		movs	r0, #1
 902 0078 18B0     		add	sp, sp, #96
 903              		@ sp needed
 904              	.LVL127:
 905 007a 10BD     		pop	{r4, pc}
 906              		.cfi_endproc
 907              	.LFE46:
 908              		.size	PCD_PerformSelfTest, .-PCD_PerformSelfTest
 909              		.section	.text.PCD_SoftPowerDown,"ax",%progbits
 910              		.align	2
 911              		.global	PCD_SoftPowerDown
 912              		.code	16
 913              		.thumb_func
 914              		.type	PCD_SoftPowerDown, %function
 915              	PCD_SoftPowerDown:
 916              	.LFB47:
 278:RC522.c       **** 
 279:RC522.c       **** 
 280:RC522.c       **** void PCD_SoftPowerDown(void){//Note : Only soft power down mode is available throught software
 917              		.loc 1 280 0
 918              		.cfi_startproc
 919              		@ args = 0, pretend = 0, frame = 0
 920              		@ frame_needed = 0, uses_anonymous_args = 0
 921 0000 10B5     		push	{r4, lr}
 922              		.cfi_def_cfa_offset 8
 923              		.cfi_offset 4, -8
 924              		.cfi_offset 14, -4
 281:RC522.c       **** 	unsigned char val = PCD_ReadRegister(CommandReg); // Read state of the command register 
 925              		.loc 1 281 0
 926 0002 0120     		movs	r0, #1
 927 0004 FFF7FEFF 		bl	PCD_ReadRegister
 928              	.LVL128:
 282:RC522.c       **** 	val |= (1<<4);// set PowerDown bit ( bit 4 ) to 1 
 929              		.loc 1 282 0
 930 0008 1023     		movs	r3, #16
 931 000a 1843     		orrs	r0, r3
 932              	.LVL129:
 933 000c C1B2     		uxtb	r1, r0
 934              	.LVL130:
 283:RC522.c       **** 	PCD_WriteRegister(CommandReg, val);//write new value to the command register
 935              		.loc 1 283 0
 936 000e 0120     		movs	r0, #1
 937 0010 FFF7FEFF 		bl	PCD_WriteRegister
 938              	.LVL131:
 284:RC522.c       **** }
 939              		.loc 1 284 0
 940              		@ sp needed
 941 0014 10BD     		pop	{r4, pc}
 942              		.cfi_endproc
 943              	.LFE47:
 944              		.size	PCD_SoftPowerDown, .-PCD_SoftPowerDown
ARM GAS  C:\Users\ABAD_S~1\AppData\Local\Temp\cckPFQC2.s 			page 23


 945 0016 C046     		.section	.text.PCD_SoftPowerUp,"ax",%progbits
 946              		.align	2
 947              		.global	PCD_SoftPowerUp
 948              		.code	16
 949              		.thumb_func
 950              		.type	PCD_SoftPowerUp, %function
 951              	PCD_SoftPowerUp:
 952              	.LFB48:
 285:RC522.c       **** 
 286:RC522.c       **** void PCD_SoftPowerUp(void){
 953              		.loc 1 286 0
 954              		.cfi_startproc
 955              		@ args = 0, pretend = 0, frame = 0
 956              		@ frame_needed = 0, uses_anonymous_args = 0
 957 0000 10B5     		push	{r4, lr}
 958              		.cfi_def_cfa_offset 8
 959              		.cfi_offset 4, -8
 960              		.cfi_offset 14, -4
 287:RC522.c       **** 	unsigned char val = PCD_ReadRegister(CommandReg); // Read state of the command register 
 961              		.loc 1 287 0
 962 0002 0120     		movs	r0, #1
 963 0004 FFF7FEFF 		bl	PCD_ReadRegister
 964              	.LVL132:
 288:RC522.c       **** 	val &= ~(1<<4);// set PowerDown bit ( bit 4 ) to 0 
 965              		.loc 1 288 0
 966 0008 1023     		movs	r3, #16
 967 000a 9843     		bics	r0, r3
 968              	.LVL133:
 969 000c C1B2     		uxtb	r1, r0
 970              	.LVL134:
 289:RC522.c       **** 	PCD_WriteRegister(CommandReg, val);//write new value to the command register
 971              		.loc 1 289 0
 972 000e 0120     		movs	r0, #1
 973 0010 FFF7FEFF 		bl	PCD_WriteRegister
 974              	.LVL135:
 290:RC522.c       **** 	// wait until PowerDown bit is cleared (this indicates end of wake up procedure) 
 291:RC522.c       **** 	uint16_t i=0;
 975              		.loc 1 291 0
 976 0014 0024     		movs	r4, #0
 292:RC522.c       **** 	while(i<=500){ // set timeout to 500 ms 
 977              		.loc 1 292 0
 978 0016 09E0     		b	.L43
 979              	.LVL136:
 980              	.L45:
 293:RC522.c       **** 		val = PCD_ReadRegister(CommandReg);// Read state of the command register
 981              		.loc 1 293 0
 982 0018 0120     		movs	r0, #1
 983 001a FFF7FEFF 		bl	PCD_ReadRegister
 984              	.LVL137:
 294:RC522.c       **** 		if(!(val & (1<<4))){ // if powerdown bit is 0 
 985              		.loc 1 294 0
 986 001e C306     		lsls	r3, r0, #27
 987 0020 08D5     		bpl	.L42
 295:RC522.c       **** 			break;// wake up procedure is finished 
 296:RC522.c       **** 		}
 297:RC522.c       ****         i=i+1;
 988              		.loc 1 297 0
ARM GAS  C:\Users\ABAD_S~1\AppData\Local\Temp\cckPFQC2.s 			page 24


 989 0022 0134     		adds	r4, r4, #1
 990              	.LVL138:
 991 0024 A4B2     		uxth	r4, r4
 992              	.LVL139:
 298:RC522.c       ****         CyDelay(1);
 993              		.loc 1 298 0
 994 0026 0120     		movs	r0, #1
 995              	.LVL140:
 996 0028 FFF7FEFF 		bl	CyDelay
 997              	.LVL141:
 998              	.L43:
 292:RC522.c       **** 		val = PCD_ReadRegister(CommandReg);// Read state of the command register
 999              		.loc 1 292 0
 1000 002c FA23     		movs	r3, #250
 1001 002e 5B00     		lsls	r3, r3, #1
 1002 0030 9C42     		cmp	r4, r3
 1003 0032 F1D9     		bls	.L45
 1004              	.L42:
 299:RC522.c       **** 	}
 300:RC522.c       **** }
 1005              		.loc 1 300 0
 1006              		@ sp needed
 1007              	.LVL142:
 1008 0034 10BD     		pop	{r4, pc}
 1009              		.cfi_endproc
 1010              	.LFE48:
 1011              		.size	PCD_SoftPowerUp, .-PCD_SoftPowerUp
 1012 0036 C046     		.section	.text.PCD_CommunicateWithPICC,"ax",%progbits
 1013              		.align	2
 1014              		.global	PCD_CommunicateWithPICC
 1015              		.code	16
 1016              		.thumb_func
 1017              		.type	PCD_CommunicateWithPICC, %function
 1018              	PCD_CommunicateWithPICC:
 1019              	.LFB50:
 301:RC522.c       **** 
 302:RC522.c       **** unsigned char PCD_TransceiveData(unsigned char *sendData,		///< Pointer to the data to transfer to 
 303:RC522.c       ****                                 unsigned char sendLen,		///< Number of bytes to transfer to the FIF
 304:RC522.c       **** 								unsigned char *backData,		///< nullptr or pointer to buffer if data should be read back aft
 305:RC522.c       **** 								unsigned char *backLen,		///< In: Max number of unsigned chars to write to *backData. Out: 
 306:RC522.c       **** 								unsigned char *validBits,	///< In/Out: The number of valid bits in the last byte. 0 for 8 v
 307:RC522.c       **** 								unsigned char rxAlign,		///< In: Defines the bit position in backData[0] for the first bit 
 308:RC522.c       **** 								bool checkCRC		///< In: True => The last two bytes of the response is assumed to be a CRC_A
 309:RC522.c       **** 								 ) {
 310:RC522.c       **** 	unsigned char waitIRq = 0x30;		// RxIRq and IdleIRq
 311:RC522.c       **** 	return PCD_CommunicateWithPICC(PCD_Transceive, waitIRq, sendData, sendLen, backData, backLen, vali
 312:RC522.c       **** } // End PCD_TransceiveData()
 313:RC522.c       **** 
 314:RC522.c       **** unsigned char PCD_CommunicateWithPICC(	unsigned char command,		///< The command to execute. One of 
 315:RC522.c       **** 														unsigned char waitIRq,		///< The bits in the ComIrqReg register that signals successf
 316:RC522.c       **** 														unsigned char *sendData,		///< Pointer to the data to transfer to the FIFO.
 317:RC522.c       **** 														unsigned char sendLen,		///< Number of unsigned chars to transfer to the FIFO.
 318:RC522.c       **** 														unsigned char *backData,		///< nullptr or pointer to buffer if data should be read ba
 319:RC522.c       **** 														unsigned char *backLen,		///< In: Max number of bytes to write to *backData. Out: The
 320:RC522.c       **** 														unsigned char *validBits,	///< In/Out: The number of valid bits in the last byte. 0 f
 321:RC522.c       **** 														unsigned char rxAlign,		///< In: Defines the bit position in backData[0] for the firs
 322:RC522.c       **** 														bool checkCRC		///< In: True => The last two bytes of the response is assumed to be a
ARM GAS  C:\Users\ABAD_S~1\AppData\Local\Temp\cckPFQC2.s 			page 25


 323:RC522.c       **** 									 ) {
 1020              		.loc 1 323 0
 1021              		.cfi_startproc
 1022              		@ args = 20, pretend = 0, frame = 16
 1023              		@ frame_needed = 0, uses_anonymous_args = 0
 1024              	.LVL143:
 1025 0000 F0B5     		push	{r4, r5, r6, r7, lr}
 1026              		.cfi_def_cfa_offset 20
 1027              		.cfi_offset 4, -20
 1028              		.cfi_offset 5, -16
 1029              		.cfi_offset 6, -12
 1030              		.cfi_offset 7, -8
 1031              		.cfi_offset 14, -4
 1032 0002 85B0     		sub	sp, sp, #20
 1033              		.cfi_def_cfa_offset 40
 1034 0004 0400     		movs	r4, r0
 1035 0006 0092     		str	r2, [sp]
 1036 0008 0193     		str	r3, [sp, #4]
 1037 000a 0DAB     		add	r3, sp, #52
 1038              	.LVL144:
 1039 000c 1D78     		ldrb	r5, [r3]
 1040 000e 0EAB     		add	r3, sp, #56
 1041              	.LVL145:
 1042 0010 1E78     		ldrb	r6, [r3]
 324:RC522.c       **** 	// Prepare values for BitFramingReg
 325:RC522.c       **** 	unsigned char txLastBits = validBits ? *validBits : 0;
 1043              		.loc 1 325 0
 1044 0012 0C9B     		ldr	r3, [sp, #48]
 1045              	.LVL146:
 1046 0014 002B     		cmp	r3, #0
 1047 0016 01D0     		beq	.L56
 1048              		.loc 1 325 0 is_stmt 0 discriminator 1
 1049 0018 1A78     		ldrb	r2, [r3]
 1050              	.LVL147:
 1051 001a 00E0     		b	.L47
 1052              	.LVL148:
 1053              	.L56:
 1054              		.loc 1 325 0
 1055 001c 0022     		movs	r2, #0
 1056              	.LVL149:
 1057              	.L47:
 326:RC522.c       **** 	unsigned char bitFraming = (rxAlign << 4) + txLastBits;		// RxAlign = BitFramingReg[6..4]. TxLastB
 1058              		.loc 1 326 0 is_stmt 1 discriminator 4
 1059 001e 2B01     		lsls	r3, r5, #4
 1060 0020 D318     		adds	r3, r2, r3
 1061 0022 DFB2     		uxtb	r7, r3
 1062              	.LVL150:
 327:RC522.c       **** 	
 328:RC522.c       **** 	PCD_WriteRegister(CommandReg, PCD_Idle);			// Stop any active command.
 1063              		.loc 1 328 0 discriminator 4
 1064 0024 0021     		movs	r1, #0
 1065              	.LVL151:
 1066 0026 0120     		movs	r0, #1
 1067              	.LVL152:
 1068 0028 FFF7FEFF 		bl	PCD_WriteRegister
 1069              	.LVL153:
 329:RC522.c       **** 	PCD_WriteRegister(ComIrqReg, 0x7F);					// Clear all seven interrupt request bits
ARM GAS  C:\Users\ABAD_S~1\AppData\Local\Temp\cckPFQC2.s 			page 26


 1070              		.loc 1 329 0 discriminator 4
 1071 002c 7F21     		movs	r1, #127
 1072 002e 0420     		movs	r0, #4
 1073 0030 FFF7FEFF 		bl	PCD_WriteRegister
 1074              	.LVL154:
 330:RC522.c       **** 	PCD_WriteRegister(FIFOLevelReg, 0x80);				// FlushBuffer = 1, FIFO initialization
 1075              		.loc 1 330 0 discriminator 4
 1076 0034 8021     		movs	r1, #128
 1077 0036 0A20     		movs	r0, #10
 1078 0038 FFF7FEFF 		bl	PCD_WriteRegister
 1079              	.LVL155:
 331:RC522.c       **** 	PCD_WriteRegisters(FIFODataReg, sendLen, sendData);	// Write sendData to the FIFO
 1080              		.loc 1 331 0 discriminator 4
 1081 003c 009A     		ldr	r2, [sp]
 1082 003e 0199     		ldr	r1, [sp, #4]
 1083 0040 0920     		movs	r0, #9
 1084 0042 FFF7FEFF 		bl	PCD_WriteRegisters
 1085              	.LVL156:
 332:RC522.c       **** 	PCD_WriteRegister(BitFramingReg, bitFraming);		// Bit adjustments
 1086              		.loc 1 332 0 discriminator 4
 1087 0046 3900     		movs	r1, r7
 1088 0048 0D20     		movs	r0, #13
 1089 004a FFF7FEFF 		bl	PCD_WriteRegister
 1090              	.LVL157:
 333:RC522.c       **** 	PCD_WriteRegister(CommandReg, command);				// Execute the command
 1091              		.loc 1 333 0 discriminator 4
 1092 004e 2100     		movs	r1, r4
 1093 0050 0120     		movs	r0, #1
 1094 0052 FFF7FEFF 		bl	PCD_WriteRegister
 1095              	.LVL158:
 334:RC522.c       **** 	if (command == PCD_Transceive) {
 1096              		.loc 1 334 0 discriminator 4
 1097 0056 0C2C     		cmp	r4, #12
 1098 0058 03D1     		bne	.L48
 335:RC522.c       **** 		PCD_SetRegisterBitMask(BitFramingReg, 0x80);	// StartSend=1, transmission of data starts
 1099              		.loc 1 335 0
 1100 005a 8021     		movs	r1, #128
 1101 005c 0D20     		movs	r0, #13
 1102 005e FFF7FEFF 		bl	PCD_SetRegisterBitMask
 1103              	.LVL159:
 1104              	.L48:
 325:RC522.c       **** 	unsigned char bitFraming = (rxAlign << 4) + txLastBits;		// RxAlign = BitFramingReg[6..4]. TxLastB
 1105              		.loc 1 325 0 discriminator 1
 1106 0062 FA24     		movs	r4, #250
 1107 0064 E400     		lsls	r4, r4, #3
 1108 0066 08E0     		b	.L49
 1109              	.LVL160:
 1110              	.L52:
 336:RC522.c       **** 	}
 337:RC522.c       **** 	
 338:RC522.c       **** 	// Wait for the command to complete.
 339:RC522.c       **** 	// In PCD_Init() we set the TAuto flag in TModeReg. This means the timer automatically starts when
 340:RC522.c       **** 	// Each iteration of the do-while-loop takes 17.86?s.
 341:RC522.c       **** 	// TODO check/modify for other architectures than Arduino Uno 16bit
 342:RC522.c       **** 	uint16_t i;
 343:RC522.c       ****     unsigned char n;
 344:RC522.c       **** 	for (i = 2000; i > 0; i--) {
ARM GAS  C:\Users\ABAD_S~1\AppData\Local\Temp\cckPFQC2.s 			page 27


 345:RC522.c       **** 		n = PCD_ReadRegister(ComIrqReg);	// ComIrqReg[7..0] bits are: Set1 TxIRq RxIRq IdleIRq HiAlertIRq
 1111              		.loc 1 345 0
 1112 0068 0420     		movs	r0, #4
 1113 006a FFF7FEFF 		bl	PCD_ReadRegister
 1114              	.LVL161:
 346:RC522.c       **** 		if (n == 0x64) {					// One of the interrupts that signal success has been set.
 1115              		.loc 1 346 0
 1116 006e 6428     		cmp	r0, #100
 1117 0070 05D0     		beq	.L50
 347:RC522.c       ****             break;
 348:RC522.c       **** 		}
 349:RC522.c       **** 		if (n & 0x01) {						// Timer interrupt - nothing received in 25ms
 1118              		.loc 1 349 0
 1119 0072 C307     		lsls	r3, r0, #31
 1120 0074 6AD4     		bmi	.L57
 344:RC522.c       **** 		n = PCD_ReadRegister(ComIrqReg);	// ComIrqReg[7..0] bits are: Set1 TxIRq RxIRq IdleIRq HiAlertIRq
 1121              		.loc 1 344 0 discriminator 2
 1122 0076 013C     		subs	r4, r4, #1
 1123              	.LVL162:
 1124 0078 A4B2     		uxth	r4, r4
 1125              	.LVL163:
 1126              	.L49:
 344:RC522.c       **** 		n = PCD_ReadRegister(ComIrqReg);	// ComIrqReg[7..0] bits are: Set1 TxIRq RxIRq IdleIRq HiAlertIRq
 1127              		.loc 1 344 0 is_stmt 0 discriminator 1
 1128 007a 002C     		cmp	r4, #0
 1129 007c F4D1     		bne	.L52
 1130              	.L50:
 350:RC522.c       **** 			return STATUS_TIMEOUT;
 351:RC522.c       **** 		}
 352:RC522.c       **** 	}
 353:RC522.c       **** 	// 35.7ms and nothing happend. Communication with the MFRC522 might be down.
 354:RC522.c       **** 	if (i == 0) {
 1131              		.loc 1 354 0 is_stmt 1
 1132 007e 002C     		cmp	r4, #0
 1133 0080 66D0     		beq	.L58
 355:RC522.c       **** 		return STATUS_TIMEOUT;
 356:RC522.c       **** 	}
 357:RC522.c       **** 	
 358:RC522.c       **** 	// Stop now if any errors except collisions were detected.
 359:RC522.c       **** 	unsigned char errorRegValue = PCD_ReadRegister(ErrorReg); // ErrorReg[7..0] bits are: WrErr TempEr
 1134              		.loc 1 359 0
 1135 0082 0620     		movs	r0, #6
 1136 0084 FFF7FEFF 		bl	PCD_ReadRegister
 1137              	.LVL164:
 1138 0088 0400     		movs	r4, r0
 1139              	.LVL165:
 360:RC522.c       **** 	if (errorRegValue & 0x13) {	 // BufferOvfl ParityErr ProtocolErr
 1140              		.loc 1 360 0
 1141 008a 1323     		movs	r3, #19
 1142 008c 0342     		tst	r3, r0
 1143 008e 61D1     		bne	.L59
 1144              	.LVL166:
 361:RC522.c       **** 		return STATUS_ERROR;
 362:RC522.c       **** 	}
 363:RC522.c       ****   
 364:RC522.c       **** 	unsigned char _validBits = 0;
 365:RC522.c       **** 	
ARM GAS  C:\Users\ABAD_S~1\AppData\Local\Temp\cckPFQC2.s 			page 28


 366:RC522.c       **** 	// If the caller wants data back, get it from the MFRC522.
 367:RC522.c       **** 	if (backData && backLen) {
 1145              		.loc 1 367 0
 1146 0090 0A9B     		ldr	r3, [sp, #40]
 1147 0092 002B     		cmp	r3, #0
 1148 0094 1BD0     		beq	.L60
 1149              		.loc 1 367 0 is_stmt 0 discriminator 1
 1150 0096 0B9B     		ldr	r3, [sp, #44]
 1151 0098 002B     		cmp	r3, #0
 1152 009a 1AD0     		beq	.L61
 1153              	.LBB7:
 368:RC522.c       **** 		unsigned char n = PCD_ReadRegister(FIFOLevelReg);	// Number of bytes in the FIFO
 1154              		.loc 1 368 0 is_stmt 1
 1155 009c 0A20     		movs	r0, #10
 1156              	.LVL167:
 1157 009e FFF7FEFF 		bl	PCD_ReadRegister
 1158              	.LVL168:
 369:RC522.c       **** 		if (n > *backLen) {
 1159              		.loc 1 369 0
 1160 00a2 0B9B     		ldr	r3, [sp, #44]
 1161 00a4 1B78     		ldrb	r3, [r3]
 1162 00a6 9842     		cmp	r0, r3
 1163 00a8 56D8     		bhi	.L62
 370:RC522.c       **** 			return STATUS_NO_ROOM;
 371:RC522.c       **** 		}
 372:RC522.c       **** 		*backLen = n;											// Number of bytes returned
 1164              		.loc 1 372 0
 1165 00aa 0B9B     		ldr	r3, [sp, #44]
 1166 00ac 1870     		strb	r0, [r3]
 373:RC522.c       **** 		PCD_ReadRegisters(FIFODataReg, n, backData, rxAlign);	// Get received data from FIFO
 1167              		.loc 1 373 0
 1168 00ae 2B00     		movs	r3, r5
 1169 00b0 0A9A     		ldr	r2, [sp, #40]
 1170 00b2 0100     		movs	r1, r0
 1171 00b4 0920     		movs	r0, #9
 1172              	.LVL169:
 1173 00b6 FFF7FEFF 		bl	PCD_ReadRegisters
 1174              	.LVL170:
 374:RC522.c       **** 		_validBits = PCD_ReadRegister(ControlReg) & 0x07;		// RxLastBits[2:0] indicates the number of val
 1175              		.loc 1 374 0
 1176 00ba 0C20     		movs	r0, #12
 1177 00bc FFF7FEFF 		bl	PCD_ReadRegister
 1178              	.LVL171:
 1179 00c0 0723     		movs	r3, #7
 1180 00c2 1840     		ands	r0, r3
 1181              	.LVL172:
 375:RC522.c       **** 		if (validBits) {
 1182              		.loc 1 375 0
 1183 00c4 0C9B     		ldr	r3, [sp, #48]
 1184 00c6 002B     		cmp	r3, #0
 1185 00c8 04D0     		beq	.L53
 376:RC522.c       **** 			*validBits = _validBits;
 1186              		.loc 1 376 0
 1187 00ca 1870     		strb	r0, [r3]
 1188 00cc 02E0     		b	.L53
 1189              	.LVL173:
 1190              	.L60:
ARM GAS  C:\Users\ABAD_S~1\AppData\Local\Temp\cckPFQC2.s 			page 29


 1191              	.LBE7:
 364:RC522.c       **** 	
 1192              		.loc 1 364 0
 1193 00ce 0020     		movs	r0, #0
 1194              	.LVL174:
 1195 00d0 00E0     		b	.L53
 1196              	.LVL175:
 1197              	.L61:
 1198 00d2 0020     		movs	r0, #0
 1199              	.LVL176:
 1200              	.L53:
 1201 00d4 0823     		movs	r3, #8
 1202 00d6 1C40     		ands	r4, r3
 377:RC522.c       **** 		}
 378:RC522.c       **** 	}
 379:RC522.c       **** 	
 380:RC522.c       **** 	// Tell about collisions
 381:RC522.c       **** 	if (errorRegValue & 0x08) {		// CollErr
 1203              		.loc 1 381 0
 1204 00d8 40D1     		bne	.L63
 382:RC522.c       **** 		return STATUS_COLLISION;
 383:RC522.c       **** 	}
 384:RC522.c       **** 	
 385:RC522.c       **** 	// Perform CRC_A validation if requested.
 386:RC522.c       **** 	if (backData && backLen && checkCRC) {
 1205              		.loc 1 386 0
 1206 00da 0A9B     		ldr	r3, [sp, #40]
 1207 00dc 002B     		cmp	r3, #0
 1208 00de 3ED0     		beq	.L51
 1209              		.loc 1 386 0 is_stmt 0 discriminator 1
 1210 00e0 0B9B     		ldr	r3, [sp, #44]
 1211 00e2 002B     		cmp	r3, #0
 1212 00e4 3BD0     		beq	.L51
 1213              		.loc 1 386 0 discriminator 2
 1214 00e6 002E     		cmp	r6, #0
 1215 00e8 39D0     		beq	.L51
 1216              	.LBB8:
 387:RC522.c       **** 		// In this case a MIFARE Classic NAK is not OK.
 388:RC522.c       **** 		if (*backLen == 1 && _validBits == 4) {
 1217              		.loc 1 388 0 is_stmt 1
 1218 00ea 1B78     		ldrb	r3, [r3]
 1219 00ec 012B     		cmp	r3, #1
 1220 00ee 01D1     		bne	.L54
 1221              		.loc 1 388 0 is_stmt 0 discriminator 1
 1222 00f0 0428     		cmp	r0, #4
 1223 00f2 1FD0     		beq	.L64
 1224              	.L54:
 389:RC522.c       **** 			return STATUS_MIFARE_NACK;
 390:RC522.c       **** 		}
 391:RC522.c       **** 		// We need at least the CRC_A value and all 8 bits of the last byte must be received.
 392:RC522.c       **** 		if (*backLen < 2 || _validBits != 0) {
 1225              		.loc 1 392 0 is_stmt 1
 1226 00f4 012B     		cmp	r3, #1
 1227 00f6 1FD9     		bls	.L65
 1228              		.loc 1 392 0 is_stmt 0 discriminator 1
 1229 00f8 0028     		cmp	r0, #0
 1230 00fa 1FD1     		bne	.L66
ARM GAS  C:\Users\ABAD_S~1\AppData\Local\Temp\cckPFQC2.s 			page 30


 393:RC522.c       **** 			return STATUS_CRC_WRONG;
 394:RC522.c       **** 		}
 395:RC522.c       **** 		// Verify CRC_A - do our own calculation and store the control in controlBuffer.
 396:RC522.c       **** 		unsigned char controlBuffer[2];
 397:RC522.c       **** 		unsigned char status = PCD_CalculateCRC(&backData[0], *backLen - 2, &controlBuffer[0]);
 1231              		.loc 1 397 0 is_stmt 1
 1232 00fc 023B     		subs	r3, r3, #2
 1233 00fe D9B2     		uxtb	r1, r3
 1234 0100 03AA     		add	r2, sp, #12
 1235 0102 0A98     		ldr	r0, [sp, #40]
 1236              	.LVL177:
 1237 0104 FFF7FEFF 		bl	PCD_CalculateCRC
 1238              	.LVL178:
 398:RC522.c       **** 		if (status != STATUS_OK) {
 1239              		.loc 1 398 0
 1240 0108 0028     		cmp	r0, #0
 1241 010a 19D1     		bne	.L67
 399:RC522.c       **** 			return status;
 400:RC522.c       **** 		}
 401:RC522.c       **** 		if ((backData[*backLen - 2] != controlBuffer[0]) || (backData[*backLen - 1] != controlBuffer[1]))
 1242              		.loc 1 401 0
 1243 010c 0B9B     		ldr	r3, [sp, #44]
 1244 010e 1B78     		ldrb	r3, [r3]
 1245 0110 0A9A     		ldr	r2, [sp, #40]
 1246 0112 D218     		adds	r2, r2, r3
 1247 0114 023A     		subs	r2, r2, #2
 1248 0116 1178     		ldrb	r1, [r2]
 1249 0118 03AA     		add	r2, sp, #12
 1250 011a 1278     		ldrb	r2, [r2]
 1251 011c 9142     		cmp	r1, r2
 1252 011e 11D1     		bne	.L68
 1253              		.loc 1 401 0 is_stmt 0 discriminator 1
 1254 0120 0A9A     		ldr	r2, [sp, #40]
 1255 0122 9446     		mov	ip, r2
 1256 0124 6344     		add	r3, r3, ip
 1257 0126 013B     		subs	r3, r3, #1
 1258 0128 1A78     		ldrb	r2, [r3]
 1259 012a 03AB     		add	r3, sp, #12
 1260 012c 5B78     		ldrb	r3, [r3, #1]
 1261 012e 9A42     		cmp	r2, r3
 1262 0130 0AD1     		bne	.L69
 1263 0132 14E0     		b	.L51
 1264              	.LVL179:
 1265              	.L64:
 389:RC522.c       **** 		}
 1266              		.loc 1 389 0 is_stmt 1
 1267 0134 FF24     		movs	r4, #255
 1268 0136 12E0     		b	.L51
 1269              	.L65:
 393:RC522.c       **** 		}
 1270              		.loc 1 393 0
 1271 0138 0724     		movs	r4, #7
 1272 013a 10E0     		b	.L51
 1273              	.L66:
 1274 013c 0724     		movs	r4, #7
 1275 013e 0EE0     		b	.L51
 1276              	.LVL180:
ARM GAS  C:\Users\ABAD_S~1\AppData\Local\Temp\cckPFQC2.s 			page 31


 1277              	.L67:
 399:RC522.c       **** 			return status;
 1278              		.loc 1 399 0
 1279 0140 0400     		movs	r4, r0
 1280 0142 0CE0     		b	.L51
 1281              	.L68:
 402:RC522.c       **** 			return STATUS_CRC_WRONG;
 1282              		.loc 1 402 0
 1283 0144 0724     		movs	r4, #7
 1284 0146 0AE0     		b	.L51
 1285              	.L69:
 1286 0148 0724     		movs	r4, #7
 1287 014a 08E0     		b	.L51
 1288              	.LVL181:
 1289              	.L57:
 1290              	.LBE8:
 350:RC522.c       **** 		}
 1291              		.loc 1 350 0
 1292 014c 0324     		movs	r4, #3
 1293              	.LVL182:
 1294 014e 06E0     		b	.L51
 1295              	.LVL183:
 1296              	.L58:
 355:RC522.c       **** 	}
 1297              		.loc 1 355 0
 1298 0150 0324     		movs	r4, #3
 1299              	.LVL184:
 1300 0152 04E0     		b	.L51
 1301              	.LVL185:
 1302              	.L59:
 361:RC522.c       **** 	}
 1303              		.loc 1 361 0
 1304 0154 0124     		movs	r4, #1
 1305 0156 02E0     		b	.L51
 1306              	.LVL186:
 1307              	.L62:
 1308              	.LBB9:
 370:RC522.c       **** 		}
 1309              		.loc 1 370 0
 1310 0158 0424     		movs	r4, #4
 1311 015a 00E0     		b	.L51
 1312              	.LVL187:
 1313              	.L63:
 1314              	.LBE9:
 382:RC522.c       **** 	}
 1315              		.loc 1 382 0
 1316 015c 0224     		movs	r4, #2
 1317              	.LVL188:
 1318              	.L51:
 403:RC522.c       **** 		}
 404:RC522.c       **** 	}
 405:RC522.c       **** 	
 406:RC522.c       **** 	return STATUS_OK;
 407:RC522.c       **** } // End PCD_CommunicateWithPICC()
 1319              		.loc 1 407 0
 1320 015e 2000     		movs	r0, r4
 1321 0160 05B0     		add	sp, sp, #20
ARM GAS  C:\Users\ABAD_S~1\AppData\Local\Temp\cckPFQC2.s 			page 32


 1322              	.LVL189:
 1323              		@ sp needed
 1324              	.LVL190:
 1325 0162 F0BD     		pop	{r4, r5, r6, r7, pc}
 1326              		.cfi_endproc
 1327              	.LFE50:
 1328              		.size	PCD_CommunicateWithPICC, .-PCD_CommunicateWithPICC
 1329              		.section	.text.PCD_TransceiveData,"ax",%progbits
 1330              		.align	2
 1331              		.global	PCD_TransceiveData
 1332              		.code	16
 1333              		.thumb_func
 1334              		.type	PCD_TransceiveData, %function
 1335              	PCD_TransceiveData:
 1336              	.LFB49:
 309:RC522.c       **** 	unsigned char waitIRq = 0x30;		// RxIRq and IdleIRq
 1337              		.loc 1 309 0
 1338              		.cfi_startproc
 1339              		@ args = 12, pretend = 0, frame = 0
 1340              		@ frame_needed = 0, uses_anonymous_args = 0
 1341              	.LVL191:
 1342 0000 70B5     		push	{r4, r5, r6, lr}
 1343              		.cfi_def_cfa_offset 16
 1344              		.cfi_offset 4, -16
 1345              		.cfi_offset 5, -12
 1346              		.cfi_offset 6, -8
 1347              		.cfi_offset 14, -4
 1348 0002 86B0     		sub	sp, sp, #24
 1349              		.cfi_def_cfa_offset 40
 1350 0004 0AAC     		add	r4, sp, #40
 1351              	.LVL192:
 1352 0006 20CC     		ldmia	r4!, {r5}
 1353              	.LVL193:
 1354 0008 2478     		ldrb	r4, [r4]
 1355              	.LVL194:
 1356 000a 0CAE     		add	r6, sp, #48
 1357              	.LVL195:
 1358 000c 3678     		ldrb	r6, [r6]
 1359              	.LVL196:
 311:RC522.c       **** } // End PCD_TransceiveData()
 1360              		.loc 1 311 0
 1361 000e 0496     		str	r6, [sp, #16]
 1362 0010 0394     		str	r4, [sp, #12]
 1363 0012 0295     		str	r5, [sp, #8]
 1364 0014 0193     		str	r3, [sp, #4]
 1365 0016 0092     		str	r2, [sp]
 1366 0018 0B00     		movs	r3, r1
 1367              	.LVL197:
 1368 001a 0200     		movs	r2, r0
 1369              	.LVL198:
 1370 001c 3021     		movs	r1, #48
 1371              	.LVL199:
 1372 001e 0C20     		movs	r0, #12
 1373              	.LVL200:
 1374 0020 FFF7FEFF 		bl	PCD_CommunicateWithPICC
 1375              	.LVL201:
 312:RC522.c       **** 
ARM GAS  C:\Users\ABAD_S~1\AppData\Local\Temp\cckPFQC2.s 			page 33


 1376              		.loc 1 312 0
 1377 0024 06B0     		add	sp, sp, #24
 1378              		@ sp needed
 1379 0026 70BD     		pop	{r4, r5, r6, pc}
 1380              		.cfi_endproc
 1381              	.LFE49:
 1382              		.size	PCD_TransceiveData, .-PCD_TransceiveData
 1383              		.section	.text.PICC_REQA_or_WUPA,"ax",%progbits
 1384              		.align	2
 1385              		.global	PICC_REQA_or_WUPA
 1386              		.code	16
 1387              		.thumb_func
 1388              		.type	PICC_REQA_or_WUPA, %function
 1389              	PICC_REQA_or_WUPA:
 1390              	.LFB53:
 408:RC522.c       **** 
 409:RC522.c       **** 
 410:RC522.c       **** unsigned char PICC_RequestA(	unsigned char *bufferATQA,	///< The buffer to store the ATQA (Answer t
 411:RC522.c       **** 								unsigned char *bufferSize	///< Buffer size, at least two bytes. Also number of bytes return
 412:RC522.c       **** 										) {
 413:RC522.c       **** 	return PICC_REQA_or_WUPA(PICC_CMD_REQA, bufferATQA, bufferSize);
 414:RC522.c       **** } // End PICC_RequestA()
 415:RC522.c       **** 
 416:RC522.c       **** unsigned char PICC_WakeupA(	unsigned char *bufferATQA,	///< The buffer to store the ATQA (Answer to
 417:RC522.c       **** 							unsigned char *bufferSize	///< Buffer size, at least two bytes. Also number of bytes returne
 418:RC522.c       **** 										) {
 419:RC522.c       **** 	return PICC_REQA_or_WUPA(PICC_CMD_WUPA, bufferATQA, bufferSize);
 420:RC522.c       **** } // End PICC_WakeupA()
 421:RC522.c       **** 
 422:RC522.c       **** unsigned char PICC_REQA_or_WUPA(	unsigned char command, 		///< The command to send - PICC_CMD_REQA 
 423:RC522.c       **** 									unsigned char *bufferATQA,	///< The buffer to store the ATQA (Answer to request) in
 424:RC522.c       **** 									unsigned char *bufferSize	///< Buffer size, at least two bytes. Also number of bytes retur
 425:RC522.c       **** 											) {
 1391              		.loc 1 425 0
 1392              		.cfi_startproc
 1393              		@ args = 0, pretend = 0, frame = 16
 1394              		@ frame_needed = 0, uses_anonymous_args = 0
 1395              	.LVL202:
 1396 0000 30B5     		push	{r4, r5, lr}
 1397              		.cfi_def_cfa_offset 12
 1398              		.cfi_offset 4, -12
 1399              		.cfi_offset 5, -8
 1400              		.cfi_offset 14, -4
 1401 0002 89B0     		sub	sp, sp, #36
 1402              		.cfi_def_cfa_offset 48
 1403 0004 0C00     		movs	r4, r1
 1404 0006 1500     		movs	r5, r2
 1405 0008 1723     		movs	r3, #23
 1406 000a 6B44     		add	r3, r3, sp
 1407 000c 1870     		strb	r0, [r3]
 426:RC522.c       **** 	unsigned char validBits;
 427:RC522.c       **** 	unsigned char status;
 428:RC522.c       **** 	
 429:RC522.c       **** 	if (bufferATQA == NULL || (*bufferSize < 2)) {	// The ATQA response is 2 bytes unsigned long.
 1408              		.loc 1 429 0
 1409 000e 0029     		cmp	r1, #0
 1410 0010 21D0     		beq	.L73
ARM GAS  C:\Users\ABAD_S~1\AppData\Local\Temp\cckPFQC2.s 			page 34


 1411              		.loc 1 429 0 is_stmt 0 discriminator 1
 1412 0012 1378     		ldrb	r3, [r2]
 1413 0014 012B     		cmp	r3, #1
 1414 0016 20D9     		bls	.L74
 430:RC522.c       **** 		return STATUS_NO_ROOM;
 431:RC522.c       **** 	}
 432:RC522.c       **** 	PCD_ClearRegisterBitMask(CollReg, 0x80);		// ValuesAfterColl=1 => Bits received after collision ar
 1415              		.loc 1 432 0 is_stmt 1
 1416 0018 8021     		movs	r1, #128
 1417              	.LVL203:
 1418 001a 0E20     		movs	r0, #14
 1419              	.LVL204:
 1420 001c FFF7FEFF 		bl	PCD_ClearRegisterBitMask
 1421              	.LVL205:
 433:RC522.c       **** 	validBits = 7;									// For REQA and WUPA we need the short frame format - transmit only 7 bits 
 1422              		.loc 1 433 0
 1423 0020 1F23     		movs	r3, #31
 1424 0022 6B44     		add	r3, r3, sp
 1425 0024 0722     		movs	r2, #7
 1426 0026 1A70     		strb	r2, [r3]
 434:RC522.c       **** 	status = PCD_TransceiveData(&command, 1, bufferATQA, bufferSize, &validBits, 0x0 ,false);
 1427              		.loc 1 434 0
 1428 0028 0022     		movs	r2, #0
 1429 002a 0292     		str	r2, [sp, #8]
 1430 002c 0192     		str	r2, [sp, #4]
 1431 002e 0093     		str	r3, [sp]
 1432 0030 2B00     		movs	r3, r5
 1433 0032 2200     		movs	r2, r4
 1434 0034 0121     		movs	r1, #1
 1435 0036 1720     		movs	r0, #23
 1436              	.LVL206:
 1437 0038 6844     		add	r0, r0, sp
 1438              	.LVL207:
 1439 003a FFF7FEFF 		bl	PCD_TransceiveData
 1440              	.LVL208:
 435:RC522.c       **** 	if (status != STATUS_OK) {
 1441              		.loc 1 435 0
 1442 003e 0028     		cmp	r0, #0
 1443 0040 0ED1     		bne	.L72
 436:RC522.c       **** 		return status;
 437:RC522.c       **** 	}
 438:RC522.c       **** 	if (*bufferSize != 2 || validBits != 0) {		// ATQA must be exactly 16 bits.
 1444              		.loc 1 438 0
 1445 0042 2B78     		ldrb	r3, [r5]
 1446 0044 022B     		cmp	r3, #2
 1447 0046 0AD1     		bne	.L76
 1448              		.loc 1 438 0 is_stmt 0 discriminator 1
 1449 0048 1D33     		adds	r3, r3, #29
 1450 004a 6B44     		add	r3, r3, sp
 1451 004c 1878     		ldrb	r0, [r3]
 1452              	.LVL209:
 1453 004e 0028     		cmp	r0, #0
 1454 0050 06D0     		beq	.L72
 439:RC522.c       **** 		return STATUS_ERROR;
 1455              		.loc 1 439 0 is_stmt 1
 1456 0052 0120     		movs	r0, #1
 1457 0054 04E0     		b	.L72
ARM GAS  C:\Users\ABAD_S~1\AppData\Local\Temp\cckPFQC2.s 			page 35


 1458              	.LVL210:
 1459              	.L73:
 430:RC522.c       **** 	}
 1460              		.loc 1 430 0
 1461 0056 0420     		movs	r0, #4
 1462              	.LVL211:
 1463 0058 02E0     		b	.L72
 1464              	.LVL212:
 1465              	.L74:
 1466 005a 0420     		movs	r0, #4
 1467              	.LVL213:
 1468 005c 00E0     		b	.L72
 1469              	.LVL214:
 1470              	.L76:
 1471              		.loc 1 439 0
 1472 005e 0120     		movs	r0, #1
 1473              	.LVL215:
 1474              	.L72:
 440:RC522.c       **** 	}
 441:RC522.c       **** 	return STATUS_OK;
 442:RC522.c       **** } // End PICC_REQA_or_WUPA()
 1475              		.loc 1 442 0
 1476 0060 09B0     		add	sp, sp, #36
 1477              		@ sp needed
 1478              	.LVL216:
 1479              	.LVL217:
 1480 0062 30BD     		pop	{r4, r5, pc}
 1481              		.cfi_endproc
 1482              	.LFE53:
 1483              		.size	PICC_REQA_or_WUPA, .-PICC_REQA_or_WUPA
 1484              		.section	.text.PICC_RequestA,"ax",%progbits
 1485              		.align	2
 1486              		.global	PICC_RequestA
 1487              		.code	16
 1488              		.thumb_func
 1489              		.type	PICC_RequestA, %function
 1490              	PICC_RequestA:
 1491              	.LFB51:
 412:RC522.c       **** 	return PICC_REQA_or_WUPA(PICC_CMD_REQA, bufferATQA, bufferSize);
 1492              		.loc 1 412 0
 1493              		.cfi_startproc
 1494              		@ args = 0, pretend = 0, frame = 0
 1495              		@ frame_needed = 0, uses_anonymous_args = 0
 1496              	.LVL218:
 1497 0000 10B5     		push	{r4, lr}
 1498              		.cfi_def_cfa_offset 8
 1499              		.cfi_offset 4, -8
 1500              		.cfi_offset 14, -4
 1501 0002 0A00     		movs	r2, r1
 413:RC522.c       **** } // End PICC_RequestA()
 1502              		.loc 1 413 0
 1503 0004 0100     		movs	r1, r0
 1504              	.LVL219:
 1505 0006 2620     		movs	r0, #38
 1506              	.LVL220:
 1507 0008 FFF7FEFF 		bl	PICC_REQA_or_WUPA
 1508              	.LVL221:
ARM GAS  C:\Users\ABAD_S~1\AppData\Local\Temp\cckPFQC2.s 			page 36


 414:RC522.c       **** 
 1509              		.loc 1 414 0
 1510              		@ sp needed
 1511 000c 10BD     		pop	{r4, pc}
 1512              		.cfi_endproc
 1513              	.LFE51:
 1514              		.size	PICC_RequestA, .-PICC_RequestA
 1515 000e C046     		.section	.text.PICC_WakeupA,"ax",%progbits
 1516              		.align	2
 1517              		.global	PICC_WakeupA
 1518              		.code	16
 1519              		.thumb_func
 1520              		.type	PICC_WakeupA, %function
 1521              	PICC_WakeupA:
 1522              	.LFB52:
 418:RC522.c       **** 	return PICC_REQA_or_WUPA(PICC_CMD_WUPA, bufferATQA, bufferSize);
 1523              		.loc 1 418 0
 1524              		.cfi_startproc
 1525              		@ args = 0, pretend = 0, frame = 0
 1526              		@ frame_needed = 0, uses_anonymous_args = 0
 1527              	.LVL222:
 1528 0000 10B5     		push	{r4, lr}
 1529              		.cfi_def_cfa_offset 8
 1530              		.cfi_offset 4, -8
 1531              		.cfi_offset 14, -4
 1532 0002 0A00     		movs	r2, r1
 419:RC522.c       **** } // End PICC_WakeupA()
 1533              		.loc 1 419 0
 1534 0004 0100     		movs	r1, r0
 1535              	.LVL223:
 1536 0006 5220     		movs	r0, #82
 1537              	.LVL224:
 1538 0008 FFF7FEFF 		bl	PICC_REQA_or_WUPA
 1539              	.LVL225:
 420:RC522.c       **** 
 1540              		.loc 1 420 0
 1541              		@ sp needed
 1542 000c 10BD     		pop	{r4, pc}
 1543              		.cfi_endproc
 1544              	.LFE52:
 1545              		.size	PICC_WakeupA, .-PICC_WakeupA
 1546 000e C046     		.section	.text.PICC_Select,"ax",%progbits
 1547              		.align	2
 1548              		.global	PICC_Select
 1549              		.code	16
 1550              		.thumb_func
 1551              		.type	PICC_Select, %function
 1552              	PICC_Select:
 1553              	.LFB54:
 443:RC522.c       **** 
 444:RC522.c       **** 
 445:RC522.c       **** 
 446:RC522.c       **** unsigned char PICC_Select(	Uid *uid,			///< Pointer to Uid struct. Normally output, but can also be
 447:RC522.c       **** 											unsigned char validBits		///< The number of known UID bits supplied in *uid. Normally 0.
 448:RC522.c       **** 										 ) {
 1554              		.loc 1 448 0
 1555              		.cfi_startproc
ARM GAS  C:\Users\ABAD_S~1\AppData\Local\Temp\cckPFQC2.s 			page 37


 1556              		@ args = 0, pretend = 0, frame = 32
 1557              		@ frame_needed = 0, uses_anonymous_args = 0
 1558              	.LVL226:
 1559 0000 F0B5     		push	{r4, r5, r6, r7, lr}
 1560              		.cfi_def_cfa_offset 20
 1561              		.cfi_offset 4, -20
 1562              		.cfi_offset 5, -16
 1563              		.cfi_offset 6, -12
 1564              		.cfi_offset 7, -8
 1565              		.cfi_offset 14, -4
 1566 0002 5F46     		mov	r7, fp
 1567 0004 5646     		mov	r6, r10
 1568 0006 4D46     		mov	r5, r9
 1569 0008 4446     		mov	r4, r8
 1570 000a F0B4     		push	{r4, r5, r6, r7}
 1571              		.cfi_def_cfa_offset 36
 1572              		.cfi_offset 8, -36
 1573              		.cfi_offset 9, -32
 1574              		.cfi_offset 10, -28
 1575              		.cfi_offset 11, -24
 1576 000c 8DB0     		sub	sp, sp, #52
 1577              		.cfi_def_cfa_offset 88
 1578 000e 8246     		mov	r10, r0
 1579 0010 0591     		str	r1, [sp, #20]
 1580              	.LVL227:
 449:RC522.c       **** 	bool uidComplete;
 450:RC522.c       **** 	bool selectDone;
 451:RC522.c       **** 	bool useCascadeTag;
 452:RC522.c       **** 	unsigned char cascadeLevel = 1;
 453:RC522.c       **** 	unsigned char result;
 454:RC522.c       **** 	unsigned char count;
 455:RC522.c       **** 	unsigned char checkBit;
 456:RC522.c       **** 	unsigned char index;
 457:RC522.c       ****     unsigned char uidIndex;					// The first index in uid->uidByte[] that is used in the current Ca
 458:RC522.c       **** 	int8_t currentLevelKnownBits;		// The number of known UID bits in the current Cascade Level.
 459:RC522.c       **** 	unsigned char buffer[9];					// The SELECT/ANTICOLLISION commands uses a 7 byte standard frame + 2
 460:RC522.c       **** 	unsigned char bufferUsed;				// The number of bytes used in the buffer, ie the number of bytes to 
 461:RC522.c       **** 	unsigned char rxAlign;					// Used in BitFramingReg. Defines the bit position for the first bit re
 462:RC522.c       **** 	unsigned char txLastBits;				// Used in BitFramingReg. The number of valid bits in the last transm
 463:RC522.c       **** 	unsigned char *responseBuffer;
 464:RC522.c       **** 	unsigned char responseLength;
 465:RC522.c       **** 	
 466:RC522.c       **** 	// Description of buffer structure:
 467:RC522.c       **** 	//		Byte 0: SEL 				Indicates the Cascade Level: PICC_CMD_SEL_CL1, PICC_CMD_SEL_CL2 or PICC_CMD_SE
 468:RC522.c       **** 	//		Byte 1: NVB					Number of Valid Bits (in complete command, not just the UID): High nibble: com
 469:RC522.c       **** 	//		Byte 2: UID-data or CT		See explanation below. CT means Cascade Tag.
 470:RC522.c       **** 	//		Byte 3: UID-data
 471:RC522.c       **** 	//		Byte 4: UID-data
 472:RC522.c       **** 	//		Byte 5: UID-data
 473:RC522.c       **** 	//		Byte 6: BCC					Block Check Character - XOR of bytes 2-5
 474:RC522.c       **** 	//		Byte 7: CRC_A
 475:RC522.c       **** 	//		Byte 8: CRC_A
 476:RC522.c       **** 	// The BCC and CRC_A are only transmitted if we know all the UID bits of the current Cascade Level
 477:RC522.c       **** 	//
 478:RC522.c       **** 	// Description of bytes 2-5: (Section 6.5.4 of the ISO/IEC 14443-3 draft: UID contents and cascade
 479:RC522.c       **** 	//		UID size	Cascade level	Byte2	Byte3	Byte4	Byte5
 480:RC522.c       **** 	//		========	=============	=====	=====	=====	=====
ARM GAS  C:\Users\ABAD_S~1\AppData\Local\Temp\cckPFQC2.s 			page 38


 481:RC522.c       **** 	//		 4 bytes		1			uid0	uid1	uid2	uid3
 482:RC522.c       **** 	//		 7 bytes		1			CT		uid0	uid1	uid2
 483:RC522.c       **** 	//						2			uid3	uid4	uid5	uid6
 484:RC522.c       **** 	//		10 bytes		1			CT		uid0	uid1	uid2
 485:RC522.c       **** 	//						2			CT		uid3	uid4	uid5
 486:RC522.c       **** 	//						3			uid6	uid7	uid8	uid9
 487:RC522.c       **** 	
 488:RC522.c       **** 	// Sanity checks
 489:RC522.c       **** 	if (validBits > 80) {
 1581              		.loc 1 489 0
 1582 0012 5029     		cmp	r1, #80
 1583 0014 00D9     		bls	.LCB1498
 1584 0016 6FE1     		b	.L110	@long jump
 1585              	.LCB1498:
 490:RC522.c       **** 		return STATUS_INVALID;
 491:RC522.c       **** 	}
 492:RC522.c       **** 	
 493:RC522.c       **** 	// Prepare MFRC522
 494:RC522.c       **** 	PCD_ClearRegisterBitMask(CollReg, 0x80);		// ValuesAfterColl=1 => Bits received after collision ar
 1586              		.loc 1 494 0
 1587 0018 8021     		movs	r1, #128
 1588              	.LVL228:
 1589 001a 0E20     		movs	r0, #14
 1590              	.LVL229:
 1591 001c FFF7FEFF 		bl	PCD_ClearRegisterBitMask
 1592              	.LVL230:
 452:RC522.c       **** 	unsigned char result;
 1593              		.loc 1 452 0
 1594 0020 0123     		movs	r3, #1
 1595 0022 0693     		str	r3, [sp, #24]
 495:RC522.c       **** 	
 496:RC522.c       **** 	// Repeat Cascade Level loop until we have a complete UID.
 497:RC522.c       **** 	uidComplete = false;
 1596              		.loc 1 497 0
 1597 0024 0023     		movs	r3, #0
 1598 0026 0793     		str	r3, [sp, #28]
 498:RC522.c       **** 	while (!uidComplete) {
 1599              		.loc 1 498 0
 1600 0028 59E1     		b	.L81
 1601              	.LVL231:
 1602              	.L109:
 1603              	.LBB10:
 499:RC522.c       **** 		// Set the Cascade Level in the SEL byte, find out if we need to use the Cascade Tag in byte 2.
 500:RC522.c       **** 		switch (cascadeLevel) {
 1604              		.loc 1 500 0
 1605 002a 069B     		ldr	r3, [sp, #24]
 1606 002c 022B     		cmp	r3, #2
 1607 002e 17D0     		beq	.L82
 1608 0030 032B     		cmp	r3, #3
 1609 0032 28D0     		beq	.L83
 1610 0034 012B     		cmp	r3, #1
 1611 0036 00D0     		beq	.LCB1524
 1612 0038 60E1     		b	.L132	@long jump
 1613              	.LCB1524:
 501:RC522.c       **** 			case 1:
 502:RC522.c       **** 				buffer[0] = PICC_CMD_SEL_CL1;
 1614              		.loc 1 502 0
ARM GAS  C:\Users\ABAD_S~1\AppData\Local\Temp\cckPFQC2.s 			page 39


 1615 003a 9322     		movs	r2, #147
 1616 003c 09AB     		add	r3, sp, #36
 1617 003e 1A70     		strb	r2, [r3]
 1618              	.LVL232:
 503:RC522.c       **** 				uidIndex = 0;
 504:RC522.c       **** 				useCascadeTag = validBits && uid->size > 4;	// When we know that the UID has more than 4 bytes
 1619              		.loc 1 504 0
 1620 0040 059B     		ldr	r3, [sp, #20]
 1621 0042 002B     		cmp	r3, #0
 1622 0044 05D0     		beq	.L112
 1623              		.loc 1 504 0 is_stmt 0 discriminator 1
 1624 0046 5346     		mov	r3, r10
 1625 0048 1B78     		ldrb	r3, [r3]
 1626 004a 042B     		cmp	r3, #4
 1627 004c 03D8     		bhi	.L113
 1628              		.loc 1 504 0
 1629 004e 0020     		movs	r0, #0
 1630 0050 02E0     		b	.L85
 1631              	.L112:
 1632 0052 0020     		movs	r0, #0
 1633 0054 00E0     		b	.L85
 1634              	.L113:
 1635 0056 0120     		movs	r0, #1
 1636              	.L85:
 1637              		.loc 1 504 0 discriminator 6
 1638 0058 8046     		mov	r8, r0
 1639              	.LVL233:
 503:RC522.c       **** 				uidIndex = 0;
 1640              		.loc 1 503 0 is_stmt 1 discriminator 6
 1641 005a 0023     		movs	r3, #0
 1642 005c 9B46     		mov	fp, r3
 505:RC522.c       **** 				break;
 1643              		.loc 1 505 0 discriminator 6
 1644 005e 19E0     		b	.L86
 1645              	.LVL234:
 1646              	.L82:
 506:RC522.c       **** 			
 507:RC522.c       **** 			case 2:
 508:RC522.c       **** 				buffer[0] = PICC_CMD_SEL_CL2;
 1647              		.loc 1 508 0
 1648 0060 9522     		movs	r2, #149
 1649 0062 09AB     		add	r3, sp, #36
 1650 0064 1A70     		strb	r2, [r3]
 1651              	.LVL235:
 509:RC522.c       **** 				uidIndex = 3;
 510:RC522.c       **** 				useCascadeTag = validBits && uid->size > 7;	// When we know that the UID has more than 7 bytes
 1652              		.loc 1 510 0
 1653 0066 059B     		ldr	r3, [sp, #20]
 1654 0068 002B     		cmp	r3, #0
 1655 006a 05D0     		beq	.L114
 1656              		.loc 1 510 0 is_stmt 0 discriminator 1
 1657 006c 5346     		mov	r3, r10
 1658 006e 1B78     		ldrb	r3, [r3]
 1659 0070 072B     		cmp	r3, #7
 1660 0072 03D8     		bhi	.L115
 1661              		.loc 1 510 0
 1662 0074 0020     		movs	r0, #0
ARM GAS  C:\Users\ABAD_S~1\AppData\Local\Temp\cckPFQC2.s 			page 40


 1663 0076 02E0     		b	.L87
 1664              	.L114:
 1665 0078 0020     		movs	r0, #0
 1666 007a 00E0     		b	.L87
 1667              	.L115:
 1668 007c 0120     		movs	r0, #1
 1669              	.L87:
 1670              		.loc 1 510 0 discriminator 6
 1671 007e 8046     		mov	r8, r0
 1672              	.LVL236:
 509:RC522.c       **** 				uidIndex = 3;
 1673              		.loc 1 509 0 is_stmt 1 discriminator 6
 1674 0080 0323     		movs	r3, #3
 1675 0082 9B46     		mov	fp, r3
 511:RC522.c       **** 				break;
 1676              		.loc 1 511 0 discriminator 6
 1677 0084 06E0     		b	.L86
 1678              	.LVL237:
 1679              	.L83:
 512:RC522.c       **** 			
 513:RC522.c       **** 			case 3:
 514:RC522.c       **** 				buffer[0] = PICC_CMD_SEL_CL3;
 1680              		.loc 1 514 0
 1681 0086 9722     		movs	r2, #151
 1682 0088 09AB     		add	r3, sp, #36
 1683 008a 1A70     		strb	r2, [r3]
 1684              	.LVL238:
 515:RC522.c       **** 				uidIndex = 6;
 1685              		.loc 1 515 0
 1686 008c 0623     		movs	r3, #6
 1687 008e 9B46     		mov	fp, r3
 516:RC522.c       **** 				useCascadeTag = false;						// Never used in CL3.
 1688              		.loc 1 516 0
 1689 0090 0023     		movs	r3, #0
 1690 0092 9846     		mov	r8, r3
 1691              	.LVL239:
 1692              	.L86:
 517:RC522.c       **** 				break;
 518:RC522.c       **** 			
 519:RC522.c       **** 			default:
 520:RC522.c       **** 				return STATUS_INTERNAL_ERROR;
 521:RC522.c       **** 				break;
 522:RC522.c       **** 		}
 523:RC522.c       **** 		
 524:RC522.c       **** 		// How many UID bits are known in this Cascade Level?
 525:RC522.c       **** 		currentLevelKnownBits = validBits - (8 * uidIndex);
 1693              		.loc 1 525 0
 1694 0094 5B46     		mov	r3, fp
 1695 0096 DD00     		lsls	r5, r3, #3
 1696 0098 059B     		ldr	r3, [sp, #20]
 1697 009a 5D1B     		subs	r5, r3, r5
 1698 009c 6DB2     		sxtb	r5, r5
 1699              	.LVL240:
 526:RC522.c       **** 		if (currentLevelKnownBits < 0) {
 1700              		.loc 1 526 0
 1701 009e 002D     		cmp	r5, #0
 1702 00a0 00DA     		bge	.L88
ARM GAS  C:\Users\ABAD_S~1\AppData\Local\Temp\cckPFQC2.s 			page 41


 527:RC522.c       **** 			currentLevelKnownBits = 0;
 1703              		.loc 1 527 0
 1704 00a2 0025     		movs	r5, #0
 1705              	.LVL241:
 1706              	.L88:
 528:RC522.c       **** 		}
 529:RC522.c       **** 		// Copy the known bits from uid->uidByte[] to buffer[]
 530:RC522.c       **** 		index = 2; // destination index in buffer[]
 531:RC522.c       **** 		if (useCascadeTag) {
 1707              		.loc 1 531 0
 1708 00a4 4346     		mov	r3, r8
 1709 00a6 002B     		cmp	r3, #0
 1710 00a8 04D0     		beq	.L117
 1711              	.LVL242:
 532:RC522.c       **** 			buffer[index++] = PICC_CMD_CT;
 1712              		.loc 1 532 0
 1713 00aa 8822     		movs	r2, #136
 1714 00ac 09AB     		add	r3, sp, #36
 1715 00ae 9A70     		strb	r2, [r3, #2]
 1716 00b0 0321     		movs	r1, #3
 1717 00b2 00E0     		b	.L89
 1718              	.LVL243:
 1719              	.L117:
 530:RC522.c       **** 		if (useCascadeTag) {
 1720              		.loc 1 530 0
 1721 00b4 0221     		movs	r1, #2
 1722              	.LVL244:
 1723              	.L89:
 533:RC522.c       **** 		}
 534:RC522.c       **** 		unsigned char bytesToCopy = currentLevelKnownBits / 8 + (currentLevelKnownBits % 8 ? 1 : 0); // T
 1724              		.loc 1 534 0
 1725 00b6 EBB2     		uxtb	r3, r5
 1726 00b8 9C46     		mov	ip, r3
 1727 00ba 0723     		movs	r3, #7
 1728 00bc 6246     		mov	r2, ip
 1729 00be 1340     		ands	r3, r2
 1730 00c0 1F00     		movs	r7, r3
 1731 00c2 7B1E     		subs	r3, r7, #1
 1732 00c4 9F41     		sbcs	r7, r7, r3
 1733 00c6 EA17     		asrs	r2, r5, #31
 1734 00c8 0723     		movs	r3, #7
 1735 00ca 1340     		ands	r3, r2
 1736 00cc 5B19     		adds	r3, r3, r5
 1737 00ce DB10     		asrs	r3, r3, #3
 1738 00d0 FB18     		adds	r3, r7, r3
 1739 00d2 DBB2     		uxtb	r3, r3
 1740              	.LVL245:
 535:RC522.c       **** 		if (bytesToCopy) {
 1741              		.loc 1 535 0
 1742 00d4 002B     		cmp	r3, #0
 1743 00d6 1DD0     		beq	.L90
 1744              	.LBB11:
 536:RC522.c       **** 			unsigned char maxBytes = useCascadeTag ? 3 : 4; // Max 4 bytes in each Cascade Level. Only 3 lef
 1745              		.loc 1 536 0
 1746 00d8 4246     		mov	r2, r8
 1747 00da 002A     		cmp	r2, #0
 1748 00dc 01D0     		beq	.L118
ARM GAS  C:\Users\ABAD_S~1\AppData\Local\Temp\cckPFQC2.s 			page 42


 1749 00de 0327     		movs	r7, #3
 1750 00e0 00E0     		b	.L91
 1751              	.L118:
 1752 00e2 0427     		movs	r7, #4
 1753              	.L91:
 1754              	.LVL246:
 537:RC522.c       **** 			if (bytesToCopy > maxBytes) {
 1755              		.loc 1 537 0 discriminator 4
 1756 00e4 9F42     		cmp	r7, r3
 1757 00e6 00D3     		bcc	.L92
 1758              	.LBE11:
 534:RC522.c       **** 		if (bytesToCopy) {
 1759              		.loc 1 534 0
 1760 00e8 1F00     		movs	r7, r3
 1761              	.LVL247:
 1762              	.L92:
 1763              	.LBB12:
 538:RC522.c       **** 				bytesToCopy = maxBytes;
 539:RC522.c       **** 			}
 540:RC522.c       **** 			for (count = 0; count < bytesToCopy; count++) {
 1764              		.loc 1 540 0
 1765 00ea 0023     		movs	r3, #0
 1766 00ec 5C46     		mov	r4, fp
 1767 00ee A946     		mov	r9, r5
 1768 00f0 5546     		mov	r5, r10
 1769              	.LVL248:
 1770 00f2 B246     		mov	r10, r6
 1771              	.LVL249:
 1772 00f4 08E0     		b	.L93
 1773              	.LVL250:
 1774              	.L94:
 541:RC522.c       **** 				buffer[index++] = uid->uidByte[uidIndex + count];
 1775              		.loc 1 541 0 discriminator 3
 1776 00f6 481C     		adds	r0, r1, #1
 1777              	.LVL251:
 1778 00f8 E218     		adds	r2, r4, r3
 1779 00fa AA18     		adds	r2, r5, r2
 1780 00fc 5678     		ldrb	r6, [r2, #1]
 1781 00fe 09AA     		add	r2, sp, #36
 1782 0100 5654     		strb	r6, [r2, r1]
 540:RC522.c       **** 				buffer[index++] = uid->uidByte[uidIndex + count];
 1783              		.loc 1 540 0 discriminator 3
 1784 0102 0133     		adds	r3, r3, #1
 1785              	.LVL252:
 1786 0104 DBB2     		uxtb	r3, r3
 1787              	.LVL253:
 1788              		.loc 1 541 0 discriminator 3
 1789 0106 C1B2     		uxtb	r1, r0
 1790              	.LVL254:
 1791              	.L93:
 540:RC522.c       **** 				buffer[index++] = uid->uidByte[uidIndex + count];
 1792              		.loc 1 540 0 discriminator 1
 1793 0108 BB42     		cmp	r3, r7
 1794 010a F4D3     		bcc	.L94
 1795 010c A346     		mov	fp, r4
 1796              	.LVL255:
 1797 010e 5646     		mov	r6, r10
ARM GAS  C:\Users\ABAD_S~1\AppData\Local\Temp\cckPFQC2.s 			page 43


 1798 0110 AA46     		mov	r10, r5
 1799              	.LVL256:
 1800 0112 4D46     		mov	r5, r9
 1801              	.LVL257:
 1802              	.L90:
 1803              	.LBE12:
 542:RC522.c       **** 			}
 543:RC522.c       **** 		}
 544:RC522.c       **** 		// Now that the data has been copied we need to include the 8 bits in CT in currentLevelKnownBits
 545:RC522.c       **** 		if (useCascadeTag) {
 1804              		.loc 1 545 0
 1805 0114 4346     		mov	r3, r8
 1806 0116 002B     		cmp	r3, #0
 1807 0118 02D0     		beq	.L95
 546:RC522.c       **** 			currentLevelKnownBits += 8;
 1808              		.loc 1 546 0
 1809 011a 6546     		mov	r5, ip
 1810 011c 0835     		adds	r5, r5, #8
 1811 011e 6DB2     		sxtb	r5, r5
 1812              	.LVL258:
 1813              	.L95:
 547:RC522.c       **** 		}
 548:RC522.c       **** 		
 549:RC522.c       **** 		// Repeat anti collision loop until we can transmit all UID bits + BCC and receive a SAK - max 32
 550:RC522.c       **** 		selectDone = false;
 551:RC522.c       **** 		while (!selectDone) {
 552:RC522.c       **** 			// Find out how many bits and bytes to send and receive.
 553:RC522.c       **** 			if (currentLevelKnownBits >= 32) { // All UID bits in this Cascade Level are known. This is a SE
 554:RC522.c       **** 				//Serial.print(F("SELECT: currentLevelKnownBits=")); Serial.println(currentLevelKnownBits, DEC)
 555:RC522.c       **** 				buffer[1] = 0x70; // NVB - Number of Valid Bits: Seven whole bytes
 556:RC522.c       **** 				// Calculate BCC - Block Check Character
 557:RC522.c       **** 				buffer[6] = buffer[2] ^ buffer[3] ^ buffer[4] ^ buffer[5];
 558:RC522.c       **** 				// Calculate CRC_A
 559:RC522.c       **** 				result = PCD_CalculateCRC(buffer, 7, &buffer[7]);
 560:RC522.c       **** 				if (result != STATUS_OK) {
 561:RC522.c       **** 					return result;
 562:RC522.c       **** 				}
 563:RC522.c       **** 				txLastBits		= 0; // 0 => All 8 bits are valid.
 564:RC522.c       **** 				bufferUsed		= 9;
 565:RC522.c       **** 				// Store response in the last 3 bytes of buffer (BCC and CRC_A - not needed after tx)
 566:RC522.c       **** 				responseBuffer	= &buffer[6];
 567:RC522.c       **** 				responseLength	= 3;
 568:RC522.c       **** 			}
 569:RC522.c       **** 			else { // This is an ANTICOLLISION.
 570:RC522.c       **** 				//Serial.print(F("ANTICOLLISION: currentLevelKnownBits=")); Serial.println(currentLevelKnownBit
 571:RC522.c       **** 				txLastBits		= currentLevelKnownBits % 8;
 572:RC522.c       **** 				count			= currentLevelKnownBits / 8;	// Number of whole bytes in the UID part.
 573:RC522.c       **** 				index			= 2 + count;					// Number of whole bytes: SEL + NVB + UIDs
 574:RC522.c       **** 				buffer[1]		= (index << 4) + txLastBits;	// NVB - Number of Valid Bits
 575:RC522.c       **** 				bufferUsed		= index + (txLastBits ? 1 : 0);
 576:RC522.c       **** 				// Store response in the unused part of buffer
 577:RC522.c       **** 				responseBuffer	= &buffer[index];
 578:RC522.c       **** 				responseLength	= sizeof(buffer) - index;
 579:RC522.c       **** 			}
 580:RC522.c       **** 			
 581:RC522.c       **** 			// Set bit adjustments
 582:RC522.c       **** 			rxAlign = txLastBits;											// Having a separate variable is overkill. But it makes the next
ARM GAS  C:\Users\ABAD_S~1\AppData\Local\Temp\cckPFQC2.s 			page 44


 583:RC522.c       **** 			PCD_WriteRegister(BitFramingReg, (rxAlign << 4) + txLastBits);	// RxAlign = BitFramingReg[6..4].
 584:RC522.c       **** 			
 585:RC522.c       **** 			// Transmit the buffer and receive the response.
 586:RC522.c       **** 			result = PCD_TransceiveData(buffer, bufferUsed, responseBuffer, &responseLength, &txLastBits, rx
 587:RC522.c       **** 			if (result == STATUS_COLLISION) { // More than one PICC in the field => collision.
 588:RC522.c       **** 				unsigned char valueOfCollReg = PCD_ReadRegister(CollReg); // CollReg[7..0] bits are: ValuesAfte
 589:RC522.c       **** 				if (valueOfCollReg & 0x20) { // CollPosNotValid
 590:RC522.c       **** 					return STATUS_COLLISION; // Without a valid collision position we cannot continue
 591:RC522.c       **** 				}
 592:RC522.c       **** 				unsigned char collisionPos = valueOfCollReg & 0x1F; // Values 0-31, 0 means bit 32.
 593:RC522.c       **** 				if (collisionPos == 0) {
 594:RC522.c       **** 					collisionPos = 32;
 595:RC522.c       **** 				}
 596:RC522.c       **** 				if (collisionPos <= currentLevelKnownBits) { // No progress - should not happen 
 597:RC522.c       **** 					return STATUS_INTERNAL_ERROR;
 598:RC522.c       **** 				}
 599:RC522.c       **** 				// Choose the PICC with the bit set.
 600:RC522.c       **** 				currentLevelKnownBits	= collisionPos;
 601:RC522.c       **** 				count			= currentLevelKnownBits % 8; // The bit to modify
 602:RC522.c       **** 				checkBit		= (currentLevelKnownBits - 1) % 8;
 603:RC522.c       **** 				index			= 1 + (currentLevelKnownBits / 8) + (count ? 1 : 0); // First byte is index 0.
 604:RC522.c       **** 				buffer[index]	|= (1 << checkBit);
 605:RC522.c       **** 			}
 606:RC522.c       **** 			else if (result != STATUS_OK) {
 607:RC522.c       **** 				return result;
 608:RC522.c       **** 			}
 609:RC522.c       **** 			else { // STATUS_OK
 610:RC522.c       **** 				if (currentLevelKnownBits >= 32) { // This was a SELECT.
 611:RC522.c       **** 					selectDone = true; // No more anticollision 
 1814              		.loc 1 611 0
 1815 0120 0023     		movs	r3, #0
 1816 0122 1F00     		movs	r7, r3
 1817 0124 B046     		mov	r8, r6
 1818              	.LVL259:
 1819 0126 8EE0     		b	.L96
 1820              	.LVL260:
 1821              	.L102:
 553:RC522.c       **** 				//Serial.print(F("SELECT: currentLevelKnownBits=")); Serial.println(currentLevelKnownBits, DEC)
 1822              		.loc 1 553 0
 1823 0128 1F2D     		cmp	r5, #31
 1824 012a 24DD     		ble	.L97
 555:RC522.c       **** 				// Calculate BCC - Block Check Character
 1825              		.loc 1 555 0
 1826 012c 09A8     		add	r0, sp, #36
 1827 012e 7023     		movs	r3, #112
 1828 0130 4370     		strb	r3, [r0, #1]
 557:RC522.c       **** 				// Calculate CRC_A
 1829              		.loc 1 557 0
 1830 0132 8478     		ldrb	r4, [r0, #2]
 1831 0134 C278     		ldrb	r2, [r0, #3]
 1832 0136 0379     		ldrb	r3, [r0, #4]
 1833 0138 4179     		ldrb	r1, [r0, #5]
 1834 013a 6240     		eors	r2, r4
 1835 013c 5340     		eors	r3, r2
 1836 013e 4B40     		eors	r3, r1
 1837 0140 8371     		strb	r3, [r0, #6]
 559:RC522.c       **** 				if (result != STATUS_OK) {
ARM GAS  C:\Users\ABAD_S~1\AppData\Local\Temp\cckPFQC2.s 			page 45


 1838              		.loc 1 559 0
 1839 0142 1B22     		movs	r2, #27
 1840 0144 04AB     		add	r3, sp, #16
 1841 0146 9C46     		mov	ip, r3
 1842 0148 6244     		add	r2, r2, ip
 1843 014a 0721     		movs	r1, #7
 1844 014c FFF7FEFF 		bl	PCD_CalculateCRC
 1845              	.LVL261:
 560:RC522.c       **** 					return result;
 1846              		.loc 1 560 0
 1847 0150 0028     		cmp	r0, #0
 1848 0152 00D0     		beq	.LCB1789
 1849 0154 DFE0     		b	.L80	@long jump
 1850              	.LCB1789:
 563:RC522.c       **** 				bufferUsed		= 9;
 1851              		.loc 1 563 0
 1852 0156 0022     		movs	r2, #0
 1853 0158 1323     		movs	r3, #19
 1854 015a 04A9     		add	r1, sp, #16
 1855 015c 8C46     		mov	ip, r1
 1856 015e 6344     		add	r3, r3, ip
 1857 0160 1A70     		strb	r2, [r3]
 1858              	.LVL262:
 567:RC522.c       **** 			}
 1859              		.loc 1 567 0
 1860 0162 0332     		adds	r2, r2, #3
 1861 0164 1223     		movs	r3, #18
 1862 0166 6344     		add	r3, r3, ip
 1863 0168 1A70     		strb	r2, [r3]
 566:RC522.c       **** 				responseLength	= 3;
 1864              		.loc 1 566 0
 1865 016a 1A23     		movs	r3, #26
 1866 016c 6344     		add	r3, r3, ip
 1867 016e 9846     		mov	r8, r3
 564:RC522.c       **** 				// Store response in the last 3 bytes of buffer (BCC and CRC_A - not needed after tx)
 1868              		.loc 1 564 0
 1869 0170 0923     		movs	r3, #9
 1870 0172 9946     		mov	r9, r3
 1871 0174 21E0     		b	.L98
 1872              	.LVL263:
 1873              	.L97:
 571:RC522.c       **** 				count			= currentLevelKnownBits / 8;	// Number of whole bytes in the UID part.
 1874              		.loc 1 571 0
 1875 0176 EB17     		asrs	r3, r5, #31
 1876 0178 580F     		lsrs	r0, r3, #29
 1877 017a 2918     		adds	r1, r5, r0
 1878 017c 0722     		movs	r2, #7
 1879 017e 1140     		ands	r1, r2
 1880 0180 091A     		subs	r1, r1, r0
 1881 0182 C9B2     		uxtb	r1, r1
 1882 0184 1320     		movs	r0, #19
 1883 0186 04AC     		add	r4, sp, #16
 1884 0188 A446     		mov	ip, r4
 1885 018a 6044     		add	r0, r0, ip
 1886 018c 0170     		strb	r1, [r0]
 572:RC522.c       **** 				index			= 2 + count;					// Number of whole bytes: SEL + NVB + UIDs
 1887              		.loc 1 572 0
ARM GAS  C:\Users\ABAD_S~1\AppData\Local\Temp\cckPFQC2.s 			page 46


 1888 018e 1340     		ands	r3, r2
 1889 0190 5B19     		adds	r3, r3, r5
 1890 0192 DB10     		asrs	r3, r3, #3
 1891 0194 DBB2     		uxtb	r3, r3
 1892              	.LVL264:
 573:RC522.c       **** 				buffer[1]		= (index << 4) + txLastBits;	// NVB - Number of Valid Bits
 1893              		.loc 1 573 0
 1894 0196 0233     		adds	r3, r3, #2
 1895              	.LVL265:
 1896 0198 DBB2     		uxtb	r3, r3
 1897              	.LVL266:
 574:RC522.c       **** 				bufferUsed		= index + (txLastBits ? 1 : 0);
 1898              		.loc 1 574 0
 1899 019a 09A8     		add	r0, sp, #36
 1900 019c 1A01     		lsls	r2, r3, #4
 1901              	.LVL267:
 1902 019e 8A18     		adds	r2, r1, r2
 1903 01a0 4270     		strb	r2, [r0, #1]
 575:RC522.c       **** 				// Store response in the unused part of buffer
 1904              		.loc 1 575 0
 1905 01a2 4A1E     		subs	r2, r1, #1
 1906 01a4 9141     		sbcs	r1, r1, r2
 1907 01a6 C918     		adds	r1, r1, r3
 1908 01a8 CAB2     		uxtb	r2, r1
 1909 01aa 9146     		mov	r9, r2
 1910              	.LVL268:
 577:RC522.c       **** 				responseLength	= sizeof(buffer) - index;
 1911              		.loc 1 577 0
 1912 01ac 8046     		mov	r8, r0
 1913              	.LVL269:
 1914 01ae 9844     		add	r8, r8, r3
 1915              	.LVL270:
 578:RC522.c       **** 			}
 1916              		.loc 1 578 0
 1917 01b0 0922     		movs	r2, #9
 1918 01b2 D31A     		subs	r3, r2, r3
 1919              	.LVL271:
 1920 01b4 1222     		movs	r2, #18
 1921 01b6 6244     		add	r2, r2, ip
 1922 01b8 1370     		strb	r3, [r2]
 1923              	.LVL272:
 1924              	.L98:
 582:RC522.c       **** 			PCD_WriteRegister(BitFramingReg, (rxAlign << 4) + txLastBits);	// RxAlign = BitFramingReg[6..4].
 1925              		.loc 1 582 0
 1926 01ba 1324     		movs	r4, #19
 1927 01bc 04AB     		add	r3, sp, #16
 1928 01be 9C46     		mov	ip, r3
 1929 01c0 6444     		add	r4, r4, ip
 1930 01c2 2678     		ldrb	r6, [r4]
 1931              	.LVL273:
 583:RC522.c       **** 			
 1932              		.loc 1 583 0
 1933 01c4 3101     		lsls	r1, r6, #4
 1934 01c6 7118     		adds	r1, r6, r1
 1935 01c8 C9B2     		uxtb	r1, r1
 1936 01ca 0D20     		movs	r0, #13
 1937 01cc FFF7FEFF 		bl	PCD_WriteRegister
ARM GAS  C:\Users\ABAD_S~1\AppData\Local\Temp\cckPFQC2.s 			page 47


 1938              	.LVL274:
 586:RC522.c       **** 			if (result == STATUS_COLLISION) { // More than one PICC in the field => collision.
 1939              		.loc 1 586 0
 1940 01d0 0023     		movs	r3, #0
 1941 01d2 0293     		str	r3, [sp, #8]
 1942 01d4 0196     		str	r6, [sp, #4]
 1943 01d6 0094     		str	r4, [sp]
 1944 01d8 1233     		adds	r3, r3, #18
 1945 01da 04AA     		add	r2, sp, #16
 1946 01dc 9446     		mov	ip, r2
 1947 01de 6344     		add	r3, r3, ip
 1948 01e0 4246     		mov	r2, r8
 1949 01e2 4946     		mov	r1, r9
 1950 01e4 09A8     		add	r0, sp, #36
 1951 01e6 FFF7FEFF 		bl	PCD_TransceiveData
 1952              	.LVL275:
 587:RC522.c       **** 				unsigned char valueOfCollReg = PCD_ReadRegister(CollReg); // CollReg[7..0] bits are: ValuesAfte
 1953              		.loc 1 587 0
 1954 01ea 0228     		cmp	r0, #2
 1955 01ec 24D1     		bne	.L99
 1956              	.LBB13:
 588:RC522.c       **** 				if (valueOfCollReg & 0x20) { // CollPosNotValid
 1957              		.loc 1 588 0
 1958 01ee 0C30     		adds	r0, r0, #12
 1959              	.LVL276:
 1960 01f0 FFF7FEFF 		bl	PCD_ReadRegister
 1961              	.LVL277:
 589:RC522.c       **** 					return STATUS_COLLISION; // Without a valid collision position we cannot continue
 1962              		.loc 1 589 0
 1963 01f4 8306     		lsls	r3, r0, #26
 1964 01f6 00D5     		bpl	.LCB1904
 1965 01f8 82E0     		b	.L120	@long jump
 1966              	.LCB1904:
 592:RC522.c       **** 				if (collisionPos == 0) {
 1967              		.loc 1 592 0
 1968 01fa 1F23     		movs	r3, #31
 1969 01fc 1840     		ands	r0, r3
 1970              	.LVL278:
 593:RC522.c       **** 					collisionPos = 32;
 1971              		.loc 1 593 0
 1972 01fe 00D1     		bne	.L100
 594:RC522.c       **** 				}
 1973              		.loc 1 594 0
 1974 0200 2030     		adds	r0, r0, #32
 1975              	.LVL279:
 1976              	.L100:
 596:RC522.c       **** 					return STATUS_INTERNAL_ERROR;
 1977              		.loc 1 596 0
 1978 0202 A842     		cmp	r0, r5
 1979 0204 7EDD     		ble	.L122
 600:RC522.c       **** 				count			= currentLevelKnownBits % 8; // The bit to modify
 1980              		.loc 1 600 0
 1981 0206 45B2     		sxtb	r5, r0
 1982              	.LVL280:
 601:RC522.c       **** 				checkBit		= (currentLevelKnownBits - 1) % 8;
 1983              		.loc 1 601 0
 1984 0208 0720     		movs	r0, #7
ARM GAS  C:\Users\ABAD_S~1\AppData\Local\Temp\cckPFQC2.s 			page 48


 1985              	.LVL281:
 1986 020a 2A00     		movs	r2, r5
 1987 020c 0240     		ands	r2, r0
 1988              	.LVL282:
 602:RC522.c       **** 				index			= 1 + (currentLevelKnownBits / 8) + (count ? 1 : 0); // First byte is index 0.
 1989              		.loc 1 602 0
 1990 020e 6B1E     		subs	r3, r5, #1
 1991 0210 D917     		asrs	r1, r3, #31
 1992 0212 490F     		lsrs	r1, r1, #29
 1993 0214 5B18     		adds	r3, r3, r1
 1994 0216 0340     		ands	r3, r0
 1995 0218 5B1A     		subs	r3, r3, r1
 1996              	.LVL283:
 603:RC522.c       **** 				buffer[index]	|= (1 << checkBit);
 1997              		.loc 1 603 0
 1998 021a 511E     		subs	r1, r2, #1
 1999 021c 8A41     		sbcs	r2, r2, r1
 2000              	.LVL284:
 2001 021e E908     		lsrs	r1, r5, #3
 2002 0220 5218     		adds	r2, r2, r1
 2003 0222 0132     		adds	r2, r2, #1
 2004 0224 D2B2     		uxtb	r2, r2
 2005              	.LVL285:
 604:RC522.c       **** 			}
 2006              		.loc 1 604 0
 2007 0226 FF21     		movs	r1, #255
 2008 0228 1940     		ands	r1, r3
 2009 022a 0123     		movs	r3, #1
 2010              	.LVL286:
 2011 022c 8B40     		lsls	r3, r3, r1
 2012 022e 09A9     		add	r1, sp, #36
 2013 0230 885C     		ldrb	r0, [r1, r2]
 2014              	.LVL287:
 2015 0232 0343     		orrs	r3, r0
 2016 0234 8B54     		strb	r3, [r1, r2]
 2017              	.LBE13:
 2018 0236 06E0     		b	.L96
 2019              	.LVL288:
 2020              	.L99:
 606:RC522.c       **** 				return result;
 2021              		.loc 1 606 0
 2022 0238 0028     		cmp	r0, #0
 2023 023a 6CD1     		bne	.L80
 610:RC522.c       **** 					selectDone = true; // No more anticollision 
 2024              		.loc 1 610 0
 2025 023c 1F2D     		cmp	r5, #31
 2026 023e 01DD     		ble	.L124
 2027              		.loc 1 611 0
 2028 0240 0127     		movs	r7, #1
 2029              	.LVL289:
 2030 0242 00E0     		b	.L96
 2031              	.LVL290:
 2032              	.L124:
 612:RC522.c       **** 					// We continue below outside the while.
 613:RC522.c       **** 				}
 614:RC522.c       **** 				else { // This was an ANTICOLLISION.
 615:RC522.c       **** 					// We now have all 32 bits of the UID in this Cascade Level
ARM GAS  C:\Users\ABAD_S~1\AppData\Local\Temp\cckPFQC2.s 			page 49


 616:RC522.c       **** 					currentLevelKnownBits = 32;
 2033              		.loc 1 616 0
 2034 0244 2025     		movs	r5, #32
 2035              	.LVL291:
 2036              	.L96:
 551:RC522.c       **** 			// Find out how many bits and bytes to send and receive.
 2037              		.loc 1 551 0
 2038 0246 002F     		cmp	r7, #0
 2039 0248 00D1     		bne	.LCB1998
 2040 024a 6DE7     		b	.L102	@long jump
 2041              	.LCB1998:
 2042 024c 4646     		mov	r6, r8
 617:RC522.c       **** 					// Run loop again to do the SELECT.
 618:RC522.c       **** 				}
 619:RC522.c       **** 			}
 620:RC522.c       **** 		} // End of while (!selectDone)
 621:RC522.c       **** 		
 622:RC522.c       **** 		// We do not check the CBB - it was constructed by us above.
 623:RC522.c       **** 		
 624:RC522.c       **** 		// Copy the found UID bytes from buffer[] to uid->uidByte[]
 625:RC522.c       **** 		index			= (buffer[2] == PICC_CMD_CT) ? 3 : 2; // source index in buffer[]
 2043              		.loc 1 625 0
 2044 024e 09AB     		add	r3, sp, #36
 2045 0250 9B78     		ldrb	r3, [r3, #2]
 2046 0252 882B     		cmp	r3, #136
 2047 0254 01D1     		bne	.L125
 2048 0256 0321     		movs	r1, #3
 2049 0258 00E0     		b	.L103
 2050              	.L125:
 2051 025a 0221     		movs	r1, #2
 2052              	.L103:
 2053              	.LVL292:
 626:RC522.c       **** 		bytesToCopy		= (buffer[2] == PICC_CMD_CT) ? 3 : 4;
 2054              		.loc 1 626 0 discriminator 4
 2055 025c 882B     		cmp	r3, #136
 2056 025e 01D1     		bne	.L126
 2057              		.loc 1 626 0 is_stmt 0
 2058 0260 0325     		movs	r5, #3
 2059              	.LVL293:
 2060 0262 00E0     		b	.L104
 2061              	.LVL294:
 2062              	.L126:
 2063 0264 0425     		movs	r5, #4
 2064              	.LVL295:
 2065              	.L104:
 627:RC522.c       **** 		for (count = 0; count < bytesToCopy; count++) {
 2066              		.loc 1 627 0 is_stmt 1 discriminator 4
 2067 0266 0023     		movs	r3, #0
 2068 0268 5F46     		mov	r7, fp
 2069              	.LVL296:
 2070 026a B446     		mov	ip, r6
 2071 026c 5646     		mov	r6, r10
 2072 026e 08E0     		b	.L105
 2073              	.LVL297:
 2074              	.L106:
 628:RC522.c       **** 			uid->uidByte[uidIndex + count] = buffer[index++];
 2075              		.loc 1 628 0 discriminator 3
ARM GAS  C:\Users\ABAD_S~1\AppData\Local\Temp\cckPFQC2.s 			page 50


 2076 0270 FA18     		adds	r2, r7, r3
 2077 0272 481C     		adds	r0, r1, #1
 2078              	.LVL298:
 2079 0274 09AC     		add	r4, sp, #36
 2080 0276 615C     		ldrb	r1, [r4, r1]
 2081 0278 B218     		adds	r2, r6, r2
 2082 027a 5170     		strb	r1, [r2, #1]
 627:RC522.c       **** 		for (count = 0; count < bytesToCopy; count++) {
 2083              		.loc 1 627 0 discriminator 3
 2084 027c 0133     		adds	r3, r3, #1
 2085              	.LVL299:
 2086 027e DBB2     		uxtb	r3, r3
 2087              	.LVL300:
 2088              		.loc 1 628 0 discriminator 3
 2089 0280 C1B2     		uxtb	r1, r0
 2090              	.LVL301:
 2091              	.L105:
 627:RC522.c       **** 		for (count = 0; count < bytesToCopy; count++) {
 2092              		.loc 1 627 0 discriminator 1
 2093 0282 AB42     		cmp	r3, r5
 2094 0284 F4D3     		bcc	.L106
 2095 0286 B246     		mov	r10, r6
 2096 0288 6646     		mov	r6, ip
 2097              	.LVL302:
 629:RC522.c       **** 		}
 630:RC522.c       **** 		
 631:RC522.c       **** 		// Check response SAK (Select Acknowledge)
 632:RC522.c       **** 		if (responseLength != 3 || txLastBits != 0) { // SAK must be exactly 24 bits (1 byte + CRC_A).
 2098              		.loc 1 632 0
 2099 028a 1223     		movs	r3, #18
 2100              	.LVL303:
 2101 028c 04AA     		add	r2, sp, #16
 2102 028e 9446     		mov	ip, r2
 2103 0290 6344     		add	r3, r3, ip
 2104 0292 1B78     		ldrb	r3, [r3]
 2105 0294 032B     		cmp	r3, #3
 2106 0296 37D1     		bne	.L127
 2107              	.LVL304:
 2108              		.loc 1 632 0 is_stmt 0 discriminator 1
 2109 0298 1033     		adds	r3, r3, #16
 2110 029a 6344     		add	r3, r3, ip
 2111 029c 1B78     		ldrb	r3, [r3]
 2112 029e 002B     		cmp	r3, #0
 2113 02a0 34D1     		bne	.L128
 633:RC522.c       **** 			return STATUS_ERROR;
 634:RC522.c       **** 		}
 635:RC522.c       **** 		// Verify CRC_A - do our own calculation and store the control in buffer[2..3] - those bytes are 
 636:RC522.c       **** 		result = PCD_CalculateCRC(responseBuffer, 1, &buffer[2]);
 2114              		.loc 1 636 0 is_stmt 1
 2115 02a2 1622     		movs	r2, #22
 2116 02a4 6244     		add	r2, r2, ip
 2117 02a6 0121     		movs	r1, #1
 2118              	.LVL305:
 2119 02a8 3000     		movs	r0, r6
 2120 02aa FFF7FEFF 		bl	PCD_CalculateCRC
 2121              	.LVL306:
 637:RC522.c       **** 		if (result != STATUS_OK) {
ARM GAS  C:\Users\ABAD_S~1\AppData\Local\Temp\cckPFQC2.s 			page 51


 2122              		.loc 1 637 0
 2123 02ae 0028     		cmp	r0, #0
 2124 02b0 31D1     		bne	.L80
 638:RC522.c       **** 			return result;
 639:RC522.c       **** 		}
 640:RC522.c       **** 		if ((buffer[2] != responseBuffer[1]) || (buffer[3] != responseBuffer[2])) {
 2125              		.loc 1 640 0
 2126 02b2 09AB     		add	r3, sp, #36
 2127 02b4 9A78     		ldrb	r2, [r3, #2]
 2128 02b6 7378     		ldrb	r3, [r6, #1]
 2129 02b8 9A42     		cmp	r2, r3
 2130 02ba 29D1     		bne	.L130
 2131              		.loc 1 640 0 is_stmt 0 discriminator 1
 2132 02bc 09AB     		add	r3, sp, #36
 2133 02be DA78     		ldrb	r2, [r3, #3]
 2134 02c0 B378     		ldrb	r3, [r6, #2]
 2135 02c2 9A42     		cmp	r2, r3
 2136 02c4 26D1     		bne	.L131
 641:RC522.c       **** 			return STATUS_CRC_WRONG;
 642:RC522.c       **** 		}
 643:RC522.c       **** 		if (responseBuffer[0] & 0x04) { // Cascade bit set - UID not complete yes
 2137              		.loc 1 643 0 is_stmt 1
 2138 02c6 3378     		ldrb	r3, [r6]
 2139 02c8 5A07     		lsls	r2, r3, #29
 2140 02ca 04D5     		bpl	.L107
 644:RC522.c       **** 			cascadeLevel++;
 2141              		.loc 1 644 0
 2142 02cc 069B     		ldr	r3, [sp, #24]
 2143 02ce 0133     		adds	r3, r3, #1
 2144 02d0 DBB2     		uxtb	r3, r3
 2145 02d2 0693     		str	r3, [sp, #24]
 2146              	.LVL307:
 2147 02d4 03E0     		b	.L81
 2148              	.L107:
 2149              	.LVL308:
 645:RC522.c       **** 		}
 646:RC522.c       **** 		else {
 647:RC522.c       **** 			uidComplete = true;
 648:RC522.c       **** 			uid->sak = responseBuffer[0];
 2150              		.loc 1 648 0
 2151 02d6 5246     		mov	r2, r10
 2152 02d8 D372     		strb	r3, [r2, #11]
 647:RC522.c       **** 			uid->sak = responseBuffer[0];
 2153              		.loc 1 647 0
 2154 02da 0123     		movs	r3, #1
 2155 02dc 0793     		str	r3, [sp, #28]
 2156              	.LVL309:
 2157              	.L81:
 2158              	.LBE10:
 498:RC522.c       **** 		// Set the Cascade Level in the SEL byte, find out if we need to use the Cascade Tag in byte 2.
 2159              		.loc 1 498 0
 2160 02de 079B     		ldr	r3, [sp, #28]
 2161 02e0 002B     		cmp	r3, #0
 2162 02e2 00D1     		bne	.LCB2144
 2163 02e4 A1E6     		b	.L109	@long jump
 2164              	.LCB2144:
 649:RC522.c       **** 		}
ARM GAS  C:\Users\ABAD_S~1\AppData\Local\Temp\cckPFQC2.s 			page 52


 650:RC522.c       **** 	} // End of while (!uidComplete)
 651:RC522.c       **** 	
 652:RC522.c       **** 	// Set correct uid->size
 653:RC522.c       **** 	uid->size = 3 * cascadeLevel + 1;
 2165              		.loc 1 653 0
 2166 02e6 069A     		ldr	r2, [sp, #24]
 2167 02e8 5300     		lsls	r3, r2, #1
 2168 02ea 9446     		mov	ip, r2
 2169 02ec 6344     		add	r3, r3, ip
 2170 02ee 0133     		adds	r3, r3, #1
 2171 02f0 5246     		mov	r2, r10
 2172 02f2 1370     		strb	r3, [r2]
 654:RC522.c       **** 
 655:RC522.c       **** 	return STATUS_OK;
 2173              		.loc 1 655 0
 2174 02f4 0020     		movs	r0, #0
 2175 02f6 0EE0     		b	.L80
 2176              	.LVL310:
 2177              	.L110:
 490:RC522.c       **** 	}
 2178              		.loc 1 490 0
 2179 02f8 0620     		movs	r0, #6
 2180              	.LVL311:
 2181 02fa 0CE0     		b	.L80
 2182              	.LVL312:
 2183              	.L132:
 2184              	.LBB15:
 520:RC522.c       **** 				break;
 2185              		.loc 1 520 0
 2186 02fc 0520     		movs	r0, #5
 2187 02fe 0AE0     		b	.L80
 2188              	.LVL313:
 2189              	.L120:
 2190              	.LBB14:
 590:RC522.c       **** 				}
 2191              		.loc 1 590 0
 2192 0300 0220     		movs	r0, #2
 2193              	.LVL314:
 2194 0302 08E0     		b	.L80
 2195              	.LVL315:
 2196              	.L122:
 597:RC522.c       **** 				}
 2197              		.loc 1 597 0
 2198 0304 0520     		movs	r0, #5
 2199              	.LVL316:
 2200 0306 06E0     		b	.L80
 2201              	.LVL317:
 2202              	.L127:
 2203              	.LBE14:
 633:RC522.c       **** 		}
 2204              		.loc 1 633 0
 2205 0308 0120     		movs	r0, #1
 2206 030a 04E0     		b	.L80
 2207              	.L128:
 2208 030c 0120     		movs	r0, #1
 2209 030e 02E0     		b	.L80
 2210              	.LVL318:
ARM GAS  C:\Users\ABAD_S~1\AppData\Local\Temp\cckPFQC2.s 			page 53


 2211              	.L130:
 641:RC522.c       **** 		}
 2212              		.loc 1 641 0
 2213 0310 0720     		movs	r0, #7
 2214              	.LVL319:
 2215 0312 00E0     		b	.L80
 2216              	.LVL320:
 2217              	.L131:
 2218 0314 0720     		movs	r0, #7
 2219              	.LVL321:
 2220              	.L80:
 2221              	.LBE15:
 656:RC522.c       **** } // End PICC_Select()
 2222              		.loc 1 656 0
 2223 0316 0DB0     		add	sp, sp, #52
 2224              		@ sp needed
 2225              	.LVL322:
 2226 0318 3CBC     		pop	{r2, r3, r4, r5}
 2227 031a 9046     		mov	r8, r2
 2228 031c 9946     		mov	r9, r3
 2229 031e A246     		mov	r10, r4
 2230 0320 AB46     		mov	fp, r5
 2231 0322 F0BD     		pop	{r4, r5, r6, r7, pc}
 2232              		.cfi_endproc
 2233              	.LFE54:
 2234              		.size	PICC_Select, .-PICC_Select
 2235              		.section	.text.PICC_HaltA,"ax",%progbits
 2236              		.align	2
 2237              		.global	PICC_HaltA
 2238              		.code	16
 2239              		.thumb_func
 2240              		.type	PICC_HaltA, %function
 2241              	PICC_HaltA:
 2242              	.LFB55:
 657:RC522.c       **** 
 658:RC522.c       **** unsigned char PICC_HaltA(void) {
 2243              		.loc 1 658 0
 2244              		.cfi_startproc
 2245              		@ args = 0, pretend = 0, frame = 8
 2246              		@ frame_needed = 0, uses_anonymous_args = 0
 2247 0000 00B5     		push	{lr}
 2248              		.cfi_def_cfa_offset 4
 2249              		.cfi_offset 14, -4
 2250 0002 87B0     		sub	sp, sp, #28
 2251              		.cfi_def_cfa_offset 32
 659:RC522.c       **** 	unsigned char result;
 660:RC522.c       **** 	unsigned char buffer[4];
 661:RC522.c       **** 	
 662:RC522.c       **** 	// Build command buffer
 663:RC522.c       **** 	buffer[0] = PICC_CMD_HLTA;
 2252              		.loc 1 663 0
 2253 0004 05A8     		add	r0, sp, #20
 2254 0006 5023     		movs	r3, #80
 2255 0008 0370     		strb	r3, [r0]
 664:RC522.c       **** 	buffer[1] = 0;
 2256              		.loc 1 664 0
 2257 000a 0023     		movs	r3, #0
ARM GAS  C:\Users\ABAD_S~1\AppData\Local\Temp\cckPFQC2.s 			page 54


 2258 000c 4370     		strb	r3, [r0, #1]
 665:RC522.c       **** 	// Calculate CRC_A
 666:RC522.c       **** 	result = PCD_CalculateCRC(buffer, 2, &buffer[2]);
 2259              		.loc 1 666 0
 2260 000e 1622     		movs	r2, #22
 2261 0010 6A44     		add	r2, r2, sp
 2262 0012 0221     		movs	r1, #2
 2263 0014 FFF7FEFF 		bl	PCD_CalculateCRC
 2264              	.LVL323:
 667:RC522.c       **** 	if (result != STATUS_OK) {
 2265              		.loc 1 667 0
 2266 0018 0028     		cmp	r0, #0
 2267 001a 0FD1     		bne	.L134
 668:RC522.c       **** 		return result;
 669:RC522.c       **** 	}
 670:RC522.c       **** 	
 671:RC522.c       **** 	// Send the command.
 672:RC522.c       **** 	// The standard says:
 673:RC522.c       **** 	//		If the PICC responds with any modulation during a period of 1 ms after the end of the frame co
 674:RC522.c       **** 	//		HLTA command, this response shall be interpreted as 'not acknowledge'.
 675:RC522.c       **** 	// We interpret that this way: Only STATUS_TIMEOUT is a success.
 676:RC522.c       **** 	result =  PCD_TransceiveData(buffer, sizeof(buffer), NULL, 0,NULL,0,false);
 2268              		.loc 1 676 0
 2269 001c 0023     		movs	r3, #0
 2270 001e 0293     		str	r3, [sp, #8]
 2271 0020 0193     		str	r3, [sp, #4]
 2272 0022 0093     		str	r3, [sp]
 2273 0024 0022     		movs	r2, #0
 2274 0026 0421     		movs	r1, #4
 2275 0028 05A8     		add	r0, sp, #20
 2276              	.LVL324:
 2277 002a FFF7FEFF 		bl	PCD_TransceiveData
 2278              	.LVL325:
 677:RC522.c       **** 	if (result == STATUS_TIMEOUT) {
 2279              		.loc 1 677 0
 2280 002e 0328     		cmp	r0, #3
 2281 0030 03D0     		beq	.L136
 678:RC522.c       **** 		return STATUS_OK;
 679:RC522.c       **** 	}
 680:RC522.c       **** 	if (result == STATUS_OK) { // That is ironically NOT ok in this case ;-)
 2282              		.loc 1 680 0
 2283 0032 0028     		cmp	r0, #0
 2284 0034 02D1     		bne	.L134
 681:RC522.c       **** 		return STATUS_ERROR;
 2285              		.loc 1 681 0
 2286 0036 0120     		movs	r0, #1
 2287              	.LVL326:
 2288 0038 00E0     		b	.L134
 2289              	.LVL327:
 2290              	.L136:
 678:RC522.c       **** 		return STATUS_OK;
 2291              		.loc 1 678 0
 2292 003a 0020     		movs	r0, #0
 2293              	.LVL328:
 2294              	.L134:
 682:RC522.c       **** 	}
 683:RC522.c       **** 	return result;
ARM GAS  C:\Users\ABAD_S~1\AppData\Local\Temp\cckPFQC2.s 			page 55


 684:RC522.c       **** } // End PICC_HaltA()
 2295              		.loc 1 684 0
 2296 003c 07B0     		add	sp, sp, #28
 2297              		@ sp needed
 2298 003e 00BD     		pop	{pc}
 2299              		.cfi_endproc
 2300              	.LFE55:
 2301              		.size	PICC_HaltA, .-PICC_HaltA
 2302              		.section	.text.PCD_Authenticate,"ax",%progbits
 2303              		.align	2
 2304              		.global	PCD_Authenticate
 2305              		.code	16
 2306              		.thumb_func
 2307              		.type	PCD_Authenticate, %function
 2308              	PCD_Authenticate:
 2309              	.LFB56:
 685:RC522.c       **** 
 686:RC522.c       **** unsigned char PCD_Authenticate(unsigned char command,		///< PICC_CMD_MF_AUTH_KEY_A or PICC_CMD_MF_A
 687:RC522.c       **** 											unsigned char blockAddr, 	///< The block number. See numbering in the comments in the .h
 688:RC522.c       **** 											MIFARE_Key *key,	///< Pointer to the Crypteo1 key to use (6 bytes)
 689:RC522.c       **** 											Uid *uid			///< Pointer to Uid struct. The first 4 bytes of the UID is used.
 690:RC522.c       **** 											) {
 2310              		.loc 1 690 0
 2311              		.cfi_startproc
 2312              		@ args = 0, pretend = 0, frame = 16
 2313              		@ frame_needed = 0, uses_anonymous_args = 0
 2314              	.LVL329:
 2315 0000 30B5     		push	{r4, r5, lr}
 2316              		.cfi_def_cfa_offset 12
 2317              		.cfi_offset 4, -12
 2318              		.cfi_offset 5, -8
 2319              		.cfi_offset 14, -4
 2320 0002 8BB0     		sub	sp, sp, #44
 2321              		.cfi_def_cfa_offset 56
 2322              	.LVL330:
 691:RC522.c       **** 	unsigned char waitIRq = 0x10;		// IdleIRq
 692:RC522.c       **** 	
 693:RC522.c       **** 	// Build command buffer
 694:RC522.c       **** 	unsigned char sendData[12];
 695:RC522.c       **** 	sendData[0] = command;
 2323              		.loc 1 695 0
 2324 0004 07AC     		add	r4, sp, #28
 2325 0006 2070     		strb	r0, [r4]
 696:RC522.c       **** 	sendData[1] = blockAddr;
 2326              		.loc 1 696 0
 2327 0008 6170     		strb	r1, [r4, #1]
 2328              	.LVL331:
 2329              	.LBB16:
 697:RC522.c       **** 	for (unsigned char i = 0; i < 6; i++) {	// 6 key bytes
 2330              		.loc 1 697 0
 2331 000a 0021     		movs	r1, #0
 2332              	.LVL332:
 2333 000c 05E0     		b	.L139
 2334              	.LVL333:
 2335              	.L140:
 698:RC522.c       **** 		sendData[2+i] = key->keyByte[i];
 2336              		.loc 1 698 0 discriminator 3
ARM GAS  C:\Users\ABAD_S~1\AppData\Local\Temp\cckPFQC2.s 			page 56


 2337 000e 881C     		adds	r0, r1, #2
 2338 0010 555C     		ldrb	r5, [r2, r1]
 2339 0012 07AC     		add	r4, sp, #28
 2340 0014 2554     		strb	r5, [r4, r0]
 697:RC522.c       **** 	for (unsigned char i = 0; i < 6; i++) {	// 6 key bytes
 2341              		.loc 1 697 0 discriminator 3
 2342 0016 0131     		adds	r1, r1, #1
 2343              	.LVL334:
 2344 0018 C9B2     		uxtb	r1, r1
 2345              	.LVL335:
 2346              	.L139:
 697:RC522.c       **** 	for (unsigned char i = 0; i < 6; i++) {	// 6 key bytes
 2347              		.loc 1 697 0 is_stmt 0 discriminator 1
 2348 001a 0529     		cmp	r1, #5
 2349 001c F7D9     		bls	.L140
 2350 001e 0021     		movs	r1, #0
 2351              	.LVL336:
 2352 0020 0AE0     		b	.L141
 2353              	.LVL337:
 2354              	.L142:
 2355              	.LBE16:
 2356              	.LBB17:
 699:RC522.c       **** 	}
 700:RC522.c       **** 	// Use the last uid bytes as specified in http://cache.nxp.com/documents/application_note/AN10927.
 701:RC522.c       **** 	// section 3.2.5 "MIFARE Classic Authentication".
 702:RC522.c       **** 	// The only missed case is the MF1Sxxxx shortcut activation,
 703:RC522.c       **** 	// but it requires cascade tag (CT) byte, that is not part of uid.
 704:RC522.c       **** 	for (unsigned char i = 0; i < 4; i++) {				// The last 4 bytes of the UID
 705:RC522.c       **** 		sendData[8+i] = uid->uidByte[i+uid->size-4];
 2357              		.loc 1 705 0 is_stmt 1 discriminator 3
 2358 0022 0800     		movs	r0, r1
 2359 0024 0830     		adds	r0, r0, #8
 2360 0026 1A78     		ldrb	r2, [r3]
 2361 0028 5218     		adds	r2, r2, r1
 2362 002a 043A     		subs	r2, r2, #4
 2363 002c 9A18     		adds	r2, r3, r2
 2364 002e 5478     		ldrb	r4, [r2, #1]
 2365 0030 07AA     		add	r2, sp, #28
 2366 0032 1454     		strb	r4, [r2, r0]
 704:RC522.c       **** 		sendData[8+i] = uid->uidByte[i+uid->size-4];
 2367              		.loc 1 704 0 discriminator 3
 2368 0034 0131     		adds	r1, r1, #1
 2369              	.LVL338:
 2370 0036 C9B2     		uxtb	r1, r1
 2371              	.LVL339:
 2372              	.L141:
 704:RC522.c       **** 		sendData[8+i] = uid->uidByte[i+uid->size-4];
 2373              		.loc 1 704 0 is_stmt 0 discriminator 1
 2374 0038 0329     		cmp	r1, #3
 2375 003a F2D9     		bls	.L142
 2376              	.LBE17:
 706:RC522.c       **** 	}
 707:RC522.c       **** 	
 708:RC522.c       **** 	// Start the authentication.
 709:RC522.c       **** 	return PCD_CommunicateWithPICC(PCD_MFAuthent, waitIRq, &sendData[0], sizeof(sendData),NULL,NULL,NU
 2377              		.loc 1 709 0 is_stmt 1
 2378 003c 0023     		movs	r3, #0
ARM GAS  C:\Users\ABAD_S~1\AppData\Local\Temp\cckPFQC2.s 			page 57


 2379              	.LVL340:
 2380 003e 0493     		str	r3, [sp, #16]
 2381 0040 0393     		str	r3, [sp, #12]
 2382 0042 0293     		str	r3, [sp, #8]
 2383 0044 0193     		str	r3, [sp, #4]
 2384 0046 0093     		str	r3, [sp]
 2385 0048 0C33     		adds	r3, r3, #12
 2386 004a 07AA     		add	r2, sp, #28
 2387 004c 1021     		movs	r1, #16
 2388              	.LVL341:
 2389 004e 0E20     		movs	r0, #14
 2390 0050 FFF7FEFF 		bl	PCD_CommunicateWithPICC
 2391              	.LVL342:
 710:RC522.c       **** } // End PCD_Authenticate()
 2392              		.loc 1 710 0
 2393 0054 0BB0     		add	sp, sp, #44
 2394              		@ sp needed
 2395 0056 30BD     		pop	{r4, r5, pc}
 2396              		.cfi_endproc
 2397              	.LFE56:
 2398              		.size	PCD_Authenticate, .-PCD_Authenticate
 2399              		.section	.text.PCD_StopCrypto1,"ax",%progbits
 2400              		.align	2
 2401              		.global	PCD_StopCrypto1
 2402              		.code	16
 2403              		.thumb_func
 2404              		.type	PCD_StopCrypto1, %function
 2405              	PCD_StopCrypto1:
 2406              	.LFB57:
 711:RC522.c       **** 
 712:RC522.c       **** 
 713:RC522.c       **** void PCD_StopCrypto1(void) {
 2407              		.loc 1 713 0
 2408              		.cfi_startproc
 2409              		@ args = 0, pretend = 0, frame = 0
 2410              		@ frame_needed = 0, uses_anonymous_args = 0
 2411 0000 10B5     		push	{r4, lr}
 2412              		.cfi_def_cfa_offset 8
 2413              		.cfi_offset 4, -8
 2414              		.cfi_offset 14, -4
 714:RC522.c       **** 	// Clear MFCrypto1On bit
 715:RC522.c       **** 	PCD_ClearRegisterBitMask(Status2Reg, 0x08); // Status2Reg[7..0] bits are: TempSensClear I2CForceHS
 2415              		.loc 1 715 0
 2416 0002 0821     		movs	r1, #8
 2417 0004 0820     		movs	r0, #8
 2418 0006 FFF7FEFF 		bl	PCD_ClearRegisterBitMask
 2419              	.LVL343:
 716:RC522.c       **** } // End PCD_StopCrypto1()
 2420              		.loc 1 716 0
 2421              		@ sp needed
 2422 000a 10BD     		pop	{r4, pc}
 2423              		.cfi_endproc
 2424              	.LFE57:
 2425              		.size	PCD_StopCrypto1, .-PCD_StopCrypto1
 2426              		.section	.text.MIFARE_Read,"ax",%progbits
 2427              		.align	2
 2428              		.global	MIFARE_Read
ARM GAS  C:\Users\ABAD_S~1\AppData\Local\Temp\cckPFQC2.s 			page 58


 2429              		.code	16
 2430              		.thumb_func
 2431              		.type	MIFARE_Read, %function
 2432              	MIFARE_Read:
 2433              	.LFB58:
 717:RC522.c       **** 
 718:RC522.c       **** 
 719:RC522.c       **** unsigned char MIFARE_Read(	unsigned char blockAddr, 	///< MIFARE Classic: The block (0-0xff) number
 720:RC522.c       **** 							unsigned char *buffer,		///< The buffer to store the data in
 721:RC522.c       ****                             unsigned char *bufferSize	///< Buffer size, at least 18 bytes. Also num
 722:RC522.c       **** 										) {
 2434              		.loc 1 722 0
 2435              		.cfi_startproc
 2436              		@ args = 0, pretend = 0, frame = 0
 2437              		@ frame_needed = 0, uses_anonymous_args = 0
 2438              	.LVL344:
 2439 0000 30B5     		push	{r4, r5, lr}
 2440              		.cfi_def_cfa_offset 12
 2441              		.cfi_offset 4, -12
 2442              		.cfi_offset 5, -8
 2443              		.cfi_offset 14, -4
 2444 0002 85B0     		sub	sp, sp, #20
 2445              		.cfi_def_cfa_offset 32
 2446 0004 0C00     		movs	r4, r1
 2447 0006 1500     		movs	r5, r2
 723:RC522.c       **** 	unsigned char result;
 724:RC522.c       **** 	
 725:RC522.c       **** 	// Sanity check
 726:RC522.c       **** 	if (buffer == NULL || *bufferSize < 18) {
 2448              		.loc 1 726 0
 2449 0008 0029     		cmp	r1, #0
 2450 000a 18D0     		beq	.L146
 2451              		.loc 1 726 0 is_stmt 0 discriminator 1
 2452 000c 1378     		ldrb	r3, [r2]
 2453 000e 112B     		cmp	r3, #17
 2454 0010 17D9     		bls	.L147
 727:RC522.c       **** 		return STATUS_NO_ROOM;
 728:RC522.c       **** 	}
 729:RC522.c       **** 	
 730:RC522.c       **** 	// Build command buffer
 731:RC522.c       **** 	buffer[0] = PICC_CMD_MF_READ;
 2455              		.loc 1 731 0 is_stmt 1
 2456 0012 3023     		movs	r3, #48
 2457 0014 0B70     		strb	r3, [r1]
 732:RC522.c       **** 	buffer[1] = blockAddr;
 2458              		.loc 1 732 0
 2459 0016 4870     		strb	r0, [r1, #1]
 733:RC522.c       **** 	// Calculate CRC_A
 734:RC522.c       **** 	result = PCD_CalculateCRC(buffer, 2, &buffer[2]);
 2460              		.loc 1 734 0
 2461 0018 8A1C     		adds	r2, r1, #2
 2462              	.LVL345:
 2463 001a 0221     		movs	r1, #2
 2464              	.LVL346:
 2465 001c 2000     		movs	r0, r4
 2466              	.LVL347:
 2467 001e FFF7FEFF 		bl	PCD_CalculateCRC
ARM GAS  C:\Users\ABAD_S~1\AppData\Local\Temp\cckPFQC2.s 			page 59


 2468              	.LVL348:
 735:RC522.c       **** 	if (result != STATUS_OK) {
 2469              		.loc 1 735 0
 2470 0022 0028     		cmp	r0, #0
 2471 0024 0ED1     		bne	.L145
 736:RC522.c       **** 		return result;
 737:RC522.c       **** 	}
 738:RC522.c       **** 	
 739:RC522.c       **** 	// Transmit the buffer and receive the response, validate CRC_A.
 740:RC522.c       **** 	return PCD_TransceiveData(buffer, 4, buffer, bufferSize, NULL, 0, true);
 2472              		.loc 1 740 0
 2473 0026 0123     		movs	r3, #1
 2474 0028 0293     		str	r3, [sp, #8]
 2475 002a 0023     		movs	r3, #0
 2476 002c 0193     		str	r3, [sp, #4]
 2477 002e 0093     		str	r3, [sp]
 2478 0030 2B00     		movs	r3, r5
 2479 0032 2200     		movs	r2, r4
 2480 0034 0421     		movs	r1, #4
 2481 0036 2000     		movs	r0, r4
 2482              	.LVL349:
 2483 0038 FFF7FEFF 		bl	PCD_TransceiveData
 2484              	.LVL350:
 2485 003c 02E0     		b	.L145
 2486              	.LVL351:
 2487              	.L146:
 727:RC522.c       **** 	}
 2488              		.loc 1 727 0
 2489 003e 0420     		movs	r0, #4
 2490              	.LVL352:
 2491 0040 00E0     		b	.L145
 2492              	.LVL353:
 2493              	.L147:
 2494 0042 0420     		movs	r0, #4
 2495              	.LVL354:
 2496              	.L145:
 741:RC522.c       **** } // End MIFARE_Read()
 2497              		.loc 1 741 0
 2498 0044 05B0     		add	sp, sp, #20
 2499              		@ sp needed
 2500              	.LVL355:
 2501              	.LVL356:
 2502 0046 30BD     		pop	{r4, r5, pc}
 2503              		.cfi_endproc
 2504              	.LFE58:
 2505              		.size	MIFARE_Read, .-MIFARE_Read
 2506              		.section	.text.MIFARE_GetValue,"ax",%progbits
 2507              		.align	2
 2508              		.global	MIFARE_GetValue
 2509              		.code	16
 2510              		.thumb_func
 2511              		.type	MIFARE_GetValue, %function
 2512              	MIFARE_GetValue:
 2513              	.LFB66:
 742:RC522.c       **** 
 743:RC522.c       **** 
 744:RC522.c       **** unsigned char MIFARE_Write(	unsigned char blockAddr, ///< MIFARE Classic: The block (0-0xff) number
ARM GAS  C:\Users\ABAD_S~1\AppData\Local\Temp\cckPFQC2.s 			page 60


 745:RC522.c       **** 							unsigned char *buffer,	///< The 16 bytes to write to the PICC
 746:RC522.c       **** 							unsigned char bufferSize	///< Buffer size, must be at least 16 bytes. Exactly 16 bytes are w
 747:RC522.c       **** 										) {
 748:RC522.c       **** 	unsigned char result;
 749:RC522.c       **** 	
 750:RC522.c       **** 	// Sanity check
 751:RC522.c       **** 	if (buffer == NULL || bufferSize < 16) {
 752:RC522.c       **** 		return STATUS_INVALID;
 753:RC522.c       **** }
 754:RC522.c       ****     
 755:RC522.c       ****     
 756:RC522.c       **** // Mifare Classic protocol requires two communications to perform a write.
 757:RC522.c       **** 	// Step 1: Tell the PICC we want to write to block blockAddr.
 758:RC522.c       **** 	unsigned char cmdBuffer[2];
 759:RC522.c       **** 	cmdBuffer[0] = PICC_CMD_MF_WRITE;
 760:RC522.c       **** 	cmdBuffer[1] = blockAddr;
 761:RC522.c       **** 	result = PCD_MIFARE_Transceive(cmdBuffer, 2,false); // Adds CRC_A and checks that the response is 
 762:RC522.c       **** 	if (result != STATUS_OK) {
 763:RC522.c       **** 		return result;
 764:RC522.c       **** 	}
 765:RC522.c       **** 	
 766:RC522.c       **** 	// Step 2: Transfer the data
 767:RC522.c       **** 	result = PCD_MIFARE_Transceive(buffer, bufferSize,false); // Adds CRC_A and checks that the respon
 768:RC522.c       **** 	if (result != STATUS_OK) {
 769:RC522.c       **** 		return result;
 770:RC522.c       **** 	}
 771:RC522.c       **** 	
 772:RC522.c       **** 	return STATUS_OK;
 773:RC522.c       **** } // End MIFARE_Write()
 774:RC522.c       **** 
 775:RC522.c       **** 
 776:RC522.c       **** unsigned char MIFARE_Ultralight_Write(	unsigned char page, 		///< The page (2-15) to write to.
 777:RC522.c       **** 										unsigned char *buffer,	///< The 4 bytes to write to the PICC
 778:RC522.c       **** 										unsigned char bufferSize	///< Buffer size, must be at least 4 bytes. Exactly 4 bytes are 
 779:RC522.c       **** 													) {
 780:RC522.c       **** 	unsigned char result;
 781:RC522.c       **** 	
 782:RC522.c       **** 	// Sanity check
 783:RC522.c       **** 	if (buffer == NULL || bufferSize < 4) {
 784:RC522.c       **** 		return STATUS_INVALID;
 785:RC522.c       **** 	}
 786:RC522.c       **** 	
 787:RC522.c       **** 	// Build commmand buffer
 788:RC522.c       **** 	unsigned char cmdBuffer[6];
 789:RC522.c       **** 	cmdBuffer[0] = PICC_CMD_UL_WRITE;
 790:RC522.c       **** 	cmdBuffer[1] = page;
 791:RC522.c       **** 	memcpy(&cmdBuffer[2], buffer, 4);
 792:RC522.c       **** 	
 793:RC522.c       **** 	// Perform the write
 794:RC522.c       **** 	result = PCD_MIFARE_Transceive(cmdBuffer, 6,false); // Adds CRC_A and checks that the response is 
 795:RC522.c       **** 	if (result != STATUS_OK) {
 796:RC522.c       **** 		return result;
 797:RC522.c       **** 	}
 798:RC522.c       **** 	return STATUS_OK;
 799:RC522.c       **** } // End MIFARE_Ultralight_Write()
 800:RC522.c       **** 
 801:RC522.c       **** unsigned char MIFARE_Decrement(	unsigned char blockAddr, ///< The block (0-0xff) number.
ARM GAS  C:\Users\ABAD_S~1\AppData\Local\Temp\cckPFQC2.s 			page 61


 802:RC522.c       **** 								uint32_t delta		///< This number is subtracted from the value of block blockAddr.
 803:RC522.c       **** 											) {
 804:RC522.c       **** 	return MIFARE_TwoStepHelper(PICC_CMD_MF_DECREMENT, blockAddr, delta);
 805:RC522.c       **** }
 806:RC522.c       **** 
 807:RC522.c       **** unsigned char MIFARE_Increment(	unsigned char blockAddr, ///< The block (0-0xff) number.
 808:RC522.c       **** 								uint32_t delta		///< This number is added to the value of block blockAddr.
 809:RC522.c       **** 											) {
 810:RC522.c       **** 	return MIFARE_TwoStepHelper(PICC_CMD_MF_INCREMENT, blockAddr, delta);
 811:RC522.c       **** } // End MIFARE_Increment()
 812:RC522.c       **** 
 813:RC522.c       **** 
 814:RC522.c       **** unsigned char  MIFARE_Restore(	unsigned char  blockAddr ///< The block (0-0xff) number.
 815:RC522.c       **** ) {
 816:RC522.c       **** 	// The datasheet describes Restore as a two step operation, but does not explain what data to tran
 817:RC522.c       **** 	// Doing only a single step does not work, so I chose to transfer 0L in step two.
 818:RC522.c       **** 	return MIFARE_TwoStepHelper(PICC_CMD_MF_RESTORE, blockAddr, 0L);
 819:RC522.c       **** } // End MIFARE_Restore()
 820:RC522.c       **** 
 821:RC522.c       **** 
 822:RC522.c       **** unsigned char MIFARE_TwoStepHelper(	unsigned char command,	///< The command to use
 823:RC522.c       **** 									unsigned char blockAddr,	///< The block (0-0xff) number.
 824:RC522.c       **** 									uint32_t data		///< The data to transfer in step 2
 825:RC522.c       **** 													) {
 826:RC522.c       **** 	unsigned char result;
 827:RC522.c       **** 	unsigned char cmdBuffer[2]; // We only need room for 2 bytes.
 828:RC522.c       **** 	
 829:RC522.c       **** 	// Step 1: Tell the PICC the command and block address
 830:RC522.c       **** 	cmdBuffer[0] = command;
 831:RC522.c       **** 	cmdBuffer[1] = blockAddr;
 832:RC522.c       **** 	result = PCD_MIFARE_Transceive(	cmdBuffer, 2, false); // Adds CRC_A and checks that the response i
 833:RC522.c       **** 	if (result != STATUS_OK) {
 834:RC522.c       **** 		return result;
 835:RC522.c       **** 	}
 836:RC522.c       **** 	// Step 2: Transfer the data
 837:RC522.c       **** 	result = PCD_MIFARE_Transceive(	(unsigned char *)&data, 4, true); // Adds CRC_A and accept timeout
 838:RC522.c       **** 	if (result != STATUS_OK) {
 839:RC522.c       **** 		return result;
 840:RC522.c       **** 	}
 841:RC522.c       **** 	
 842:RC522.c       **** 	return STATUS_OK;
 843:RC522.c       **** } // End MIFARE_TwoStepHelper()
 844:RC522.c       **** 
 845:RC522.c       **** 
 846:RC522.c       **** unsigned char MIFARE_Transfer(	unsigned char blockAddr ///< The block (0-0xff) number.
 847:RC522.c       **** 											) {
 848:RC522.c       **** 	unsigned char result;
 849:RC522.c       **** 	unsigned char cmdBuffer[2]; // We only need room for 2 bytes.
 850:RC522.c       **** 	
 851:RC522.c       **** 	// Tell the PICC we want to transfer the result into block blockAddr.
 852:RC522.c       **** 	cmdBuffer[0] = PICC_CMD_MF_TRANSFER;
 853:RC522.c       **** 	cmdBuffer[1] = blockAddr;
 854:RC522.c       **** 	result = PCD_MIFARE_Transceive(	cmdBuffer, 2, false); // Adds CRC_A and checks that the response i
 855:RC522.c       **** 	if (result != STATUS_OK) {
 856:RC522.c       **** 		return result;
 857:RC522.c       **** 	}
 858:RC522.c       **** 	return STATUS_OK;
ARM GAS  C:\Users\ABAD_S~1\AppData\Local\Temp\cckPFQC2.s 			page 62


 859:RC522.c       **** } // End MIFARE_Transfer()
 860:RC522.c       **** 
 861:RC522.c       **** unsigned char MIFARE_GetValue(unsigned char blockAddr, uint32_t *value) {
 2514              		.loc 1 861 0
 2515              		.cfi_startproc
 2516              		@ args = 0, pretend = 0, frame = 24
 2517              		@ frame_needed = 0, uses_anonymous_args = 0
 2518              	.LVL357:
 2519 0000 10B5     		push	{r4, lr}
 2520              		.cfi_def_cfa_offset 8
 2521              		.cfi_offset 4, -8
 2522              		.cfi_offset 14, -4
 2523 0002 86B0     		sub	sp, sp, #24
 2524              		.cfi_def_cfa_offset 32
 2525 0004 0C00     		movs	r4, r1
 862:RC522.c       **** 	unsigned char status;
 863:RC522.c       **** 	unsigned char buffer[18];
 864:RC522.c       **** 	unsigned char size = sizeof(buffer);
 2526              		.loc 1 864 0
 2527 0006 6B46     		mov	r3, sp
 2528 0008 DA1C     		adds	r2, r3, #3
 2529 000a 1223     		movs	r3, #18
 2530 000c 1370     		strb	r3, [r2]
 865:RC522.c       **** 	
 866:RC522.c       **** 	// Read the block
 867:RC522.c       **** 	status = MIFARE_Read(blockAddr, buffer, &size);
 2531              		.loc 1 867 0
 2532 000e 01A9     		add	r1, sp, #4
 2533              	.LVL358:
 2534 0010 FFF7FEFF 		bl	MIFARE_Read
 2535              	.LVL359:
 868:RC522.c       **** 	if (status == STATUS_OK) {
 2536              		.loc 1 868 0
 2537 0014 0028     		cmp	r0, #0
 2538 0016 0BD1     		bne	.L150
 2539              	.LBB18:
 869:RC522.c       **** 		// Extract the value
 870:RC522.c       ****         uint32_t aux;
 871:RC522.c       ****         aux=(uint32_t)(buffer[3]<<8);
 2540              		.loc 1 871 0
 2541 0018 01AA     		add	r2, sp, #4
 2542 001a D378     		ldrb	r3, [r2, #3]
 2543 001c 1B02     		lsls	r3, r3, #8
 2544              	.LVL360:
 872:RC522.c       ****         aux= (uint32_t)((buffer[2]|aux)<<8);
 2545              		.loc 1 872 0
 2546 001e 9178     		ldrb	r1, [r2, #2]
 2547 0020 0B43     		orrs	r3, r1
 2548              	.LVL361:
 2549 0022 1B02     		lsls	r3, r3, #8
 2550              	.LVL362:
 873:RC522.c       ****         aux= (uint32_t)((buffer[1]|aux)<<8);
 2551              		.loc 1 873 0
 2552 0024 5178     		ldrb	r1, [r2, #1]
 2553 0026 0B43     		orrs	r3, r1
 2554              	.LVL363:
 2555 0028 1B02     		lsls	r3, r3, #8
ARM GAS  C:\Users\ABAD_S~1\AppData\Local\Temp\cckPFQC2.s 			page 63


 2556              	.LVL364:
 874:RC522.c       **** 		*value = aux | buffer[0];
 2557              		.loc 1 874 0
 2558 002a 1278     		ldrb	r2, [r2]
 2559 002c 1343     		orrs	r3, r2
 2560              	.LVL365:
 2561 002e 2360     		str	r3, [r4]
 2562              	.LVL366:
 2563              	.L150:
 2564              	.LBE18:
 875:RC522.c       **** 	}
 876:RC522.c       **** 	return status;
 877:RC522.c       **** } // End MIFARE_GetValue()
 2565              		.loc 1 877 0
 2566 0030 06B0     		add	sp, sp, #24
 2567              		@ sp needed
 2568              	.LVL367:
 2569 0032 10BD     		pop	{r4, pc}
 2570              		.cfi_endproc
 2571              	.LFE66:
 2572              		.size	MIFARE_GetValue, .-MIFARE_GetValue
 2573              		.section	.text.PCD_NTAG216_AUTH,"ax",%progbits
 2574              		.align	2
 2575              		.global	PCD_NTAG216_AUTH
 2576              		.code	16
 2577              		.thumb_func
 2578              		.type	PCD_NTAG216_AUTH, %function
 2579              	PCD_NTAG216_AUTH:
 2580              	.LFB68:
 878:RC522.c       **** 
 879:RC522.c       **** 
 880:RC522.c       **** unsigned char MIFARE_SetValue(unsigned char blockAddr, uint32_t value) {
 881:RC522.c       **** 	unsigned char buffer[18];
 882:RC522.c       **** 	// Translate the unsigned long into 4 bytes; repeated 2x in value block
 883:RC522.c       **** 	buffer[0] = buffer[ 8] = (value & 0xFF);
 884:RC522.c       **** 	buffer[1] = buffer[ 9] = (value & 0xFF00) >> 8;
 885:RC522.c       **** 	buffer[2] = buffer[10] = (value & 0xFF0000) >> 16;
 886:RC522.c       **** 	buffer[3] = buffer[11] = (value & 0xFF000000) >> 24;
 887:RC522.c       **** 	// Inverse 4 bytes also found in value block
 888:RC522.c       **** 	buffer[4] = ~buffer[0];
 889:RC522.c       **** 	buffer[5] = ~buffer[1];
 890:RC522.c       **** 	buffer[6] = ~buffer[2];
 891:RC522.c       **** 	buffer[7] = ~buffer[3];
 892:RC522.c       **** 	// Address 2x with inverse address 2x
 893:RC522.c       **** 	buffer[12] = buffer[14] = blockAddr;
 894:RC522.c       **** 	buffer[13] = buffer[15] = ~blockAddr;
 895:RC522.c       **** 	
 896:RC522.c       **** 	// Write the whole data block
 897:RC522.c       **** 	return MIFARE_Write(blockAddr, buffer, 16);
 898:RC522.c       **** } // End MIFARE_SetValue()
 899:RC522.c       **** 
 900:RC522.c       **** unsigned char PCD_NTAG216_AUTH(unsigned char *passWord, unsigned char pACK[]) //Authenticate with 3
 901:RC522.c       **** {
 2581              		.loc 1 901 0
 2582              		.cfi_startproc
 2583              		@ args = 0, pretend = 0, frame = 24
 2584              		@ frame_needed = 0, uses_anonymous_args = 0
ARM GAS  C:\Users\ABAD_S~1\AppData\Local\Temp\cckPFQC2.s 			page 64


 2585              	.LVL368:
 2586 0000 30B5     		push	{r4, r5, lr}
 2587              		.cfi_def_cfa_offset 12
 2588              		.cfi_offset 4, -12
 2589              		.cfi_offset 5, -8
 2590              		.cfi_offset 14, -4
 2591 0002 8DB0     		sub	sp, sp, #52
 2592              		.cfi_def_cfa_offset 64
 2593 0004 0C00     		movs	r4, r1
 902:RC522.c       **** 	// TODO: Fix cmdBuffer length and rxlength. They really should match.
 903:RC522.c       **** 	//       (Better still, rxlength should not even be necessary.)
 904:RC522.c       **** 
 905:RC522.c       **** 	unsigned char  result;
 906:RC522.c       **** 	unsigned char cmdBuffer[18]; // We need room for 16 bytes data and 2 bytes CRC_A.
 907:RC522.c       **** 	
 908:RC522.c       **** 	cmdBuffer[0] = 0x1B; //Comando de autentificacion
 2594              		.loc 1 908 0
 2595 0006 1B22     		movs	r2, #27
 2596 0008 07AB     		add	r3, sp, #28
 2597 000a 1A70     		strb	r2, [r3]
 2598              	.LVL369:
 2599              	.LBB19:
 909:RC522.c       **** 	
 910:RC522.c       **** 	for (unsigned char i = 0; i<4; i++)
 2600              		.loc 1 910 0
 2601 000c 0023     		movs	r3, #0
 2602 000e 04E0     		b	.L152
 2603              	.LVL370:
 2604              	.L153:
 911:RC522.c       **** 		cmdBuffer[i+1] = passWord[i];
 2605              		.loc 1 911 0 discriminator 3
 2606 0010 5A1C     		adds	r2, r3, #1
 2607 0012 C15C     		ldrb	r1, [r0, r3]
 2608 0014 07AB     		add	r3, sp, #28
 2609              	.LVL371:
 2610 0016 9954     		strb	r1, [r3, r2]
 910:RC522.c       **** 		cmdBuffer[i+1] = passWord[i];
 2611              		.loc 1 910 0 discriminator 3
 2612 0018 D3B2     		uxtb	r3, r2
 2613              	.LVL372:
 2614              	.L152:
 910:RC522.c       **** 		cmdBuffer[i+1] = passWord[i];
 2615              		.loc 1 910 0 is_stmt 0 discriminator 1
 2616 001a 032B     		cmp	r3, #3
 2617 001c F8D9     		bls	.L153
 2618              	.LBE19:
 912:RC522.c       **** 	
 913:RC522.c       **** 	result = PCD_CalculateCRC(cmdBuffer, 5, &cmdBuffer[5]);
 2619              		.loc 1 913 0 is_stmt 1
 2620 001e 2122     		movs	r2, #33
 2621 0020 6A44     		add	r2, r2, sp
 2622 0022 0521     		movs	r1, #5
 2623 0024 07A8     		add	r0, sp, #28
 2624              	.LVL373:
 2625 0026 FFF7FEFF 		bl	PCD_CalculateCRC
 2626              	.LVL374:
 914:RC522.c       **** 	
ARM GAS  C:\Users\ABAD_S~1\AppData\Local\Temp\cckPFQC2.s 			page 65


 915:RC522.c       **** 	if (result!=STATUS_OK) {
 2627              		.loc 1 915 0
 2628 002a 0028     		cmp	r0, #0
 2629 002c 17D1     		bne	.L154
 2630              	.LVL375:
 916:RC522.c       **** 		return result;
 917:RC522.c       **** 	}
 918:RC522.c       **** 	// Transceive the data, store the reply in cmdBuffer[]
 919:RC522.c       **** 	unsigned char waitIRq		= 0x30;	// RxIRq and IdleIRq
 920:RC522.c       **** //	unsigned char cmdBufferSize	= sizeof(cmdBuffer);
 921:RC522.c       **** 	unsigned char validBits		= 0;
 2631              		.loc 1 921 0
 2632 002e 1B21     		movs	r1, #27
 2633 0030 6944     		add	r1, r1, sp
 2634 0032 0023     		movs	r3, #0
 2635 0034 0B70     		strb	r3, [r1]
 922:RC522.c       **** 	unsigned char rxlength		= 5;
 2636              		.loc 1 922 0
 2637 0036 1A22     		movs	r2, #26
 2638 0038 6A44     		add	r2, r2, sp
 2639 003a 0530     		adds	r0, r0, #5
 2640              	.LVL376:
 2641 003c 1070     		strb	r0, [r2]
 923:RC522.c       **** 	result = PCD_CommunicateWithPICC(PCD_Transceive, waitIRq, cmdBuffer, 7, cmdBuffer, &rxlength, &val
 2642              		.loc 1 923 0
 2643 003e 07AD     		add	r5, sp, #28
 2644 0040 0493     		str	r3, [sp, #16]
 2645 0042 0393     		str	r3, [sp, #12]
 2646 0044 0291     		str	r1, [sp, #8]
 2647 0046 0192     		str	r2, [sp, #4]
 2648 0048 0095     		str	r5, [sp]
 2649 004a 0733     		adds	r3, r3, #7
 2650 004c 2A00     		movs	r2, r5
 2651 004e 3021     		movs	r1, #48
 2652 0050 0730     		adds	r0, r0, #7
 2653 0052 FFF7FEFF 		bl	PCD_CommunicateWithPICC
 2654              	.LVL377:
 924:RC522.c       **** 	
 925:RC522.c       **** 	pACK[0] = cmdBuffer[0];
 2655              		.loc 1 925 0
 2656 0056 2B78     		ldrb	r3, [r5]
 2657 0058 2370     		strb	r3, [r4]
 926:RC522.c       **** 	pACK[1] = cmdBuffer[1];
 2658              		.loc 1 926 0
 2659 005a 6B78     		ldrb	r3, [r5, #1]
 2660 005c 6370     		strb	r3, [r4, #1]
 2661              	.LVL378:
 2662              	.L154:
 927:RC522.c       **** 	
 928:RC522.c       **** 	if (result!=STATUS_OK) {
 929:RC522.c       **** 		return result;
 930:RC522.c       **** 	}
 931:RC522.c       **** 	
 932:RC522.c       **** 	return STATUS_OK;
 933:RC522.c       **** } // End PCD_NTAG216_AUTH()
 2663              		.loc 1 933 0
 2664 005e 0DB0     		add	sp, sp, #52
ARM GAS  C:\Users\ABAD_S~1\AppData\Local\Temp\cckPFQC2.s 			page 66


 2665              		@ sp needed
 2666              	.LVL379:
 2667 0060 30BD     		pop	{r4, r5, pc}
 2668              		.cfi_endproc
 2669              	.LFE68:
 2670              		.size	PCD_NTAG216_AUTH, .-PCD_NTAG216_AUTH
 2671 0062 C046     		.section	.text.PCD_MIFARE_Transceive,"ax",%progbits
 2672              		.align	2
 2673              		.global	PCD_MIFARE_Transceive
 2674              		.code	16
 2675              		.thumb_func
 2676              		.type	PCD_MIFARE_Transceive, %function
 2677              	PCD_MIFARE_Transceive:
 2678              	.LFB69:
 934:RC522.c       **** 
 935:RC522.c       **** unsigned char PCD_MIFARE_Transceive(	unsigned char *sendData,		///< Pointer to the data to transfer
 936:RC522.c       **** 										unsigned char sendLen,		///< Number of bytes in sendData.
 937:RC522.c       **** 										bool acceptTimeout	///< True => A timeout is also success
 938:RC522.c       **** 												) {
 2679              		.loc 1 938 0
 2680              		.cfi_startproc
 2681              		@ args = 0, pretend = 0, frame = 24
 2682              		@ frame_needed = 0, uses_anonymous_args = 0
 2683              	.LVL380:
 2684 0000 30B5     		push	{r4, r5, lr}
 2685              		.cfi_def_cfa_offset 12
 2686              		.cfi_offset 4, -12
 2687              		.cfi_offset 5, -8
 2688              		.cfi_offset 14, -4
 2689 0002 8DB0     		sub	sp, sp, #52
 2690              		.cfi_def_cfa_offset 64
 2691 0004 0C00     		movs	r4, r1
 2692 0006 1500     		movs	r5, r2
 939:RC522.c       **** 	unsigned char result;
 940:RC522.c       **** 	unsigned char cmdBuffer[18]; // We need room for 16 bytes data and 2 bytes CRC_A.
 941:RC522.c       **** 	
 942:RC522.c       **** 	// Sanity check
 943:RC522.c       **** 	if (sendData == NULL || sendLen > 16) {
 2693              		.loc 1 943 0
 2694 0008 0028     		cmp	r0, #0
 2695 000a 39D0     		beq	.L160
 2696              		.loc 1 943 0 is_stmt 0 discriminator 1
 2697 000c 1029     		cmp	r1, #16
 2698 000e 39D8     		bhi	.L161
 944:RC522.c       **** 		return STATUS_INVALID;
 945:RC522.c       **** 	}
 946:RC522.c       **** 	
 947:RC522.c       **** 	// Copy sendData[] to cmdBuffer[] and add CRC_A
 948:RC522.c       **** 	memcpy(cmdBuffer, sendData, sendLen);
 2699              		.loc 1 948 0 is_stmt 1
 2700 0010 0A00     		movs	r2, r1
 2701              	.LVL381:
 2702 0012 0100     		movs	r1, r0
 2703              	.LVL382:
 2704 0014 07A8     		add	r0, sp, #28
 2705              	.LVL383:
 2706 0016 FFF7FEFF 		bl	memcpy
ARM GAS  C:\Users\ABAD_S~1\AppData\Local\Temp\cckPFQC2.s 			page 67


 2707              	.LVL384:
 949:RC522.c       **** 	result = PCD_CalculateCRC(cmdBuffer, sendLen, &cmdBuffer[sendLen]);
 2708              		.loc 1 949 0
 2709 001a 07AB     		add	r3, sp, #28
 2710 001c 1A19     		adds	r2, r3, r4
 2711 001e 2100     		movs	r1, r4
 2712 0020 1800     		movs	r0, r3
 2713 0022 FFF7FEFF 		bl	PCD_CalculateCRC
 2714              	.LVL385:
 950:RC522.c       **** 	if (result != STATUS_OK) { 
 2715              		.loc 1 950 0
 2716 0026 0028     		cmp	r0, #0
 2717 0028 33D1     		bne	.L158
 951:RC522.c       **** 		return result;
 952:RC522.c       **** 	}
 953:RC522.c       **** 	sendLen += 2;
 2718              		.loc 1 953 0
 2719 002a 0234     		adds	r4, r4, #2
 2720 002c E3B2     		uxtb	r3, r4
 2721              	.LVL386:
 954:RC522.c       **** 	
 955:RC522.c       **** 	// Transceive the data, store the reply in cmdBuffer[]
 956:RC522.c       **** 	unsigned char waitIRq = 0x30;		// RxIRq and IdleIRq
 957:RC522.c       **** 	unsigned char cmdBufferSize = sizeof(cmdBuffer);
 2722              		.loc 1 957 0
 2723 002e 1B30     		adds	r0, r0, #27
 2724              	.LVL387:
 2725 0030 6844     		add	r0, r0, sp
 2726 0032 1222     		movs	r2, #18
 2727 0034 0270     		strb	r2, [r0]
 958:RC522.c       **** 	unsigned char validBits = 0;
 2728              		.loc 1 958 0
 2729 0036 1A24     		movs	r4, #26
 2730 0038 6C44     		add	r4, r4, sp
 2731 003a 0021     		movs	r1, #0
 2732 003c 2170     		strb	r1, [r4]
 959:RC522.c       **** 	result = PCD_CommunicateWithPICC(PCD_Transceive, waitIRq, cmdBuffer, sendLen, cmdBuffer, &cmdBuffe
 2733              		.loc 1 959 0
 2734 003e 07AA     		add	r2, sp, #28
 2735 0040 0491     		str	r1, [sp, #16]
 2736 0042 0391     		str	r1, [sp, #12]
 2737 0044 0294     		str	r4, [sp, #8]
 2738 0046 0190     		str	r0, [sp, #4]
 2739 0048 0092     		str	r2, [sp]
 2740 004a 3031     		adds	r1, r1, #48
 2741 004c 0C20     		movs	r0, #12
 2742 004e FFF7FEFF 		bl	PCD_CommunicateWithPICC
 2743              	.LVL388:
 2744 0052 0300     		movs	r3, r0
 2745              	.LVL389:
 960:RC522.c       **** 	if (acceptTimeout && result == STATUS_TIMEOUT) {
 2746              		.loc 1 960 0
 2747 0054 002D     		cmp	r5, #0
 2748 0056 01D0     		beq	.L159
 2749              		.loc 1 960 0 is_stmt 0 discriminator 1
 2750 0058 0328     		cmp	r0, #3
 2751 005a 15D0     		beq	.L163
ARM GAS  C:\Users\ABAD_S~1\AppData\Local\Temp\cckPFQC2.s 			page 68


 2752              	.L159:
 961:RC522.c       **** 		return STATUS_OK;
 962:RC522.c       **** 	}
 963:RC522.c       **** 	if (result != STATUS_OK) {
 2753              		.loc 1 963 0 is_stmt 1
 2754 005c 002B     		cmp	r3, #0
 2755 005e 18D1     		bne	.L158
 964:RC522.c       **** 		return result;
 965:RC522.c       **** 	}
 966:RC522.c       **** 	// The PICC must reply with a 4 bit ACK
 967:RC522.c       **** 	if (cmdBufferSize != 1 || validBits != 4) {
 2756              		.loc 1 967 0
 2757 0060 1B33     		adds	r3, r3, #27
 2758 0062 6B44     		add	r3, r3, sp
 2759 0064 1878     		ldrb	r0, [r3]
 2760              	.LVL390:
 2761 0066 0128     		cmp	r0, #1
 2762 0068 10D1     		bne	.L165
 2763              		.loc 1 967 0 is_stmt 0 discriminator 1
 2764 006a 1A23     		movs	r3, #26
 2765 006c 6B44     		add	r3, r3, sp
 2766 006e 1B78     		ldrb	r3, [r3]
 2767 0070 042B     		cmp	r3, #4
 2768 0072 0ED1     		bne	.L158
 968:RC522.c       **** 		return STATUS_ERROR;
 969:RC522.c       **** 	}
 970:RC522.c       **** 	if (cmdBuffer[0] != 0xA) { //MI_ACK
 2769              		.loc 1 970 0 is_stmt 1
 2770 0074 07AB     		add	r3, sp, #28
 2771 0076 1B78     		ldrb	r3, [r3]
 2772 0078 0A2B     		cmp	r3, #10
 2773 007a 09D0     		beq	.L166
 971:RC522.c       **** 		return STATUS_MIFARE_NACK;
 2774              		.loc 1 971 0
 2775 007c FE30     		adds	r0, r0, #254
 2776 007e 08E0     		b	.L158
 2777              	.LVL391:
 2778              	.L160:
 944:RC522.c       **** 	}
 2779              		.loc 1 944 0
 2780 0080 0620     		movs	r0, #6
 2781              	.LVL392:
 2782 0082 06E0     		b	.L158
 2783              	.LVL393:
 2784              	.L161:
 2785 0084 0620     		movs	r0, #6
 2786              	.LVL394:
 2787 0086 04E0     		b	.L158
 2788              	.LVL395:
 2789              	.L163:
 961:RC522.c       **** 	}
 2790              		.loc 1 961 0
 2791 0088 0020     		movs	r0, #0
 2792              	.LVL396:
 2793 008a 02E0     		b	.L158
 2794              	.L165:
 968:RC522.c       **** 	}
ARM GAS  C:\Users\ABAD_S~1\AppData\Local\Temp\cckPFQC2.s 			page 69


 2795              		.loc 1 968 0
 2796 008c 0120     		movs	r0, #1
 2797 008e 00E0     		b	.L158
 2798              	.L166:
 972:RC522.c       **** 	}
 973:RC522.c       **** 	return STATUS_OK;
 2799              		.loc 1 973 0
 2800 0090 0020     		movs	r0, #0
 2801              	.LVL397:
 2802              	.L158:
 974:RC522.c       **** } // End PCD_MIFARE_Transceive()
 2803              		.loc 1 974 0
 2804 0092 0DB0     		add	sp, sp, #52
 2805              		@ sp needed
 2806 0094 30BD     		pop	{r4, r5, pc}
 2807              		.cfi_endproc
 2808              	.LFE69:
 2809              		.size	PCD_MIFARE_Transceive, .-PCD_MIFARE_Transceive
 2810 0096 C046     		.section	.text.MIFARE_Write,"ax",%progbits
 2811              		.align	2
 2812              		.global	MIFARE_Write
 2813              		.code	16
 2814              		.thumb_func
 2815              		.type	MIFARE_Write, %function
 2816              	MIFARE_Write:
 2817              	.LFB59:
 747:RC522.c       **** 	unsigned char result;
 2818              		.loc 1 747 0
 2819              		.cfi_startproc
 2820              		@ args = 0, pretend = 0, frame = 8
 2821              		@ frame_needed = 0, uses_anonymous_args = 0
 2822              	.LVL398:
 2823 0000 30B5     		push	{r4, r5, lr}
 2824              		.cfi_def_cfa_offset 12
 2825              		.cfi_offset 4, -12
 2826              		.cfi_offset 5, -8
 2827              		.cfi_offset 14, -4
 2828 0002 83B0     		sub	sp, sp, #12
 2829              		.cfi_def_cfa_offset 24
 2830 0004 0C00     		movs	r4, r1
 2831 0006 1500     		movs	r5, r2
 751:RC522.c       **** 		return STATUS_INVALID;
 2832              		.loc 1 751 0
 2833 0008 0029     		cmp	r1, #0
 2834 000a 12D0     		beq	.L169
 751:RC522.c       **** 		return STATUS_INVALID;
 2835              		.loc 1 751 0 is_stmt 0 discriminator 1
 2836 000c 0F2A     		cmp	r2, #15
 2837 000e 12D9     		bls	.L170
 759:RC522.c       **** 	cmdBuffer[1] = blockAddr;
 2838              		.loc 1 759 0 is_stmt 1
 2839 0010 01AB     		add	r3, sp, #4
 2840 0012 A022     		movs	r2, #160
 2841              	.LVL399:
 2842 0014 1A70     		strb	r2, [r3]
 760:RC522.c       **** 	result = PCD_MIFARE_Transceive(cmdBuffer, 2,false); // Adds CRC_A and checks that the response is 
 2843              		.loc 1 760 0
ARM GAS  C:\Users\ABAD_S~1\AppData\Local\Temp\cckPFQC2.s 			page 70


 2844 0016 5870     		strb	r0, [r3, #1]
 761:RC522.c       **** 	if (result != STATUS_OK) {
 2845              		.loc 1 761 0
 2846 0018 0022     		movs	r2, #0
 2847 001a 0221     		movs	r1, #2
 2848              	.LVL400:
 2849 001c 1800     		movs	r0, r3
 2850              	.LVL401:
 2851 001e FFF7FEFF 		bl	PCD_MIFARE_Transceive
 2852              	.LVL402:
 762:RC522.c       **** 		return result;
 2853              		.loc 1 762 0
 2854 0022 0028     		cmp	r0, #0
 2855 0024 08D1     		bne	.L168
 767:RC522.c       **** 	if (result != STATUS_OK) {
 2856              		.loc 1 767 0
 2857 0026 0022     		movs	r2, #0
 2858 0028 2900     		movs	r1, r5
 2859 002a 2000     		movs	r0, r4
 2860              	.LVL403:
 2861 002c FFF7FEFF 		bl	PCD_MIFARE_Transceive
 2862              	.LVL404:
 2863 0030 02E0     		b	.L168
 2864              	.LVL405:
 2865              	.L169:
 752:RC522.c       **** }
 2866              		.loc 1 752 0
 2867 0032 0620     		movs	r0, #6
 2868              	.LVL406:
 2869 0034 00E0     		b	.L168
 2870              	.LVL407:
 2871              	.L170:
 2872 0036 0620     		movs	r0, #6
 2873              	.LVL408:
 2874              	.L168:
 773:RC522.c       **** 
 2875              		.loc 1 773 0
 2876 0038 03B0     		add	sp, sp, #12
 2877              		@ sp needed
 2878              	.LVL409:
 2879 003a 30BD     		pop	{r4, r5, pc}
 2880              		.cfi_endproc
 2881              	.LFE59:
 2882              		.size	MIFARE_Write, .-MIFARE_Write
 2883              		.section	.text.MIFARE_SetValue,"ax",%progbits
 2884              		.align	2
 2885              		.global	MIFARE_SetValue
 2886              		.code	16
 2887              		.thumb_func
 2888              		.type	MIFARE_SetValue, %function
 2889              	MIFARE_SetValue:
 2890              	.LFB67:
 880:RC522.c       **** 	unsigned char buffer[18];
 2891              		.loc 1 880 0
 2892              		.cfi_startproc
 2893              		@ args = 0, pretend = 0, frame = 24
 2894              		@ frame_needed = 0, uses_anonymous_args = 0
ARM GAS  C:\Users\ABAD_S~1\AppData\Local\Temp\cckPFQC2.s 			page 71


 2895              	.LVL410:
 2896 0000 30B5     		push	{r4, r5, lr}
 2897              		.cfi_def_cfa_offset 12
 2898              		.cfi_offset 4, -12
 2899              		.cfi_offset 5, -8
 2900              		.cfi_offset 14, -4
 2901 0002 87B0     		sub	sp, sp, #28
 2902              		.cfi_def_cfa_offset 40
 883:RC522.c       **** 	buffer[1] = buffer[ 9] = (value & 0xFF00) >> 8;
 2903              		.loc 1 883 0
 2904 0004 CDB2     		uxtb	r5, r1
 2905 0006 01AB     		add	r3, sp, #4
 2906 0008 1D72     		strb	r5, [r3, #8]
 2907 000a 1D70     		strb	r5, [r3]
 884:RC522.c       **** 	buffer[2] = buffer[10] = (value & 0xFF0000) >> 16;
 2908              		.loc 1 884 0
 2909 000c 0C0A     		lsrs	r4, r1, #8
 2910 000e E4B2     		uxtb	r4, r4
 2911 0010 5C72     		strb	r4, [r3, #9]
 2912 0012 5C70     		strb	r4, [r3, #1]
 885:RC522.c       **** 	buffer[3] = buffer[11] = (value & 0xFF000000) >> 24;
 2913              		.loc 1 885 0
 2914 0014 0A0C     		lsrs	r2, r1, #16
 2915 0016 D2B2     		uxtb	r2, r2
 2916 0018 9A72     		strb	r2, [r3, #10]
 2917 001a 9A70     		strb	r2, [r3, #2]
 886:RC522.c       **** 	// Inverse 4 bytes also found in value block
 2918              		.loc 1 886 0
 2919 001c 090E     		lsrs	r1, r1, #24
 2920              	.LVL411:
 2921 001e D972     		strb	r1, [r3, #11]
 2922 0020 D970     		strb	r1, [r3, #3]
 888:RC522.c       **** 	buffer[5] = ~buffer[1];
 2923              		.loc 1 888 0
 2924 0022 ED43     		mvns	r5, r5
 2925 0024 1D71     		strb	r5, [r3, #4]
 889:RC522.c       **** 	buffer[6] = ~buffer[2];
 2926              		.loc 1 889 0
 2927 0026 E443     		mvns	r4, r4
 2928 0028 5C71     		strb	r4, [r3, #5]
 890:RC522.c       **** 	buffer[7] = ~buffer[3];
 2929              		.loc 1 890 0
 2930 002a D243     		mvns	r2, r2
 2931 002c 9A71     		strb	r2, [r3, #6]
 891:RC522.c       **** 	// Address 2x with inverse address 2x
 2932              		.loc 1 891 0
 2933 002e C943     		mvns	r1, r1
 2934 0030 D971     		strb	r1, [r3, #7]
 893:RC522.c       **** 	buffer[13] = buffer[15] = ~blockAddr;
 2935              		.loc 1 893 0
 2936 0032 9873     		strb	r0, [r3, #14]
 2937 0034 1873     		strb	r0, [r3, #12]
 894:RC522.c       **** 	
 2938              		.loc 1 894 0
 2939 0036 C243     		mvns	r2, r0
 2940 0038 D2B2     		uxtb	r2, r2
 2941 003a DA73     		strb	r2, [r3, #15]
ARM GAS  C:\Users\ABAD_S~1\AppData\Local\Temp\cckPFQC2.s 			page 72


 2942 003c 5A73     		strb	r2, [r3, #13]
 897:RC522.c       **** } // End MIFARE_SetValue()
 2943              		.loc 1 897 0
 2944 003e 1022     		movs	r2, #16
 2945 0040 1900     		movs	r1, r3
 2946 0042 FFF7FEFF 		bl	MIFARE_Write
 2947              	.LVL412:
 898:RC522.c       **** 
 2948              		.loc 1 898 0
 2949 0046 07B0     		add	sp, sp, #28
 2950              		@ sp needed
 2951 0048 30BD     		pop	{r4, r5, pc}
 2952              		.cfi_endproc
 2953              	.LFE67:
 2954              		.size	MIFARE_SetValue, .-MIFARE_SetValue
 2955 004a C046     		.section	.text.MIFARE_Ultralight_Write,"ax",%progbits
 2956              		.align	2
 2957              		.global	MIFARE_Ultralight_Write
 2958              		.code	16
 2959              		.thumb_func
 2960              		.type	MIFARE_Ultralight_Write, %function
 2961              	MIFARE_Ultralight_Write:
 2962              	.LFB60:
 779:RC522.c       **** 	unsigned char result;
 2963              		.loc 1 779 0
 2964              		.cfi_startproc
 2965              		@ args = 0, pretend = 0, frame = 8
 2966              		@ frame_needed = 0, uses_anonymous_args = 0
 2967              	.LVL413:
 2968 0000 00B5     		push	{lr}
 2969              		.cfi_def_cfa_offset 4
 2970              		.cfi_offset 14, -4
 2971 0002 83B0     		sub	sp, sp, #12
 2972              		.cfi_def_cfa_offset 16
 783:RC522.c       **** 		return STATUS_INVALID;
 2973              		.loc 1 783 0
 2974 0004 0029     		cmp	r1, #0
 2975 0006 10D0     		beq	.L176
 783:RC522.c       **** 		return STATUS_INVALID;
 2976              		.loc 1 783 0 is_stmt 0 discriminator 1
 2977 0008 032A     		cmp	r2, #3
 2978 000a 10D9     		bls	.L177
 789:RC522.c       **** 	cmdBuffer[1] = page;
 2979              		.loc 1 789 0 is_stmt 1
 2980 000c A223     		movs	r3, #162
 2981 000e 6A46     		mov	r2, sp
 2982              	.LVL414:
 2983 0010 1370     		strb	r3, [r2]
 790:RC522.c       **** 	memcpy(&cmdBuffer[2], buffer, 4);
 2984              		.loc 1 790 0
 2985 0012 6B46     		mov	r3, sp
 2986 0014 5070     		strb	r0, [r2, #1]
 791:RC522.c       **** 	
 2987              		.loc 1 791 0
 2988 0016 0422     		movs	r2, #4
 2989 0018 981C     		adds	r0, r3, #2
 2990              	.LVL415:
ARM GAS  C:\Users\ABAD_S~1\AppData\Local\Temp\cckPFQC2.s 			page 73


 2991 001a FFF7FEFF 		bl	memcpy
 2992              	.LVL416:
 794:RC522.c       **** 	if (result != STATUS_OK) {
 2993              		.loc 1 794 0
 2994 001e 0022     		movs	r2, #0
 2995 0020 0621     		movs	r1, #6
 2996 0022 6846     		mov	r0, sp
 2997 0024 FFF7FEFF 		bl	PCD_MIFARE_Transceive
 2998              	.LVL417:
 2999 0028 02E0     		b	.L175
 3000              	.LVL418:
 3001              	.L176:
 784:RC522.c       **** 	}
 3002              		.loc 1 784 0
 3003 002a 0620     		movs	r0, #6
 3004              	.LVL419:
 3005 002c 00E0     		b	.L175
 3006              	.LVL420:
 3007              	.L177:
 3008 002e 0620     		movs	r0, #6
 3009              	.LVL421:
 3010              	.L175:
 799:RC522.c       **** 
 3011              		.loc 1 799 0
 3012 0030 03B0     		add	sp, sp, #12
 3013              		@ sp needed
 3014 0032 00BD     		pop	{pc}
 3015              		.cfi_endproc
 3016              	.LFE60:
 3017              		.size	MIFARE_Ultralight_Write, .-MIFARE_Ultralight_Write
 3018              		.section	.text.MIFARE_TwoStepHelper,"ax",%progbits
 3019              		.align	2
 3020              		.global	MIFARE_TwoStepHelper
 3021              		.code	16
 3022              		.thumb_func
 3023              		.type	MIFARE_TwoStepHelper, %function
 3024              	MIFARE_TwoStepHelper:
 3025              	.LFB64:
 825:RC522.c       **** 	unsigned char result;
 3026              		.loc 1 825 0
 3027              		.cfi_startproc
 3028              		@ args = 0, pretend = 0, frame = 16
 3029              		@ frame_needed = 0, uses_anonymous_args = 0
 3030              	.LVL422:
 3031 0000 00B5     		push	{lr}
 3032              		.cfi_def_cfa_offset 4
 3033              		.cfi_offset 14, -4
 3034 0002 85B0     		sub	sp, sp, #20
 3035              		.cfi_def_cfa_offset 24
 3036 0004 0192     		str	r2, [sp, #4]
 830:RC522.c       **** 	cmdBuffer[1] = blockAddr;
 3037              		.loc 1 830 0
 3038 0006 03AB     		add	r3, sp, #12
 3039 0008 1870     		strb	r0, [r3]
 831:RC522.c       **** 	result = PCD_MIFARE_Transceive(	cmdBuffer, 2, false); // Adds CRC_A and checks that the response i
 3040              		.loc 1 831 0
 3041 000a 5970     		strb	r1, [r3, #1]
ARM GAS  C:\Users\ABAD_S~1\AppData\Local\Temp\cckPFQC2.s 			page 74


 832:RC522.c       **** 	if (result != STATUS_OK) {
 3042              		.loc 1 832 0
 3043 000c 0022     		movs	r2, #0
 3044              	.LVL423:
 3045 000e 0221     		movs	r1, #2
 3046              	.LVL424:
 3047 0010 1800     		movs	r0, r3
 3048              	.LVL425:
 3049 0012 FFF7FEFF 		bl	PCD_MIFARE_Transceive
 3050              	.LVL426:
 833:RC522.c       **** 		return result;
 3051              		.loc 1 833 0
 3052 0016 0028     		cmp	r0, #0
 3053 0018 04D1     		bne	.L180
 837:RC522.c       **** 	if (result != STATUS_OK) {
 3054              		.loc 1 837 0
 3055 001a 0122     		movs	r2, #1
 3056 001c 0421     		movs	r1, #4
 3057 001e 01A8     		add	r0, sp, #4
 3058              	.LVL427:
 3059 0020 FFF7FEFF 		bl	PCD_MIFARE_Transceive
 3060              	.LVL428:
 3061              	.L180:
 843:RC522.c       **** 
 3062              		.loc 1 843 0
 3063 0024 05B0     		add	sp, sp, #20
 3064              		@ sp needed
 3065 0026 00BD     		pop	{pc}
 3066              		.cfi_endproc
 3067              	.LFE64:
 3068              		.size	MIFARE_TwoStepHelper, .-MIFARE_TwoStepHelper
 3069              		.section	.text.MIFARE_Decrement,"ax",%progbits
 3070              		.align	2
 3071              		.global	MIFARE_Decrement
 3072              		.code	16
 3073              		.thumb_func
 3074              		.type	MIFARE_Decrement, %function
 3075              	MIFARE_Decrement:
 3076              	.LFB61:
 803:RC522.c       **** 	return MIFARE_TwoStepHelper(PICC_CMD_MF_DECREMENT, blockAddr, delta);
 3077              		.loc 1 803 0
 3078              		.cfi_startproc
 3079              		@ args = 0, pretend = 0, frame = 0
 3080              		@ frame_needed = 0, uses_anonymous_args = 0
 3081              	.LVL429:
 3082 0000 10B5     		push	{r4, lr}
 3083              		.cfi_def_cfa_offset 8
 3084              		.cfi_offset 4, -8
 3085              		.cfi_offset 14, -4
 3086 0002 0A00     		movs	r2, r1
 804:RC522.c       **** }
 3087              		.loc 1 804 0
 3088 0004 0100     		movs	r1, r0
 3089              	.LVL430:
 3090 0006 C020     		movs	r0, #192
 3091              	.LVL431:
 3092 0008 FFF7FEFF 		bl	MIFARE_TwoStepHelper
ARM GAS  C:\Users\ABAD_S~1\AppData\Local\Temp\cckPFQC2.s 			page 75


 3093              	.LVL432:
 805:RC522.c       **** 
 3094              		.loc 1 805 0
 3095              		@ sp needed
 3096 000c 10BD     		pop	{r4, pc}
 3097              		.cfi_endproc
 3098              	.LFE61:
 3099              		.size	MIFARE_Decrement, .-MIFARE_Decrement
 3100 000e C046     		.section	.text.MIFARE_Increment,"ax",%progbits
 3101              		.align	2
 3102              		.global	MIFARE_Increment
 3103              		.code	16
 3104              		.thumb_func
 3105              		.type	MIFARE_Increment, %function
 3106              	MIFARE_Increment:
 3107              	.LFB62:
 809:RC522.c       **** 	return MIFARE_TwoStepHelper(PICC_CMD_MF_INCREMENT, blockAddr, delta);
 3108              		.loc 1 809 0
 3109              		.cfi_startproc
 3110              		@ args = 0, pretend = 0, frame = 0
 3111              		@ frame_needed = 0, uses_anonymous_args = 0
 3112              	.LVL433:
 3113 0000 10B5     		push	{r4, lr}
 3114              		.cfi_def_cfa_offset 8
 3115              		.cfi_offset 4, -8
 3116              		.cfi_offset 14, -4
 3117 0002 0A00     		movs	r2, r1
 810:RC522.c       **** } // End MIFARE_Increment()
 3118              		.loc 1 810 0
 3119 0004 0100     		movs	r1, r0
 3120              	.LVL434:
 3121 0006 C120     		movs	r0, #193
 3122              	.LVL435:
 3123 0008 FFF7FEFF 		bl	MIFARE_TwoStepHelper
 3124              	.LVL436:
 811:RC522.c       **** 
 3125              		.loc 1 811 0
 3126              		@ sp needed
 3127 000c 10BD     		pop	{r4, pc}
 3128              		.cfi_endproc
 3129              	.LFE62:
 3130              		.size	MIFARE_Increment, .-MIFARE_Increment
 3131 000e C046     		.section	.text.MIFARE_Restore,"ax",%progbits
 3132              		.align	2
 3133              		.global	MIFARE_Restore
 3134              		.code	16
 3135              		.thumb_func
 3136              		.type	MIFARE_Restore, %function
 3137              	MIFARE_Restore:
 3138              	.LFB63:
 815:RC522.c       **** 	// The datasheet describes Restore as a two step operation, but does not explain what data to tran
 3139              		.loc 1 815 0
 3140              		.cfi_startproc
 3141              		@ args = 0, pretend = 0, frame = 0
 3142              		@ frame_needed = 0, uses_anonymous_args = 0
 3143              	.LVL437:
 3144 0000 10B5     		push	{r4, lr}
ARM GAS  C:\Users\ABAD_S~1\AppData\Local\Temp\cckPFQC2.s 			page 76


 3145              		.cfi_def_cfa_offset 8
 3146              		.cfi_offset 4, -8
 3147              		.cfi_offset 14, -4
 3148 0002 0100     		movs	r1, r0
 818:RC522.c       **** } // End MIFARE_Restore()
 3149              		.loc 1 818 0
 3150 0004 0022     		movs	r2, #0
 3151 0006 C220     		movs	r0, #194
 3152              	.LVL438:
 3153 0008 FFF7FEFF 		bl	MIFARE_TwoStepHelper
 3154              	.LVL439:
 819:RC522.c       **** 
 3155              		.loc 1 819 0
 3156              		@ sp needed
 3157 000c 10BD     		pop	{r4, pc}
 3158              		.cfi_endproc
 3159              	.LFE63:
 3160              		.size	MIFARE_Restore, .-MIFARE_Restore
 3161 000e C046     		.section	.text.MIFARE_Transfer,"ax",%progbits
 3162              		.align	2
 3163              		.global	MIFARE_Transfer
 3164              		.code	16
 3165              		.thumb_func
 3166              		.type	MIFARE_Transfer, %function
 3167              	MIFARE_Transfer:
 3168              	.LFB65:
 847:RC522.c       **** 	unsigned char result;
 3169              		.loc 1 847 0
 3170              		.cfi_startproc
 3171              		@ args = 0, pretend = 0, frame = 8
 3172              		@ frame_needed = 0, uses_anonymous_args = 0
 3173              	.LVL440:
 3174 0000 00B5     		push	{lr}
 3175              		.cfi_def_cfa_offset 4
 3176              		.cfi_offset 14, -4
 3177 0002 83B0     		sub	sp, sp, #12
 3178              		.cfi_def_cfa_offset 16
 852:RC522.c       **** 	cmdBuffer[1] = blockAddr;
 3179              		.loc 1 852 0
 3180 0004 01AB     		add	r3, sp, #4
 3181 0006 B022     		movs	r2, #176
 3182 0008 1A70     		strb	r2, [r3]
 853:RC522.c       **** 	result = PCD_MIFARE_Transceive(	cmdBuffer, 2, false); // Adds CRC_A and checks that the response i
 3183              		.loc 1 853 0
 3184 000a 5870     		strb	r0, [r3, #1]
 854:RC522.c       **** 	if (result != STATUS_OK) {
 3185              		.loc 1 854 0
 3186 000c 0022     		movs	r2, #0
 3187 000e 0221     		movs	r1, #2
 3188 0010 1800     		movs	r0, r3
 3189              	.LVL441:
 3190 0012 FFF7FEFF 		bl	PCD_MIFARE_Transceive
 3191              	.LVL442:
 859:RC522.c       **** 
 3192              		.loc 1 859 0
 3193 0016 03B0     		add	sp, sp, #12
 3194              		@ sp needed
ARM GAS  C:\Users\ABAD_S~1\AppData\Local\Temp\cckPFQC2.s 			page 77


 3195 0018 00BD     		pop	{pc}
 3196              		.cfi_endproc
 3197              	.LFE65:
 3198              		.size	MIFARE_Transfer, .-MIFARE_Transfer
 3199 001a C046     		.section	.text.PICC_IsNewCardPresent,"ax",%progbits
 3200              		.align	2
 3201              		.global	PICC_IsNewCardPresent
 3202              		.code	16
 3203              		.thumb_func
 3204              		.type	PICC_IsNewCardPresent, %function
 3205              	PICC_IsNewCardPresent:
 3206              	.LFB70:
 975:RC522.c       **** 
 976:RC522.c       **** 
 977:RC522.c       **** bool PICC_IsNewCardPresent(void) {
 3207              		.loc 1 977 0
 3208              		.cfi_startproc
 3209              		@ args = 0, pretend = 0, frame = 8
 3210              		@ frame_needed = 0, uses_anonymous_args = 0
 3211 0000 10B5     		push	{r4, lr}
 3212              		.cfi_def_cfa_offset 8
 3213              		.cfi_offset 4, -8
 3214              		.cfi_offset 14, -4
 3215 0002 82B0     		sub	sp, sp, #8
 3216              		.cfi_def_cfa_offset 16
 978:RC522.c       **** 	unsigned char bufferATQA[2];
 979:RC522.c       **** 	unsigned char bufferSize = sizeof(bufferATQA);
 3217              		.loc 1 979 0
 3218 0004 6B46     		mov	r3, sp
 3219 0006 DC1C     		adds	r4, r3, #3
 3220 0008 0223     		movs	r3, #2
 3221 000a 2370     		strb	r3, [r4]
 980:RC522.c       **** 	// Reset baud rates
 981:RC522.c       **** 	PCD_WriteRegister(TxModeReg, 0x00);
 3222              		.loc 1 981 0
 3223 000c 0021     		movs	r1, #0
 3224 000e 1220     		movs	r0, #18
 3225 0010 FFF7FEFF 		bl	PCD_WriteRegister
 3226              	.LVL443:
 982:RC522.c       **** 	PCD_WriteRegister(RxModeReg, 0x00);
 3227              		.loc 1 982 0
 3228 0014 0021     		movs	r1, #0
 3229 0016 1320     		movs	r0, #19
 3230 0018 FFF7FEFF 		bl	PCD_WriteRegister
 3231              	.LVL444:
 983:RC522.c       **** 	// Reset ModWidthReg
 984:RC522.c       **** 	PCD_WriteRegister(ModWidthReg, 0x26);
 3232              		.loc 1 984 0
 3233 001c 2621     		movs	r1, #38
 3234 001e 2420     		movs	r0, #36
 3235 0020 FFF7FEFF 		bl	PCD_WriteRegister
 3236              	.LVL445:
 985:RC522.c       **** 
 986:RC522.c       **** 	unsigned char result = PICC_RequestA(bufferATQA, &bufferSize);
 3237              		.loc 1 986 0
 3238 0024 2100     		movs	r1, r4
 3239 0026 01A8     		add	r0, sp, #4
ARM GAS  C:\Users\ABAD_S~1\AppData\Local\Temp\cckPFQC2.s 			page 78


 3240 0028 FFF7FEFF 		bl	PICC_RequestA
 3241              	.LVL446:
 987:RC522.c       **** 	
 988:RC522.c       ****     if((result == STATUS_OK || result == STATUS_COLLISION)){
 3242              		.loc 1 988 0
 3243 002c 0028     		cmp	r0, #0
 3244 002e 03D0     		beq	.L191
 3245              		.loc 1 988 0 is_stmt 0 discriminator 1
 3246 0030 0228     		cmp	r0, #2
 3247 0032 03D1     		bne	.L192
 989:RC522.c       ****         return true;
 3248              		.loc 1 989 0 is_stmt 1
 3249 0034 0138     		subs	r0, r0, #1
 3250              	.LVL447:
 3251 0036 02E0     		b	.L190
 3252              	.LVL448:
 3253              	.L191:
 3254 0038 0120     		movs	r0, #1
 3255              	.LVL449:
 3256 003a 00E0     		b	.L190
 3257              	.LVL450:
 3258              	.L192:
 990:RC522.c       ****     }else{        
 991:RC522.c       ****         return false;
 3259              		.loc 1 991 0
 3260 003c 0020     		movs	r0, #0
 3261              	.LVL451:
 3262              	.L190:
 992:RC522.c       ****     }
 993:RC522.c       **** } // End PICC_IsNewCardPresent()
 3263              		.loc 1 993 0
 3264 003e 02B0     		add	sp, sp, #8
 3265              		@ sp needed
 3266 0040 10BD     		pop	{r4, pc}
 3267              		.cfi_endproc
 3268              	.LFE70:
 3269              		.size	PICC_IsNewCardPresent, .-PICC_IsNewCardPresent
 3270 0042 C046     		.section	.text.PICC_ReadCardSerial,"ax",%progbits
 3271              		.align	2
 3272              		.global	PICC_ReadCardSerial
 3273              		.code	16
 3274              		.thumb_func
 3275              		.type	PICC_ReadCardSerial, %function
 3276              	PICC_ReadCardSerial:
 3277              	.LFB71:
 994:RC522.c       **** 
 995:RC522.c       **** bool PICC_ReadCardSerial(void) {
 3278              		.loc 1 995 0
 3279              		.cfi_startproc
 3280              		@ args = 0, pretend = 0, frame = 0
 3281              		@ frame_needed = 0, uses_anonymous_args = 0
 3282 0000 10B5     		push	{r4, lr}
 3283              		.cfi_def_cfa_offset 8
 3284              		.cfi_offset 4, -8
 3285              		.cfi_offset 14, -4
 996:RC522.c       **** 	unsigned char result = PICC_Select(&uid,0);
 3286              		.loc 1 996 0
ARM GAS  C:\Users\ABAD_S~1\AppData\Local\Temp\cckPFQC2.s 			page 79


 3287 0002 0021     		movs	r1, #0
 3288 0004 0348     		ldr	r0, .L194
 3289 0006 FFF7FEFF 		bl	PICC_Select
 3290              	.LVL452:
 997:RC522.c       **** 	return (result == STATUS_OK);
 3291              		.loc 1 997 0
 3292 000a 4342     		rsbs	r3, r0, #0
 3293 000c 5841     		adcs	r0, r0, r3
 3294              	.LVL453:
 3295 000e C0B2     		uxtb	r0, r0
 998:RC522.c       **** } // End 
 3296              		.loc 1 998 0
 3297              		@ sp needed
 3298 0010 10BD     		pop	{r4, pc}
 3299              	.L195:
 3300 0012 C046     		.align	2
 3301              	.L194:
 3302 0014 00000000 		.word	uid
 3303              		.cfi_endproc
 3304              	.LFE71:
 3305              		.size	PICC_ReadCardSerial, .-PICC_ReadCardSerial
 3306              		.comm	readDummy,1,1
 3307              		.comm	readData,1,1
 3308              		.comm	uid,12,4
 3309              		.text
 3310              	.Letext0:
 3311              		.file 2 "c:\\program files (x86)\\cypress\\psoc creator\\4.2\\psoc creator\\import\\gnu\\arm\\5.4.
 3312              		.file 3 "c:\\program files (x86)\\cypress\\psoc creator\\4.2\\psoc creator\\import\\gnu\\arm\\5.4.
 3313              		.file 4 "Generated_Source\\PSoC4/cytypes.h"
 3314              		.file 5 "RC522.h"
 3315              		.file 6 "Generated_Source\\PSoC4/SPI.h"
 3316              		.file 7 "Generated_Source\\PSoC4/CyLib.h"
 3317              		.file 8 "Generated_Source\\PSoC4/RESET.h"