ARM GAS  C:\Users\ABAD_S~1\AppData\Local\Temp\cckPFQC2.s 			page 1


   1              		.syntax unified
   2              		.cpu cortex-m0
   3              		.fpu softvfp
   4              		.eabi_attribute 20, 1
   5              		.eabi_attribute 21, 1
   6              		.eabi_attribute 23, 3
   7              		.eabi_attribute 24, 1
   8              		.eabi_attribute 25, 1
   9              		.eabi_attribute 26, 1
  10              		.eabi_attribute 30, 1
  11              		.eabi_attribute 34, 0
  12              		.eabi_attribute 18, 4
  13              		.thumb
  14              		.syntax unified
  15              		.file	"RC522.c"
  16              		.text
  17              	.Ltext0:
  18              		.cfi_sections	.debug_frame
  19              		.section	.text.PCD_WriteRegister,"ax",%progbits
  20              		.align	2
  21              		.global	PCD_WriteRegister
  22              		.code	16
  23              		.thumb_func
  24              		.type	PCD_WriteRegister, %function
  25              	PCD_WriteRegister:
  26              	.LFB33:
  27              		.file 1 "RC522.c"
   1:RC522.c       **** #include <project.h>
   2:RC522.c       **** #include "SPI.h"
   3:RC522.c       **** //#include "CReset.h"
   4:RC522.c       **** #include <string.h>
   5:RC522.c       **** #include <stdio.h>
   6:RC522.c       **** #include <stdint.h>
   7:RC522.c       **** #include <stdbool.h>
   8:RC522.c       **** #include <stddef.h>
   9:RC522.c       **** #include "RC522.h"
  10:RC522.c       **** 
  11:RC522.c       **** 
  12:RC522.c       **** 
  13:RC522.c       **** unsigned char     readData;
  14:RC522.c       **** unsigned char     readDummy;
  15:RC522.c       **** 
  16:RC522.c       **** void PCD_WriteRegister(unsigned char addr, unsigned char value) {
  28              		.loc 1 16 0
  29              		.cfi_startproc
  30              		@ args = 0, pretend = 0, frame = 0
  31              		@ frame_needed = 0, uses_anonymous_args = 0
  32              	.LVL0:
  33 0000 70B5     		push	{r4, r5, r6, lr}
  34              		.cfi_def_cfa_offset 16
  35              		.cfi_offset 4, -16
  36              		.cfi_offset 5, -12
  37              		.cfi_offset 6, -8
  38              		.cfi_offset 14, -4
  39 0002 0400     		movs	r4, r0
  40 0004 0D00     		movs	r5, r1
  17:RC522.c       ****          SPI_ClearFIFO(); SPI_ClearRxBuffer();//SS = false;
ARM GAS  C:\Users\ABAD_S~1\AppData\Local\Temp\cckPFQC2.s 			page 2


  41              		.loc 1 17 0
  42 0006 FFF7FEFF 		bl	SPI_ClearFIFO
  43              	.LVL1:
  44 000a FFF7FEFF 		bl	SPI_ClearRxBuffer
  45              	.LVL2:
  46              	.L2:
  18:RC522.c       ****         while ( ! (SPI_ReadTxStatus() & SPI_STS_SPI_IDLE) );//Espera a que el canal este disponible
  47              		.loc 1 18 0 discriminator 1
  48 000e FFF7FEFF 		bl	SPI_ReadTxStatus
  49              	.LVL3:
  50 0012 C306     		lsls	r3, r0, #27
  51 0014 FBD5     		bpl	.L2
  19:RC522.c       ****         SPI_WriteTxData((addr<<1)&0x7E);//Equivalente a SPI.transfer((addr<<1)&0x7E);
  52              		.loc 1 19 0
  53 0016 6400     		lsls	r4, r4, #1
  54 0018 7E20     		movs	r0, #126
  55 001a 2040     		ands	r0, r4
  56 001c FFF7FEFF 		bl	SPI_WriteTxData
  57              	.LVL4:
  58              	.L3:
  20:RC522.c       ****           while ( ! (SPI_ReadTxStatus() & SPI_STS_SPI_IDLE) ); 
  59              		.loc 1 20 0 discriminator 1
  60 0020 FFF7FEFF 		bl	SPI_ReadTxStatus
  61              	.LVL5:
  62 0024 C306     		lsls	r3, r0, #27
  63 0026 FBD5     		bpl	.L3
  21:RC522.c       ****         SPI_WriteTxData(value);// Equivalente a  SPI.transfer(val);
  64              		.loc 1 21 0
  65 0028 2800     		movs	r0, r5
  66 002a FFF7FEFF 		bl	SPI_WriteTxData
  67              	.LVL6:
  22:RC522.c       ****         CyDelayUs(600);// >500
  68              		.loc 1 22 0
  69 002e 9620     		movs	r0, #150
  70 0030 8000     		lsls	r0, r0, #2
  71 0032 FFF7FEFF 		bl	CyDelayUs
  72              	.LVL7:
  23:RC522.c       **** }
  73              		.loc 1 23 0
  74              		@ sp needed
  75 0036 70BD     		pop	{r4, r5, r6, pc}
  76              		.cfi_endproc
  77              	.LFE33:
  78              		.size	PCD_WriteRegister, .-PCD_WriteRegister
  79              		.section	.text.PCD_WriteRegisters,"ax",%progbits
  80              		.align	2
  81              		.global	PCD_WriteRegisters
  82              		.code	16
  83              		.thumb_func
  84              		.type	PCD_WriteRegisters, %function
  85              	PCD_WriteRegisters:
  86              	.LFB34:
  24:RC522.c       **** void PCD_WriteRegisters( unsigned char addr,unsigned char count,unsigned char *values){
  87              		.loc 1 24 0
  88              		.cfi_startproc
  89              		@ args = 0, pretend = 0, frame = 0
  90              		@ frame_needed = 0, uses_anonymous_args = 0
ARM GAS  C:\Users\ABAD_S~1\AppData\Local\Temp\cckPFQC2.s 			page 3


  91              	.LVL8:
  92 0000 70B5     		push	{r4, r5, r6, lr}
  93              		.cfi_def_cfa_offset 16
  94              		.cfi_offset 4, -16
  95              		.cfi_offset 5, -12
  96              		.cfi_offset 6, -8
  97              		.cfi_offset 14, -4
  98 0002 0400     		movs	r4, r0
  99 0004 0D00     		movs	r5, r1
 100 0006 1600     		movs	r6, r2
 101              	.LVL9:
 102              	.L5:
  25:RC522.c       **** 
  26:RC522.c       ****     //SS = false;
  27:RC522.c       ****     while ( ! (SPI_ReadTxStatus() & SPI_STS_SPI_IDLE) );//   Espera a que el canal este disponible 
 103              		.loc 1 27 0 discriminator 1
 104 0008 FFF7FEFF 		bl	SPI_ReadTxStatus
 105              	.LVL10:
 106 000c C306     		lsls	r3, r0, #27
 107 000e FBD5     		bpl	.L5
  28:RC522.c       ****     SPI_WriteTxData((addr << 1 ) & 0x7E );//Equivalente a SPI.transfer((addr<<1)&0x7E);
 108              		.loc 1 28 0
 109 0010 6400     		lsls	r4, r4, #1
 110 0012 7E20     		movs	r0, #126
 111 0014 2040     		ands	r0, r4
 112 0016 FFF7FEFF 		bl	SPI_WriteTxData
 113              	.LVL11:
 114              	.LBB2:
  29:RC522.c       ****     // MSB == 0 is for writing. LSB is not used in address. Datasheet section 8.1.2.3.
  30:RC522.c       **** 	for (unsigned char index = 0; index < count; index++) {
 115              		.loc 1 30 0
 116 001a 0024     		movs	r4, #0
 117 001c 08E0     		b	.L6
 118              	.LVL12:
 119              	.L7:
  31:RC522.c       ****         while ( ! (SPI_ReadTxStatus() & SPI_STS_SPI_IDLE) );//Espera a que el canal este disponible
 120              		.loc 1 31 0 discriminator 1
 121 001e FFF7FEFF 		bl	SPI_ReadTxStatus
 122              	.LVL13:
 123 0022 C306     		lsls	r3, r0, #27
 124 0024 FBD5     		bpl	.L7
  32:RC522.c       **** 		SPI_WriteTxData(values[index]);  
 125              		.loc 1 32 0 discriminator 2
 126 0026 305D     		ldrb	r0, [r6, r4]
 127 0028 FFF7FEFF 		bl	SPI_WriteTxData
 128              	.LVL14:
  30:RC522.c       ****         while ( ! (SPI_ReadTxStatus() & SPI_STS_SPI_IDLE) );//Espera a que el canal este disponible
 129              		.loc 1 30 0 discriminator 2
 130 002c 0134     		adds	r4, r4, #1
 131              	.LVL15:
 132 002e E4B2     		uxtb	r4, r4
 133              	.LVL16:
 134              	.L6:
  30:RC522.c       ****         while ( ! (SPI_ReadTxStatus() & SPI_STS_SPI_IDLE) );//Espera a que el canal este disponible
 135              		.loc 1 30 0 is_stmt 0 discriminator 1
 136 0030 AC42     		cmp	r4, r5
 137 0032 F4D3     		bcc	.L7
ARM GAS  C:\Users\ABAD_S~1\AppData\Local\Temp\cckPFQC2.s 			page 4


 138              	.LBE2:
  33:RC522.c       **** 	}
  34:RC522.c       **** 	//SS = true;
  35:RC522.c       **** }
 139              		.loc 1 35 0 is_stmt 1
 140              		@ sp needed
 141              	.LVL17:
 142              	.LVL18:
 143 0034 70BD     		pop	{r4, r5, r6, pc}
 144              		.cfi_endproc
 145              	.LFE34:
 146              		.size	PCD_WriteRegisters, .-PCD_WriteRegisters
 147 0036 C046     		.section	.text.PCD_ReadRegister,"ax",%progbits
 148              		.align	2
 149              		.global	PCD_ReadRegister
 150              		.code	16
 151              		.thumb_func
 152              		.type	PCD_ReadRegister, %function
 153              	PCD_ReadRegister:
 154              	.LFB35:
  36:RC522.c       **** 
  37:RC522.c       **** unsigned char PCD_ReadRegister(unsigned char addr) {
 155              		.loc 1 37 0
 156              		.cfi_startproc
 157              		@ args = 0, pretend = 0, frame = 0
 158              		@ frame_needed = 0, uses_anonymous_args = 0
 159              	.LVL19:
 160 0000 10B5     		push	{r4, lr}
 161              		.cfi_def_cfa_offset 8
 162              		.cfi_offset 4, -8
 163              		.cfi_offset 14, -4
 164 0002 0400     		movs	r4, r0
  38:RC522.c       ****         unsigned char value;
  39:RC522.c       ****  
  40:RC522.c       ****     SPI_ClearFIFO(); SPI_ClearRxBuffer();
 165              		.loc 1 40 0
 166 0004 FFF7FEFF 		bl	SPI_ClearFIFO
 167              	.LVL20:
 168 0008 FFF7FEFF 		bl	SPI_ClearRxBuffer
 169              	.LVL21:
 170              	.L9:
  41:RC522.c       ****    while (!(SPI_ReadTxStatus()&SPI_STS_SPI_IDLE));//Espera a que el canal este disponible
 171              		.loc 1 41 0 discriminator 1
 172 000c FFF7FEFF 		bl	SPI_ReadTxStatus
 173              	.LVL22:
 174 0010 C306     		lsls	r3, r0, #27
 175 0012 FBD5     		bpl	.L9
  42:RC522.c       ****    SPI_WriteTxData(((addr<<1)&0x7E)|0x80);   // Equivalente a SPI.transfer(((addr<<1)&0x7E) | 0x80)
 176              		.loc 1 42 0
 177 0014 6400     		lsls	r4, r4, #1
 178 0016 7E20     		movs	r0, #126
 179 0018 0440     		ands	r4, r0
 180 001a FE38     		subs	r0, r0, #254
 181 001c 2043     		orrs	r0, r4
 182 001e C0B2     		uxtb	r0, r0
 183 0020 FFF7FEFF 		bl	SPI_WriteTxData
 184              	.LVL23:
ARM GAS  C:\Users\ABAD_S~1\AppData\Local\Temp\cckPFQC2.s 			page 5


  43:RC522.c       ****    SPI_WriteTxData(((0x00<<1)&0x7E)|0x00);  
 185              		.loc 1 43 0
 186 0024 0020     		movs	r0, #0
 187 0026 FFF7FEFF 		bl	SPI_WriteTxData
 188              	.LVL24:
  44:RC522.c       ****    CyDelayUs(500);  SPI_ReadRxData(); 
 189              		.loc 1 44 0
 190 002a FA20     		movs	r0, #250
 191 002c 4000     		lsls	r0, r0, #1
 192 002e FFF7FEFF 		bl	CyDelayUs
 193              	.LVL25:
 194 0032 FFF7FEFF 		bl	SPI_ReadRxData
 195              	.LVL26:
  45:RC522.c       ****    value = SPI_ReadRxData(); 
 196              		.loc 1 45 0
 197 0036 FFF7FEFF 		bl	SPI_ReadRxData
 198              	.LVL27:
  46:RC522.c       ****     
  47:RC522.c       ****     
  48:RC522.c       **** 	return value;
  49:RC522.c       **** } // End PCD_ReadRegister()
 199              		.loc 1 49 0
 200              		@ sp needed
 201 003a 10BD     		pop	{r4, pc}
 202              		.cfi_endproc
 203              	.LFE35:
 204              		.size	PCD_ReadRegister, .-PCD_ReadRegister
 205              		.section	.text.PCD_ReadRegisters,"ax",%progbits
 206              		.align	2
 207              		.global	PCD_ReadRegisters
 208              		.code	16
 209              		.thumb_func
 210              		.type	PCD_ReadRegisters, %function
 211              	PCD_ReadRegisters:
 212              	.LFB36:
  50:RC522.c       **** 
  51:RC522.c       **** void PCD_ReadRegisters(	unsigned char addr,	///< The register to read from. One of the PCD_Register
  52:RC522.c       ****                         unsigned char count,			///< The number of bytes to read
  53:RC522.c       **** 						unsigned char *values,		///< Byte array to store the values in.
  54:RC522.c       ****                         unsigned char rxAlign		///< Only bit positions rxAlign..7 in values[0] are 
  55:RC522.c       **** 								) {
 213              		.loc 1 55 0
 214              		.cfi_startproc
 215              		@ args = 0, pretend = 0, frame = 8
 216              		@ frame_needed = 0, uses_anonymous_args = 0
 217              	.LVL28:
 218 0000 F0B5     		push	{r4, r5, r6, r7, lr}
 219              		.cfi_def_cfa_offset 20
 220              		.cfi_offset 4, -20
 221              		.cfi_offset 5, -16
 222              		.cfi_offset 6, -12
 223              		.cfi_offset 7, -8
 224              		.cfi_offset 14, -4
 225 0002 83B0     		sub	sp, sp, #12
 226              		.cfi_def_cfa_offset 32
 227 0004 0400     		movs	r4, r0
 228 0006 1500     		movs	r5, r2
ARM GAS  C:\Users\ABAD_S~1\AppData\Local\Temp\cckPFQC2.s 			page 6


 229 0008 1E00     		movs	r6, r3
  56:RC522.c       **** 	if (count == 0) {
 230              		.loc 1 56 0
 231 000a 0029     		cmp	r1, #0
 232 000c 3DD0     		beq	.L10
 233              	.LVL29:
  57:RC522.c       **** 		return;
  58:RC522.c       **** 	}
  59:RC522.c       ****     //SSPCON1bits.SSPEN=1;   // Enable SPI port
  60:RC522.c       ****     unsigned char index = 0;							// Index in values array.
  61:RC522.c       ****     //Activa con c0
  62:RC522.c       ****     //SS = false;
  63:RC522.c       **** 	count--;								// One read is performed outside of the loop
 234              		.loc 1 63 0
 235 000e 0139     		subs	r1, r1, #1
 236              	.LVL30:
 237 0010 CFB2     		uxtb	r7, r1
 238              	.LVL31:
 239              	.L12:
  64:RC522.c       ****     while ( ! (SPI_ReadTxStatus() & SPI_STS_SPI_IDLE) );
 240              		.loc 1 64 0 discriminator 1
 241 0012 FFF7FEFF 		bl	SPI_ReadTxStatus
 242              	.LVL32:
 243 0016 C306     		lsls	r3, r0, #27
 244 0018 FBD5     		bpl	.L12
  65:RC522.c       **** 	SPI_WriteTxData(((addr<<1)&0x7E)|0x80);// Equivalente a SPI.transfer(((addr<<1)&0x7E) | 0x80);
 245              		.loc 1 65 0
 246 001a 6400     		lsls	r4, r4, #1
 247 001c 7E23     		movs	r3, #126
 248 001e 1C40     		ands	r4, r3
 249 0020 FE3B     		subs	r3, r3, #254
 250 0022 2343     		orrs	r3, r4
 251 0024 DBB2     		uxtb	r3, r3
 252 0026 0193     		str	r3, [sp, #4]
 253 0028 1800     		movs	r0, r3
 254 002a FFF7FEFF 		bl	SPI_WriteTxData
 255              	.LVL33:
  66:RC522.c       **** 	if (rxAlign) {		// Only update bit positions rxAlign..7 in values[0]
 256              		.loc 1 66 0
 257 002e 002E     		cmp	r6, #0
 258 0030 13D0     		beq	.L17
 259              	.LBB3:
  67:RC522.c       **** 		// Create bit mask for bit positions rxAlign..7
  68:RC522.c       **** 		unsigned char mask = (0xFF << rxAlign) & 0xFF;
 260              		.loc 1 68 0
 261 0032 FF23     		movs	r3, #255
 262 0034 B340     		lsls	r3, r3, r6
 263 0036 1E00     		movs	r6, r3
 264 0038 DCB2     		uxtb	r4, r3
 265              	.LVL34:
 266              	.L14:
  69:RC522.c       **** 		// Read value and tell that we want to read the same address again.
  70:RC522.c       ****         while ( ! (SPI_ReadTxStatus() & SPI_STS_SPI_IDLE) );
 267              		.loc 1 70 0 discriminator 1
 268 003a FFF7FEFF 		bl	SPI_ReadTxStatus
 269              	.LVL35:
 270 003e C306     		lsls	r3, r0, #27
ARM GAS  C:\Users\ABAD_S~1\AppData\Local\Temp\cckPFQC2.s 			page 7


 271 0040 FBD5     		bpl	.L14
  71:RC522.c       ****         SPI_WriteTxData(((addr<<1)&0x7E)|0x80);// Equivalente a SPI.transfer(((addr<<1)&0x7E) | 0x8
 272              		.loc 1 71 0
 273 0042 0198     		ldr	r0, [sp, #4]
 274 0044 FFF7FEFF 		bl	SPI_WriteTxData
 275              	.LVL36:
  72:RC522.c       **** 		unsigned char value =  SPI_ReadRxData();
 276              		.loc 1 72 0
 277 0048 FFF7FEFF 		bl	SPI_ReadRxData
 278              	.LVL37:
  73:RC522.c       **** 		// Apply mask to both current value of values[0] and the new data in value.
  74:RC522.c       **** 		values[0] = (values[0] & ~mask) | (value & mask);
 279              		.loc 1 74 0
 280 004c 2B78     		ldrb	r3, [r5]
 281 004e B343     		bics	r3, r6
 282 0050 0440     		ands	r4, r0
 283              	.LVL38:
 284 0052 1C43     		orrs	r4, r3
 285 0054 2C70     		strb	r4, [r5]
 286              	.LVL39:
  75:RC522.c       **** 		index++;
 287              		.loc 1 75 0
 288 0056 0124     		movs	r4, #1
 289 0058 0EE0     		b	.L15
 290              	.LVL40:
 291              	.L17:
 292              	.LBE3:
  60:RC522.c       ****     //Activa con c0
 293              		.loc 1 60 0
 294 005a 0024     		movs	r4, #0
 295 005c 0CE0     		b	.L15
 296              	.LVL41:
 297              	.L16:
  76:RC522.c       **** 	}
  77:RC522.c       **** 	while (index < count) {
  78:RC522.c       ****         while ( ! (SPI_ReadTxStatus() & SPI_STS_SPI_IDLE) );
 298              		.loc 1 78 0 discriminator 1
 299 005e FFF7FEFF 		bl	SPI_ReadTxStatus
 300              	.LVL42:
 301 0062 C306     		lsls	r3, r0, #27
 302 0064 FBD5     		bpl	.L16
  79:RC522.c       **** 		SPI_WriteTxData(((addr<<1)&0x7E)|0x80);// Equivalente a SPI.transfer(((addr<<1)&0x7E) | 0x80);
 303              		.loc 1 79 0
 304 0066 0198     		ldr	r0, [sp, #4]
 305 0068 FFF7FEFF 		bl	SPI_WriteTxData
 306              	.LVL43:
  80:RC522.c       **** 		values[index] = SPI_ReadRxData();
 307              		.loc 1 80 0
 308 006c 2E19     		adds	r6, r5, r4
 309 006e FFF7FEFF 		bl	SPI_ReadRxData
 310              	.LVL44:
 311 0072 3070     		strb	r0, [r6]
  81:RC522.c       ****         index++;
 312              		.loc 1 81 0
 313 0074 0134     		adds	r4, r4, #1
 314              	.LVL45:
 315 0076 E4B2     		uxtb	r4, r4
ARM GAS  C:\Users\ABAD_S~1\AppData\Local\Temp\cckPFQC2.s 			page 8


 316              	.LVL46:
 317              	.L15:
  77:RC522.c       ****         while ( ! (SPI_ReadTxStatus() & SPI_STS_SPI_IDLE) );
 318              		.loc 1 77 0
 319 0078 BC42     		cmp	r4, r7
 320 007a F0D3     		bcc	.L16
  82:RC522.c       **** 	}
  83:RC522.c       ****     SPI_WriteTxData(0x00);
 321              		.loc 1 83 0
 322 007c 0020     		movs	r0, #0
 323 007e FFF7FEFF 		bl	SPI_WriteTxData
 324              	.LVL47:
  84:RC522.c       **** 	values[index] = SPI_ReadRxData(); // Equivalente a val = SPI.transfer(0x00);
 325              		.loc 1 84 0
 326 0082 2C19     		adds	r4, r5, r4
 327              	.LVL48:
 328 0084 FFF7FEFF 		bl	SPI_ReadRxData
 329              	.LVL49:
 330 0088 2070     		strb	r0, [r4]
 331              	.LVL50:
 332              	.L10:
  85:RC522.c       **** 	//SSPCON1bits.SSPEN=0;   // Enable SPI port
  86:RC522.c       ****     //SS = true;
  87:RC522.c       **** } // End PCD_ReadRegisters()
 333              		.loc 1 87 0
 334 008a 03B0     		add	sp, sp, #12
 335              		@ sp needed
 336              	.LVL51:
 337 008c F0BD     		pop	{r4, r5, r6, r7, pc}
 338              		.cfi_endproc
 339              	.LFE36:
 340              		.size	PCD_ReadRegisters, .-PCD_ReadRegisters
 341 008e C046     		.section	.text.PCD_SetRegisterBitMask,"ax",%progbits
 342              		.align	2
 343              		.global	PCD_SetRegisterBitMask
 344              		.code	16
 345              		.thumb_func
 346              		.type	PCD_SetRegisterBitMask, %function
 347              	PCD_SetRegisterBitMask:
 348              	.LFB37:
  88:RC522.c       **** 
  89:RC522.c       **** void PCD_SetRegisterBitMask( unsigned char reg,   ///< The register to update. One of the PCD_Regis
  90:RC522.c       **** 							 unsigned char mask   ///< The bits to set.
  91:RC522.c       **** 									) { 
 349              		.loc 1 91 0
 350              		.cfi_startproc
 351              		@ args = 0, pretend = 0, frame = 0
 352              		@ frame_needed = 0, uses_anonymous_args = 0
 353              	.LVL52:
 354 0000 70B5     		push	{r4, r5, r6, lr}
 355              		.cfi_def_cfa_offset 16
 356              		.cfi_offset 4, -16
 357              		.cfi_offset 5, -12
 358              		.cfi_offset 6, -8
 359              		.cfi_offset 14, -4
 360 0002 0500     		movs	r5, r0
 361 0004 0C00     		movs	r4, r1
ARM GAS  C:\Users\ABAD_S~1\AppData\Local\Temp\cckPFQC2.s 			page 9


  92:RC522.c       **** 	unsigned char tmp;
  93:RC522.c       **** 	tmp = PCD_ReadRegister(reg);
 362              		.loc 1 93 0
 363 0006 FFF7FEFF 		bl	PCD_ReadRegister
 364              	.LVL53:
  94:RC522.c       **** 	PCD_WriteRegister(reg, tmp | mask);			// set bit mask
 365              		.loc 1 94 0
 366 000a 0443     		orrs	r4, r0
 367 000c E1B2     		uxtb	r1, r4
 368 000e 2800     		movs	r0, r5
 369              	.LVL54:
 370 0010 FFF7FEFF 		bl	PCD_WriteRegister
 371              	.LVL55:
  95:RC522.c       **** } // End PCD_SetRegisterBitMask()
 372              		.loc 1 95 0
 373              		@ sp needed
 374 0014 70BD     		pop	{r4, r5, r6, pc}
 375              		.cfi_endproc
 376              	.LFE37:
 377              		.size	PCD_SetRegisterBitMask, .-PCD_SetRegisterBitMask
 378 0016 C046     		.section	.text.PCD_ClearRegisterBitMask,"ax",%progbits
 379              		.align	2
 380              		.global	PCD_ClearRegisterBitMask
 381              		.code	16
 382              		.thumb_func
 383              		.type	PCD_ClearRegisterBitMask, %function
 384              	PCD_ClearRegisterBitMask:
 385              	.LFB38:
  96:RC522.c       **** 
  97:RC522.c       **** 
  98:RC522.c       **** void PCD_ClearRegisterBitMask(	unsigned char reg,	///< The register to update. One of the PCD_Regis
  99:RC522.c       **** 								unsigned char mask			///< The bits to clear.
 100:RC522.c       **** 									  ) {
 386              		.loc 1 100 0
 387              		.cfi_startproc
 388              		@ args = 0, pretend = 0, frame = 0
 389              		@ frame_needed = 0, uses_anonymous_args = 0
 390              	.LVL56:
 391 0000 70B5     		push	{r4, r5, r6, lr}
 392              		.cfi_def_cfa_offset 16
 393              		.cfi_offset 4, -16
 394              		.cfi_offset 5, -12
 395              		.cfi_offset 6, -8
 396              		.cfi_offset 14, -4
 397 0002 0400     		movs	r4, r0
 398 0004 0D00     		movs	r5, r1
 101:RC522.c       **** 	unsigned char tmp;
 102:RC522.c       **** 	tmp = PCD_ReadRegister(reg);
 399              		.loc 1 102 0
 400 0006 FFF7FEFF 		bl	PCD_ReadRegister
 401              	.LVL57:
 103:RC522.c       **** PCD_WriteRegister(reg,(~ mask & tmp));		//PCD_WriteRegister(reg,(tmp&(~mask)));		// clear bit mask
 402              		.loc 1 103 0
 403 000a A843     		bics	r0, r5
 404              	.LVL58:
 405 000c C1B2     		uxtb	r1, r0
 406 000e 2000     		movs	r0, r4
ARM GAS  C:\Users\ABAD_S~1\AppData\Local\Temp\cckPFQC2.s 			page 10


 407 0010 FFF7FEFF 		bl	PCD_WriteRegister
 408              	.LVL59:
 104:RC522.c       **** } // End PCD_ClearRegisterBitMask()
 409              		.loc 1 104 0
 410              		@ sp needed
 411 0014 70BD     		pop	{r4, r5, r6, pc}
 412              		.cfi_endproc
 413              	.LFE38:
 414              		.size	PCD_ClearRegisterBitMask, .-PCD_ClearRegisterBitMask
 415 0016 C046     		.section	.text.PCD_CalculateCRC,"ax",%progbits
 416              		.align	2
 417              		.global	PCD_CalculateCRC
 418              		.code	16
 419              		.thumb_func
 420              		.type	PCD_CalculateCRC, %function
 421              	PCD_CalculateCRC:
 422              	.LFB39:
 105:RC522.c       **** 
 106:RC522.c       **** unsigned char  PCD_CalculateCRC(	unsigned char *data,		///< In: Pointer to the data to transfer to 
 107:RC522.c       **** 						unsigned char length,	///< In: The number of bytes to transfer.
 108:RC522.c       **** 						unsigned char *result	///< Out: Pointer to result buffer. Result is written to result[0..1], 
 109:RC522.c       **** 					 ) {
 423              		.loc 1 109 0
 424              		.cfi_startproc
 425              		@ args = 0, pretend = 0, frame = 0
 426              		@ frame_needed = 0, uses_anonymous_args = 0
 427              	.LVL60:
 428 0000 70B5     		push	{r4, r5, r6, lr}
 429              		.cfi_def_cfa_offset 16
 430              		.cfi_offset 4, -16
 431              		.cfi_offset 5, -12
 432              		.cfi_offset 6, -8
 433              		.cfi_offset 14, -4
 434 0002 0600     		movs	r6, r0
 435 0004 0C00     		movs	r4, r1
 436 0006 1500     		movs	r5, r2
 110:RC522.c       **** 	PCD_WriteRegister(CommandReg, PCD_Idle);		// Stop any active command.
 437              		.loc 1 110 0
 438 0008 0021     		movs	r1, #0
 439              	.LVL61:
 440 000a 0120     		movs	r0, #1
 441              	.LVL62:
 442 000c FFF7FEFF 		bl	PCD_WriteRegister
 443              	.LVL63:
 111:RC522.c       **** 	PCD_WriteRegister(DivIrqReg, 0x04);				// Clear the CRCIRq interrupt request bit
 444              		.loc 1 111 0
 445 0010 0421     		movs	r1, #4
 446 0012 0520     		movs	r0, #5
 447 0014 FFF7FEFF 		bl	PCD_WriteRegister
 448              	.LVL64:
 112:RC522.c       **** 	PCD_WriteRegister(FIFOLevelReg, 0x80);			// FlushBuffer = 1, FIFO initialization
 449              		.loc 1 112 0
 450 0018 8021     		movs	r1, #128
 451 001a 0A20     		movs	r0, #10
 452 001c FFF7FEFF 		bl	PCD_WriteRegister
 453              	.LVL65:
 113:RC522.c       **** 	PCD_WriteRegisters(FIFODataReg, length, data);	// Write data to the FIFO
ARM GAS  C:\Users\ABAD_S~1\AppData\Local\Temp\cckPFQC2.s 			page 11


 454              		.loc 1 113 0
 455 0020 3200     		movs	r2, r6
 456 0022 2100     		movs	r1, r4
 457 0024 0920     		movs	r0, #9
 458 0026 FFF7FEFF 		bl	PCD_WriteRegisters
 459              	.LVL66:
 114:RC522.c       **** 	PCD_WriteRegister(CommandReg, PCD_CalcCRC);		// Start the calculation
 460              		.loc 1 114 0
 461 002a 0321     		movs	r1, #3
 462 002c 0120     		movs	r0, #1
 463 002e FFF7FEFF 		bl	PCD_WriteRegister
 464              	.LVL67:
 465              	.LBB4:
 115:RC522.c       **** 	
 116:RC522.c       **** 	// Wait for the CRC calculation to complete. Each iteration of the while-loop takes 17.73?s.
 117:RC522.c       **** 	// TODO check/modify for other architectures than Arduino Uno 16bit
 118:RC522.c       **** 
 119:RC522.c       **** 	// Wait for the CRC calculation to complete. Each iteration of the while-loop takes 17.73us.
 120:RC522.c       **** 	for (uint16_t i = 5000; i > 0; i--) {
 466              		.loc 1 120 0
 467 0032 0D4C     		ldr	r4, .L25
 468 0034 14E0     		b	.L21
 469              	.LVL68:
 470              	.L24:
 471              	.LBB5:
 121:RC522.c       **** 		// DivIrqReg[7..0] bits are: Set2 reserved reserved MfinActIRq reserved CRCIRq reserved reserved
 122:RC522.c       **** 		unsigned char n = PCD_ReadRegister(DivIrqReg);
 472              		.loc 1 122 0
 473 0036 0520     		movs	r0, #5
 474 0038 FFF7FEFF 		bl	PCD_ReadRegister
 475              	.LVL69:
 123:RC522.c       **** 		if (n & 0x04) {									// CRCIRq bit set - calculation done
 476              		.loc 1 123 0
 477 003c 4307     		lsls	r3, r0, #29
 478 003e 0DD5     		bpl	.L22
 124:RC522.c       **** 			PCD_WriteRegister(CommandReg, PCD_Idle);	// Stop calculating CRC for new content in the FIFO.
 479              		.loc 1 124 0
 480 0040 0021     		movs	r1, #0
 481 0042 0120     		movs	r0, #1
 482              	.LVL70:
 483 0044 FFF7FEFF 		bl	PCD_WriteRegister
 484              	.LVL71:
 125:RC522.c       **** 			// Transfer the result from the registers to the result buffer
 126:RC522.c       **** 			result[0] = PCD_ReadRegister(CRCResultRegL);
 485              		.loc 1 126 0
 486 0048 2220     		movs	r0, #34
 487 004a FFF7FEFF 		bl	PCD_ReadRegister
 488              	.LVL72:
 489 004e 2870     		strb	r0, [r5]
 127:RC522.c       **** 			result[1] = PCD_ReadRegister(CRCResultRegH);
 490              		.loc 1 127 0
 491 0050 2120     		movs	r0, #33
 492 0052 FFF7FEFF 		bl	PCD_ReadRegister
 493              	.LVL73:
 494 0056 6870     		strb	r0, [r5, #1]
 128:RC522.c       **** 			return STATUS_OK;
 495              		.loc 1 128 0
ARM GAS  C:\Users\ABAD_S~1\AppData\Local\Temp\cckPFQC2.s 			page 12


 496 0058 0020     		movs	r0, #0
 497 005a 04E0     		b	.L23
 498              	.LVL74:
 499              	.L22:
 500              	.LBE5:
 120:RC522.c       **** 		// DivIrqReg[7..0] bits are: Set2 reserved reserved MfinActIRq reserved CRCIRq reserved reserved
 501              		.loc 1 120 0 discriminator 2
 502 005c 013C     		subs	r4, r4, #1
 503              	.LVL75:
 504 005e A4B2     		uxth	r4, r4
 505              	.LVL76:
 506              	.L21:
 120:RC522.c       **** 		// DivIrqReg[7..0] bits are: Set2 reserved reserved MfinActIRq reserved CRCIRq reserved reserved
 507              		.loc 1 120 0 is_stmt 0 discriminator 1
 508 0060 002C     		cmp	r4, #0
 509 0062 E8D1     		bne	.L24
 510              	.LBE4:
 129:RC522.c       **** 		}
 130:RC522.c       **** 	}
 131:RC522.c       **** 	// 89ms passed and nothing happend. Communication with the MFRC522 might be down.
 132:RC522.c       **** 	return STATUS_TIMEOUT;
 511              		.loc 1 132 0 is_stmt 1
 512 0064 0320     		movs	r0, #3
 513              	.L23:
 133:RC522.c       **** }
 514              		.loc 1 133 0
 515              		@ sp needed
 516              	.LVL77:
 517              	.LVL78:
 518              	.LVL79:
 519 0066 70BD     		pop	{r4, r5, r6, pc}
 520              	.L26:
 521              		.align	2
 522              	.L25:
 523 0068 88130000 		.word	5000
 524              		.cfi_endproc
 525              	.LFE39:
 526              		.size	PCD_CalculateCRC, .-PCD_CalculateCRC
 527              		.section	.text.PCD_Reset,"ax",%progbits
 528              		.align	2
 529              		.global	PCD_Reset
 530              		.code	16
 531              		.thumb_func
 532              		.type	PCD_Reset, %function
 533              	PCD_Reset:
 534              	.LFB41:
 134:RC522.c       **** 
 135:RC522.c       **** 
 136:RC522.c       **** 
 137:RC522.c       **** 
 138:RC522.c       **** 
 139:RC522.c       **** void PCD_Init(void) {
 140:RC522.c       **** 	// Set the chipSelectPin as digital output, do not select the slave yet
 141:RC522.c       ****     bool hardReset;
 142:RC522.c       ****     SPI_Start();
 143:RC522.c       ****     //SS = true;
 144:RC522.c       ****     //rst entrada
ARM GAS  C:\Users\ABAD_S~1\AppData\Local\Temp\cckPFQC2.s 			page 13


 145:RC522.c       ****     
 146:RC522.c       ****     if (RESET_Read() == 0) {      
 147:RC522.c       ****     RESET_Write(0);		// Make shure we have a clean LOW state.
 148:RC522.c       ****     CyDelayUs(20);				// 8.8.1 Reset timing requirements says about 100ns. Let us be generous: 2?sl
 149:RC522.c       ****     RESET_Write(1); // Exit power down mode. This triggers a hard reset.
 150:RC522.c       ****     CyDelay(50);//Delay 50 ms
 151:RC522.c       **** 	hardReset = true;   
 152:RC522.c       ****     }
 153:RC522.c       ****     if(!hardReset){
 154:RC522.c       **** 	PCD_Reset();
 155:RC522.c       ****     }
 156:RC522.c       **** 	// Reset baud rates
 157:RC522.c       **** 	PCD_WriteRegister(TxModeReg, 0x00);
 158:RC522.c       **** 	PCD_WriteRegister(RxModeReg, 0x00);
 159:RC522.c       **** 	// Reset ModWidthReg
 160:RC522.c       **** 	PCD_WriteRegister(ModWidthReg, 0x26);
 161:RC522.c       **** 	// When communicating with a PICC we need a timeout if something goes wrong.
 162:RC522.c       **** 	// f_timer = 13.56 MHz / (2*TPreScaler+1) where TPreScaler = [TPrescaler_Hi:TPrescaler_Lo].
 163:RC522.c       **** 	// TPrescaler_Hi are the four low bits in TModeReg. TPrescaler_Lo is TPrescalerReg.
 164:RC522.c       **** 	PCD_WriteRegister(TModeReg, 0x80);			// TAuto=1;   —Ç–∞–π–º–µ—Ä –∑–∞–ø—É—Å–∫–∞–µ—Ç—Å—è –∞–≤—Ç–æ–º–
 165:RC522.c       **** 	PCD_WriteRegister(TPrescalerReg, 0xA9);		// TPreScaler = TModeReg[3..0]:TPrescalerReg, ie 0x0A9 = 
 166:RC522.c       **** 	PCD_WriteRegister(TReloadRegH, 0x03);		// Reload timer with 0x3E8 = 1000, ie 25ms before timeout.
 167:RC522.c       **** 	PCD_WriteRegister(TReloadRegL, 0xE8);
 168:RC522.c       **** 	PCD_WriteRegister(TxASKReg, 0x40);		// Default 0x00. –ü—Ä–∏–Ω—É–¥–∏—Ç–µ–ª—å–Ω–∞—è –º–æ–¥—É–ª—è—Ü–∏
 169:RC522.c       **** 	PCD_WriteRegister(ModeReg, 0x3D);		// Default 0x3F. –£—Å—Ç–∞–Ω–æ–≤–∏—Ç–µ –ø—Ä–µ–¥—É—Å—Ç–∞–Ω–æ–≤–ª–
 170:RC522.c       **** 	PCD_AntennaOn();						// Enable the antenna driver pins TX1 and TX2 (they were disabled by the res
 171:RC522.c       **** } // End PCD_Init()
 172:RC522.c       **** 
 173:RC522.c       **** void PCD_Reset(void){
 535              		.loc 1 173 0
 536              		.cfi_startproc
 537              		@ args = 0, pretend = 0, frame = 0
 538              		@ frame_needed = 0, uses_anonymous_args = 0
 539 0000 10B5     		push	{r4, lr}
 540              		.cfi_def_cfa_offset 8
 541              		.cfi_offset 4, -8
 542              		.cfi_offset 14, -4
 174:RC522.c       **** 	PCD_WriteRegister(CommandReg, PCD_SoftReset);	// Issue the SoftReset command.
 543              		.loc 1 174 0
 544 0002 0F21     		movs	r1, #15
 545 0004 0120     		movs	r0, #1
 546 0006 FFF7FEFF 		bl	PCD_WriteRegister
 547              	.LVL80:
 175:RC522.c       **** 	// The datasheet does not mention how unsigned long the SoftRest command takes to complete.
 176:RC522.c       **** 	// But the MFRC522 might have been in soft power-down mode (triggered by bit 4 of CommandReg) 
 177:RC522.c       **** 	// Section 8.8.2 in the datasheet says the oscillator start-up time is the start up time of the cr
 178:RC522.c       **** 	unsigned char count = 0;
 548              		.loc 1 178 0
 549 000a 0024     		movs	r4, #0
 550              	.LVL81:
 551              	.L29:
 179:RC522.c       **** 	do {
 180:RC522.c       **** 		// Wait for the PowerDown bit in CommandReg to be cleared (max 3x50ms)
 181:RC522.c       **** 	    CyDelay(50);
 552              		.loc 1 181 0 discriminator 2
 553 000c 3220     		movs	r0, #50
 554 000e FFF7FEFF 		bl	CyDelay
ARM GAS  C:\Users\ABAD_S~1\AppData\Local\Temp\cckPFQC2.s 			page 14


 555              	.LVL82:
 182:RC522.c       **** 	} while ((PCD_ReadRegister(CommandReg) & (1 << 4)) && (++count) < 3);
 556              		.loc 1 182 0 discriminator 2
 557 0012 0120     		movs	r0, #1
 558 0014 FFF7FEFF 		bl	PCD_ReadRegister
 559              	.LVL83:
 560 0018 C306     		lsls	r3, r0, #27
 561 001a 03D5     		bpl	.L27
 562              		.loc 1 182 0 is_stmt 0 discriminator 1
 563 001c 0134     		adds	r4, r4, #1
 564              	.LVL84:
 565 001e E4B2     		uxtb	r4, r4
 566              	.LVL85:
 567 0020 022C     		cmp	r4, #2
 568 0022 F3D9     		bls	.L29
 569              	.L27:
 183:RC522.c       **** } // End PCD_Reset()
 570              		.loc 1 183 0 is_stmt 1
 571              		@ sp needed
 572              	.LVL86:
 573 0024 10BD     		pop	{r4, pc}
 574              		.cfi_endproc
 575              	.LFE41:
 576              		.size	PCD_Reset, .-PCD_Reset
 577 0026 C046     		.section	.text.PCD_AntennaOn,"ax",%progbits
 578              		.align	2
 579              		.global	PCD_AntennaOn
 580              		.code	16
 581              		.thumb_func
 582              		.type	PCD_AntennaOn, %function
 583              	PCD_AntennaOn:
 584              	.LFB42:
 184:RC522.c       **** 
 185:RC522.c       **** void PCD_AntennaOn(void) {
 585              		.loc 1 185 0
 586              		.cfi_startproc
 587              		@ args = 0, pretend = 0, frame = 0
 588              		@ frame_needed = 0, uses_anonymous_args = 0
 589 0000 10B5     		push	{r4, lr}
 590              		.cfi_def_cfa_offset 8
 591              		.cfi_offset 4, -8
 592              		.cfi_offset 14, -4
 186:RC522.c       **** 	unsigned char value = PCD_ReadRegister(TxControlReg);
 593              		.loc 1 186 0
 594 0002 1420     		movs	r0, #20
 595 0004 FFF7FEFF 		bl	PCD_ReadRegister
 596              	.LVL87:
 187:RC522.c       **** 	// if ((value & 0x03) != 0x03) {
 188:RC522.c       **** 		PCD_WriteRegister(TxControlReg, value | 0x03);
 597              		.loc 1 188 0
 598 0008 0323     		movs	r3, #3
 599 000a 1843     		orrs	r0, r3
 600              	.LVL88:
 601 000c C1B2     		uxtb	r1, r0
 602 000e 1420     		movs	r0, #20
 603 0010 FFF7FEFF 		bl	PCD_WriteRegister
 604              	.LVL89:
ARM GAS  C:\Users\ABAD_S~1\AppData\Local\Temp\cckPFQC2.s 			page 15


 189:RC522.c       **** 	// }
 190:RC522.c       **** } // End PCD_AntennaOn()
 605              		.loc 1 190 0
 606              		@ sp needed
 607 0014 10BD     		pop	{r4, pc}
 608              		.cfi_endproc
 609              	.LFE42:
 610              		.size	PCD_AntennaOn, .-PCD_AntennaOn
 611 0016 C046     		.section	.text.PCD_Init,"ax",%progbits
 612              		.align	2
 613              		.global	PCD_Init
 614              		.code	16
 615              		.thumb_func
 616              		.type	PCD_Init, %function
 617              	PCD_Init:
 618              	.LFB40:
 139:RC522.c       **** 	// Set the chipSelectPin as digital output, do not select the slave yet
 619              		.loc 1 139 0
 620              		.cfi_startproc
 621              		@ args = 0, pretend = 0, frame = 0
 622              		@ frame_needed = 0, uses_anonymous_args = 0
 623 0000 10B5     		push	{r4, lr}
 624              		.cfi_def_cfa_offset 8
 625              		.cfi_offset 4, -8
 626              		.cfi_offset 14, -4
 142:RC522.c       ****     //SS = true;
 627              		.loc 1 142 0
 628 0002 FFF7FEFF 		bl	SPI_Start
 629              	.LVL90:
 146:RC522.c       ****     RESET_Write(0);		// Make shure we have a clean LOW state.
 630              		.loc 1 146 0
 631 0006 FFF7FEFF 		bl	RESET_Read
 632              	.LVL91:
 633 000a 0028     		cmp	r0, #0
 634 000c 0AD1     		bne	.L32
 147:RC522.c       ****     CyDelayUs(20);				// 8.8.1 Reset timing requirements says about 100ns. Let us be generous: 2?sl
 635              		.loc 1 147 0
 636 000e FFF7FEFF 		bl	RESET_Write
 637              	.LVL92:
 148:RC522.c       ****     RESET_Write(1); // Exit power down mode. This triggers a hard reset.
 638              		.loc 1 148 0
 639 0012 1420     		movs	r0, #20
 640 0014 FFF7FEFF 		bl	CyDelayUs
 641              	.LVL93:
 149:RC522.c       ****     CyDelay(50);//Delay 50 ms
 642              		.loc 1 149 0
 643 0018 0120     		movs	r0, #1
 644 001a FFF7FEFF 		bl	RESET_Write
 645              	.LVL94:
 150:RC522.c       **** 	hardReset = true;   
 646              		.loc 1 150 0
 647 001e 3220     		movs	r0, #50
 648 0020 FFF7FEFF 		bl	CyDelay
 649              	.LVL95:
 650              	.L32:
 157:RC522.c       **** 	PCD_WriteRegister(RxModeReg, 0x00);
 651              		.loc 1 157 0
ARM GAS  C:\Users\ABAD_S~1\AppData\Local\Temp\cckPFQC2.s 			page 16


 652 0024 0021     		movs	r1, #0
 653 0026 1220     		movs	r0, #18
 654 0028 FFF7FEFF 		bl	PCD_WriteRegister
 655              	.LVL96:
 158:RC522.c       **** 	// Reset ModWidthReg
 656              		.loc 1 158 0
 657 002c 0021     		movs	r1, #0
 658 002e 1320     		movs	r0, #19
 659 0030 FFF7FEFF 		bl	PCD_WriteRegister
 660              	.LVL97:
 160:RC522.c       **** 	// When communicating with a PICC we need a timeout if something goes wrong.
 661              		.loc 1 160 0
 662 0034 2621     		movs	r1, #38
 663 0036 2420     		movs	r0, #36
 664 0038 FFF7FEFF 		bl	PCD_WriteRegister
 665              	.LVL98:
 164:RC522.c       **** 	PCD_WriteRegister(TPrescalerReg, 0xA9);		// TPreScaler = TModeReg[3..0]:TPrescalerReg, ie 0x0A9 = 
 666              		.loc 1 164 0
 667 003c 8021     		movs	r1, #128
 668 003e 2A20     		movs	r0, #42
 669 0040 FFF7FEFF 		bl	PCD_WriteRegister
 670              	.LVL99:
 165:RC522.c       **** 	PCD_WriteRegister(TReloadRegH, 0x03);		// Reload timer with 0x3E8 = 1000, ie 25ms before timeout.
 671              		.loc 1 165 0
 672 0044 A921     		movs	r1, #169
 673 0046 2B20     		movs	r0, #43
 674 0048 FFF7FEFF 		bl	PCD_WriteRegister
 675              	.LVL100:
 166:RC522.c       **** 	PCD_WriteRegister(TReloadRegL, 0xE8);
 676              		.loc 1 166 0
 677 004c 0321     		movs	r1, #3
 678 004e 2C20     		movs	r0, #44
 679 0050 FFF7FEFF 		bl	PCD_WriteRegister
 680              	.LVL101:
 167:RC522.c       **** 	PCD_WriteRegister(TxASKReg, 0x40);		// Default 0x00. –ü—Ä–∏–Ω—É–¥–∏—Ç–µ–ª—å–Ω–∞—è –º–æ–¥—É–ª—è—Ü–∏
 681              		.loc 1 167 0
 682 0054 E821     		movs	r1, #232
 683 0056 2D20     		movs	r0, #45
 684 0058 FFF7FEFF 		bl	PCD_WriteRegister
 685              	.LVL102:
 168:RC522.c       **** 	PCD_WriteRegister(ModeReg, 0x3D);		// Default 0x3F. –£—Å—Ç–∞–Ω–æ–≤–∏—Ç–µ –ø—Ä–µ–¥—É—Å—Ç–∞–Ω–æ–≤–ª–
 686              		.loc 1 168 0
 687 005c 4021     		movs	r1, #64
 688 005e 1520     		movs	r0, #21
 689 0060 FFF7FEFF 		bl	PCD_WriteRegister
 690              	.LVL103:
 169:RC522.c       **** 	PCD_AntennaOn();						// Enable the antenna driver pins TX1 and TX2 (they were disabled by the res
 691              		.loc 1 169 0
 692 0064 3D21     		movs	r1, #61
 693 0066 1120     		movs	r0, #17
 694 0068 FFF7FEFF 		bl	PCD_WriteRegister
 695              	.LVL104:
 170:RC522.c       **** } // End PCD_Init()
 696              		.loc 1 170 0
 697 006c FFF7FEFF 		bl	PCD_AntennaOn
 698              	.LVL105:
 171:RC522.c       **** 
ARM GAS  C:\Users\ABAD_S~1\AppData\Local\Temp\cckPFQC2.s 			page 17


 699              		.loc 1 171 0
 700              		@ sp needed
 701 0070 10BD     		pop	{r4, pc}
 702              		.cfi_endproc
 703              	.LFE40:
 704              		.size	PCD_Init, .-PCD_Init
 705 0072 C046     		.section	.text.PCD_AntennaOff,"ax",%progbits
 706              		.align	2
 707              		.global	PCD_AntennaOff
 708              		.code	16
 709              		.thumb_func
 710              		.type	PCD_AntennaOff, %function
 711              	PCD_AntennaOff:
 712              	.LFB43:
 191:RC522.c       **** 
 192:RC522.c       **** void PCD_AntennaOff(void) {
 713              		.loc 1 192 0
 714              		.cfi_startproc
 715              		@ args = 0, pretend = 0, frame = 0
 716              		@ frame_needed = 0, uses_anonymous_args = 0
 717 0000 10B5     		push	{r4, lr}
 718              		.cfi_def_cfa_offset 8
 719              		.cfi_offset 4, -8
 720              		.cfi_offset 14, -4
 193:RC522.c       **** 	PCD_ClearRegisterBitMask(TxControlReg, 0x03);
 721              		.loc 1 193 0
 722 0002 0321     		movs	r1, #3
 723 0004 1420     		movs	r0, #20
 724 0006 FFF7FEFF 		bl	PCD_ClearRegisterBitMask
 725              	.LVL106:
 194:RC522.c       **** } // End PCD_AntennaOff()
 726              		.loc 1 194 0
 727              		@ sp needed
 728 000a 10BD     		pop	{r4, pc}
 729              		.cfi_endproc
 730              	.LFE43:
 731              		.size	PCD_AntennaOff, .-PCD_AntennaOff
 732              		.section	.text.PCD_GetAntennaGain,"ax",%progbits
 733              		.align	2
 734              		.global	PCD_GetAntennaGain
 735              		.code	16
 736              		.thumb_func
 737              		.type	PCD_GetAntennaGain, %function
 738              	PCD_GetAntennaGain:
 739              	.LFB44:
 195:RC522.c       **** 
 196:RC522.c       **** unsigned char PCD_GetAntennaGain() {
 740              		.loc 1 196 0
 741              		.cfi_startproc
 742              		@ args = 0, pretend = 0, frame = 0
 743              		@ frame_needed = 0, uses_anonymous_args = 0
 744 0000 10B5     		push	{r4, lr}
 745              		.cfi_def_cfa_offset 8
 746              		.cfi_offset 4, -8
 747              		.cfi_offset 14, -4
 197:RC522.c       **** 	return PCD_ReadRegister(RFCfgReg) & (0x07<<4);
 748              		.loc 1 197 0
ARM GAS  C:\Users\ABAD_S~1\AppData\Local\Temp\cckPFQC2.s 			page 18


 749 0002 2620     		movs	r0, #38
 750 0004 FFF7FEFF 		bl	PCD_ReadRegister
 751              	.LVL107:
 752 0008 7023     		movs	r3, #112
 753 000a 1840     		ands	r0, r3
 198:RC522.c       **** } // End PCD_GetAntennaGain()
 754              		.loc 1 198 0
 755              		@ sp needed
 756 000c 10BD     		pop	{r4, pc}
 757              		.cfi_endproc
 758              	.LFE44:
 759              		.size	PCD_GetAntennaGain, .-PCD_GetAntennaGain
 760 000e C046     		.section	.text.PCD_SetAntennaGain,"ax",%progbits
 761              		.align	2
 762              		.global	PCD_SetAntennaGain
 763              		.code	16
 764              		.thumb_func
 765              		.type	PCD_SetAntennaGain, %function
 766              	PCD_SetAntennaGain:
 767              	.LFB45:
 199:RC522.c       **** 
 200:RC522.c       **** void PCD_SetAntennaGain(unsigned char mask) {
 768              		.loc 1 200 0
 769              		.cfi_startproc
 770              		@ args = 0, pretend = 0, frame = 0
 771              		@ frame_needed = 0, uses_anonymous_args = 0
 772              	.LVL108:
 773 0000 10B5     		push	{r4, lr}
 774              		.cfi_def_cfa_offset 8
 775              		.cfi_offset 4, -8
 776              		.cfi_offset 14, -4
 777 0002 0400     		movs	r4, r0
 201:RC522.c       **** 	if (PCD_GetAntennaGain() != mask) {						// only bother if there is a change
 778              		.loc 1 201 0
 779 0004 FFF7FEFF 		bl	PCD_GetAntennaGain
 780              	.LVL109:
 781 0008 A042     		cmp	r0, r4
 782 000a 08D0     		beq	.L35
 202:RC522.c       **** 		PCD_ClearRegisterBitMask(RFCfgReg, (0x07<<4));		// clear needed to allow 000 pattern
 783              		.loc 1 202 0
 784 000c 7021     		movs	r1, #112
 785 000e 2620     		movs	r0, #38
 786 0010 FFF7FEFF 		bl	PCD_ClearRegisterBitMask
 787              	.LVL110:
 203:RC522.c       **** 		PCD_SetRegisterBitMask(RFCfgReg, mask & (0x07<<4));	// only set RxGain[2:0] bits
 788              		.loc 1 203 0
 789 0014 7021     		movs	r1, #112
 790 0016 2140     		ands	r1, r4
 791 0018 2620     		movs	r0, #38
 792 001a FFF7FEFF 		bl	PCD_SetRegisterBitMask
 793              	.LVL111:
 794              	.L35:
 204:RC522.c       **** 	}
 205:RC522.c       **** } // End PCD_SetAntennaGain()
 795              		.loc 1 205 0
 796              		@ sp needed
 797 001e 10BD     		pop	{r4, pc}
ARM GAS  C:\Users\ABAD_S~1\AppData\Local\Temp\cckPFQC2.s 			page 19


 798              		.cfi_endproc
 799              	.LFE45:
 800              		.size	PCD_SetAntennaGain, .-PCD_SetAntennaGain
 801              		.section	.text.PCD_PerformSelfTest,"ax",%progbits
 802              		.align	2
 803              		.global	PCD_PerformSelfTest
 804              		.code	16
 805              		.thumb_func
 806              		.type	PCD_PerformSelfTest, %function
 807              	PCD_PerformSelfTest:
 808              	.LFB46:
 206:RC522.c       **** 
 207:RC522.c       **** bool PCD_PerformSelfTest(void) {
 809              		.loc 1 207 0
 810              		.cfi_startproc
 811              		@ args = 0, pretend = 0, frame = 96
 812              		@ frame_needed = 0, uses_anonymous_args = 0
 813 0000 10B5     		push	{r4, lr}
 814              		.cfi_def_cfa_offset 8
 815              		.cfi_offset 4, -8
 816              		.cfi_offset 14, -4
 817 0002 98B0     		sub	sp, sp, #96
 818              		.cfi_def_cfa_offset 104
 208:RC522.c       **** 	// This follows directly the steps outlined in 16.1.1
 209:RC522.c       **** 	// 1. Perform a soft reset.
 210:RC522.c       **** 	PCD_Reset();
 819              		.loc 1 210 0
 820 0004 FFF7FEFF 		bl	PCD_Reset
 821              	.LVL112:
 211:RC522.c       **** 	// 2. Clear the internal buffer by writing 25 bytes of 00h
 212:RC522.c       **** 	unsigned char ZEROES[25] = {0x00};
 822              		.loc 1 212 0
 823 0008 1922     		movs	r2, #25
 824 000a 0021     		movs	r1, #0
 825 000c 11A8     		add	r0, sp, #68
 826 000e FFF7FEFF 		bl	memset
 827              	.LVL113:
 213:RC522.c       **** 	PCD_WriteRegister(FIFOLevelReg, 0x80);		// flush the FIFO buffer
 828              		.loc 1 213 0
 829 0012 8021     		movs	r1, #128
 830 0014 0A20     		movs	r0, #10
 831 0016 FFF7FEFF 		bl	PCD_WriteRegister
 832              	.LVL114:
 214:RC522.c       **** 	PCD_WriteRegisters(FIFODataReg, 25, ZEROES);	// write 25 bytes of 00h to FIFO
 833              		.loc 1 214 0
 834 001a 11AA     		add	r2, sp, #68
 835 001c 1921     		movs	r1, #25
 836 001e 0920     		movs	r0, #9
 837 0020 FFF7FEFF 		bl	PCD_WriteRegisters
 838              	.LVL115:
 215:RC522.c       **** 	PCD_WriteRegister(CommandReg, PCD_Mem);		// transfer to internal buffer
 839              		.loc 1 215 0
 840 0024 0121     		movs	r1, #1
 841 0026 0120     		movs	r0, #1
 842 0028 FFF7FEFF 		bl	PCD_WriteRegister
 843              	.LVL116:
 216:RC522.c       **** 	
ARM GAS  C:\Users\ABAD_S~1\AppData\Local\Temp\cckPFQC2.s 			page 20


 217:RC522.c       **** 	// 3. Enable self-test
 218:RC522.c       **** 	PCD_WriteRegister(AutoTestReg, 0x09);
 844              		.loc 1 218 0
 845 002c 0921     		movs	r1, #9
 846 002e 3620     		movs	r0, #54
 847 0030 FFF7FEFF 		bl	PCD_WriteRegister
 848              	.LVL117:
 219:RC522.c       **** 	
 220:RC522.c       **** 	// 4. Write 00h to FIFO buffer
 221:RC522.c       **** 	PCD_WriteRegister(FIFODataReg, 0x00);
 849              		.loc 1 221 0
 850 0034 0021     		movs	r1, #0
 851 0036 0920     		movs	r0, #9
 852 0038 FFF7FEFF 		bl	PCD_WriteRegister
 853              	.LVL118:
 222:RC522.c       **** 	
 223:RC522.c       **** 	// 5. Start self-test by issuing the CalcCRC command
 224:RC522.c       **** 	PCD_WriteRegister(CommandReg, PCD_CalcCRC);
 854              		.loc 1 224 0
 855 003c 0321     		movs	r1, #3
 856 003e 0120     		movs	r0, #1
 857 0040 FFF7FEFF 		bl	PCD_WriteRegister
 858              	.LVL119:
 859              	.LBB6:
 225:RC522.c       **** 	
 226:RC522.c       **** 	// 6. Wait for self-test to complete
 227:RC522.c       **** 	unsigned char n;
 228:RC522.c       **** 	for (uint8_t i = 0; i < 0xFF; i++) {
 860              		.loc 1 228 0
 861 0044 0024     		movs	r4, #0
 862 0046 06E0     		b	.L38
 863              	.LVL120:
 864              	.L40:
 229:RC522.c       **** 		// The datasheet does not specify exact completion condition except
 230:RC522.c       **** 		// that FIFO buffer should contain 64 bytes.
 231:RC522.c       **** 		// While selftest is initiated by CalcCRC command
 232:RC522.c       **** 		// it behaves differently from normal CRC computation,
 233:RC522.c       **** 		// so one can't reliably use DivIrqReg to check for completion.
 234:RC522.c       **** 		// It is reported that some devices does not trigger CRCIRq flag
 235:RC522.c       **** 		// during selftest.
 236:RC522.c       **** 		n = PCD_ReadRegister(FIFOLevelReg);
 865              		.loc 1 236 0
 866 0048 0A20     		movs	r0, #10
 867 004a FFF7FEFF 		bl	PCD_ReadRegister
 868              	.LVL121:
 237:RC522.c       **** 		if (n >= 64) {
 869              		.loc 1 237 0
 870 004e 3F28     		cmp	r0, #63
 871 0050 03D8     		bhi	.L39
 228:RC522.c       **** 		// The datasheet does not specify exact completion condition except
 872              		.loc 1 228 0 discriminator 2
 873 0052 0134     		adds	r4, r4, #1
 874              	.LVL122:
 875 0054 E4B2     		uxtb	r4, r4
 876              	.LVL123:
 877              	.L38:
 228:RC522.c       **** 		// The datasheet does not specify exact completion condition except
ARM GAS  C:\Users\ABAD_S~1\AppData\Local\Temp\cckPFQC2.s 			page 21


 878              		.loc 1 228 0 is_stmt 0 discriminator 1
 879 0056 FF2C     		cmp	r4, #255
 880 0058 F6D1     		bne	.L40
 881              	.L39:
 882              	.LBE6:
 238:RC522.c       **** 			break;
 239:RC522.c       **** 		}
 240:RC522.c       **** 	}
 241:RC522.c       **** 	PCD_WriteRegister(CommandReg, PCD_Idle);		// Stop calculating CRC for new content in the FIFO.
 883              		.loc 1 241 0 is_stmt 1
 884 005a 0021     		movs	r1, #0
 885 005c 0120     		movs	r0, #1
 886 005e FFF7FEFF 		bl	PCD_WriteRegister
 887              	.LVL124:
 242:RC522.c       **** 	
 243:RC522.c       **** 	// 7. Read out resulting 64 bytes from the FIFO buffer.
 244:RC522.c       **** 	unsigned char result[64];
 245:RC522.c       **** 	PCD_ReadRegisters(FIFODataReg, 64, result, 0);
 888              		.loc 1 245 0
 889 0062 0023     		movs	r3, #0
 890 0064 01AA     		add	r2, sp, #4
 891 0066 4021     		movs	r1, #64
 892 0068 0920     		movs	r0, #9
 893 006a FFF7FEFF 		bl	PCD_ReadRegisters
 894              	.LVL125:
 246:RC522.c       **** 	
 247:RC522.c       **** 	// Auto self-test done
 248:RC522.c       **** 	// Reset AutoTestReg register to be 0 again. Required for normal operation.
 249:RC522.c       **** 	PCD_WriteRegister(AutoTestReg, 0x00);
 895              		.loc 1 249 0
 896 006e 0021     		movs	r1, #0
 897 0070 3620     		movs	r0, #54
 898 0072 FFF7FEFF 		bl	PCD_WriteRegister
 899              	.LVL126:
 250:RC522.c       **** 	
 251:RC522.c       **** 	// Determine firmware version (see section 9.3.4.8 in spec)
 252:RC522.c       **** 	//unsigned char version = PCD_ReadRegister(VersionReg);
 253:RC522.c       **** 	
 254:RC522.c       **** 	// Pick the appropriate reference values
 255:RC522.c       ****     /*
 256:RC522.c       **** 	const unsigned char *reference;
 257:RC522.c       **** 	switch (version) {
 258:RC522.c       **** 		case 0x88:	// Fudan Semiconductor FM17522 clone
 259:RC522.c       **** 			reference = FM17522_firmware_reference;
 260:RC522.c       **** 			break;
 261:RC522.c       **** 		case 0x90:	// Version 0.0
 262:RC522.c       **** 			reference = MFRC522_firmware_referenceV0_0;
 263:RC522.c       **** 			break;
 264:RC522.c       **** 		case 0x91:	// Version 1.0
 265:RC522.c       **** 			reference = MFRC522_firmware_referenceV1_0;
 266:RC522.c       **** 			break;
 267:RC522.c       **** 		case 0x92:	// Version 2.0
 268:RC522.c       **** 			reference = MFRC522_firmware_referenceV2_0;
 269:RC522.c       **** 			break;
 270:RC522.c       **** 		default:	// Unknown version
 271:RC522.c       ****             reference = MFRC522_firmware_referenceV2_0;
 272:RC522.c       **** 			return false; // abort test
ARM GAS  C:\Users\ABAD_S~1\AppData\Local\Temp\cckPFQC2.s 			page 22


 273:RC522.c       **** 	}
 274:RC522.c       **** 	*/
 275:RC522.c       **** 	// Test passed; all is good.
 276:RC522.c       **** 	return true;
 277:RC522.c       **** } // End PCD_PerformSelfTest()
 900              		.loc 1 277 0
 901 0076 0120     		movs	r0, #1
 902 0078 18B0     		add	sp, sp, #96
 903              		@ sp needed
 904              	.LVL127:
 905 007a 10BD     		pop	{r4, pc}
 906              		.cfi_endproc
 907              	.LFE46:
 908              		.size	PCD_PerformSelfTest, .-PCD_PerformSelfTest
 909              		.section	.text.PCD_SoftPowerDown,"ax",%progbits
 910              		.align	2
 911              		.global	PCD_SoftPowerDown
 912              		.code	16
 913              		.thumb_func
 914              		.type	PCD_SoftPowerDown, %function
 915              	PCD_SoftPowerDown:
 916              	.LFB47:
 278:RC522.c       **** 
 279:RC522.c       **** 
 280:RC522.c       **** void PCD_SoftPowerDown(void){//Note : Only soft power down mode is available throught software
 917              		.loc 1 280 0
 918              		.cfi_startproc
 919              		@ args = 0, pretend = 0, frame = 0
 920              		@ frame_needed = 0, uses_anonymous_args = 0
 921 0000 10B5     		push	{r4, lr}
 922              		.cfi_def_cfa_offset 8
 923              		.cfi_offset 4, -8
 924              		.cfi_offset 14, -4
 281:RC522.c       **** 	unsigned char val = PCD_ReadRegister(CommandReg); // Read state of the command register 
 925              		.loc 1 281 0
 926 0002 0120     		movs	r0, #1
 927 0004 FFF7FEFF 		bl	PCD_ReadRegister
 928              	.LVL128:
 282:RC522.c       **** 	val |= (1<<4);// set PowerDown bit ( bit 4 ) to 1 
 929              		.loc 1 282 0
 930 0008 1023     		movs	r3, #16
 931 000a 1843     		orrs	r0, r3
 932              	.LVL129:
 933 000c C1B2     		uxtb	r1, r0
 934              	.LVL130:
 283:RC522.c       **** 	PCD_WriteRegister(CommandReg, val);//write new value to the command register
 935              		.loc 1 283 0
 936 000e 0120     		movs	r0, #1
 937 0010 FFF7FEFF 		bl	PCD_WriteRegister
 938              	.LVL131:
 284:RC522.c       **** }
 939              		.loc 1 284 0
 940              		@ sp needed
 941 0014 10BD     		pop	{r4, pc}
 942              		.cfi_endproc
 943              	.LFE47:
 944              		.size	PCD_SoftPowerDown, .-PCD_SoftPowerDown
ARM GAS  C:\Users\ABAD_S~1\AppData\Local\Temp\cckPFQC2.s 			page 23


 945 0016 C046     		.section	.text.PCD_SoftPowerUp,"ax",%progbits
 946              		.align	2
 947              		.global	PCD_SoftPowerUp
 948              		.code	16
 949              		.thumb_func
 950              		.type	PCD_SoftPowerUp, %function
 951              	PCD_SoftPowerUp:
 952              	.LFB48:
 285:RC522.c       **** 
 286:RC522.c       **** void PCD_SoftPowerUp(void){
 953              		.loc 1 286 0
 954              		.cfi_startproc
 955              		@ args = 0, pretend = 0, frame = 0
 956              		@ frame_needed = 0, uses_anonymous_args = 0
 957 0000 10B5     		push	{r4, lr}
 958              		.cfi_def_cfa_offset 8
 959              		.cfi_offset 4, -8
 960              		.cfi_offset 14, -4
 287:RC522.c       **** 	unsigned char val = PCD_ReadRegister(CommandReg); // Read state of the command register 
 961              		.loc 1 287 0
 962 0002 0120     		movs	r0, #1
 963 0004 FFF7FEFF 		bl	PCD_ReadRegister
 964              	.LVL132:
 288:RC522.c       **** 	val &= ~(1<<4);// set PowerDown bit ( bit 4 ) to 0 
 965              		.loc 1 288 0
 966 0008 1023     		movs	r3, #16
 967 000a 9843     		bics	r0, r3
 968              	.LVL133:
 969 000c C1B2     		uxtb	r1, r0
 970              	.LVL134:
 289:RC522.c       **** 	PCD_WriteRegister(CommandReg, val);//write new value to the command register
 971              		.loc 1 289 0
 972 000e 0120     		movs	r0, #1
 973 0010 FFF7FEFF 		bl	PCD_WriteRegister
 974              	.LVL135:
 290:RC522.c       **** 	// wait until PowerDown bit is cleared (this indicates end of wake up procedure) 
 291:RC522.c       **** 	uint16_t i=0;
 975              		.loc 1 291 0
 976 0014 0024     		movs	r4, #0
 292:RC522.c       **** 	while(i<=500){ // set timeout to 500 ms 
 977              		.loc 1 292 0
 978 0016 09E0     		b	.L43
 979              	.LVL136:
 980              	.L45:
 293:RC522.c       **** 		val = PCD_ReadRegister(CommandReg);// Read state of the command register
 981              		.loc 1 293 0
 982 0018 0120     		movs	r0, #1
 983 001a FFF7FEFF 		bl	PCD_ReadRegister
 984              	.LVL137:
 294:RC522.c       **** 		if(!(val & (1<<4))){ // if powerdown bit is 0 
 985              		.loc 1 294 0
 986 001e C306     		lsls	r3, r0, #27
 987 0020 08D5     		bpl	.L42
 295:RC522.c       **** 			break;// wake up procedure is finished 
 296:RC522.c       **** 		}
 297:RC522.c       ****         i=i+1;
 988              		.loc 1 297 0
ARM GAS  C:\Users\ABAD_S~1\AppData\Local\Temp\cckPFQC2.s 			page 24


 989 0022 0134     		adds	r4, r4, #1
 990              	.LVL138:
 991 0024 A4B2     		uxth	r4, r4
 992              	.LVL139:
 298:RC522.c       ****         CyDelay(1);
 993              		.loc 1 298 0
 994 0026 0120     		movs	r0, #1
 995              	.LVL140:
 996 0028 FFF7FEFF 		bl	CyDelay
 997              	.LVL141:
 998              	.L43:
 292:RC522.c       **** 		val = PCD_ReadRegister(CommandReg);// Read state of the command register
 999              		.loc 1 292 0
 1000 002c FA23     		movs	r3, #250
 1001 002e 5B00     		lsls	r3, r3, #1
 1002 0030 9C42     		cmp	r4, r3
 1003 0032 F1D9     		bls	.L45
 1004              	.L42:
 299:RC522.c       **** 	}
 300:RC522.c       **** }
 1005              		.loc 1 300 0
 1006              		@ sp needed
 1007              	.LVL142:
 1008 0034 10BD     		pop	{r4, pc}
 1009              		.cfi_endproc
 1010              	.LFE48:
 1011              		.size	PCD_SoftPowerUp, .-PCD_SoftPowerUp
 1012 0036 C046     		.section	.text.PCD_CommunicateWithPICC,"ax",%progbits
 1013              		.align	2
 1014              		.global	PCD_CommunicateWithPICC
 1015              		.code	16
 1016              		.thumb_func
 1017              		.type	PCD_CommunicateWithPICC, %function
 1018              	PCD_CommunicateWithPICC:
 1019              	.LFB50:
 301:RC522.c       **** 
 302:RC522.c       **** unsigned char PCD_TransceiveData(unsigned char *sendData,		///< Pointer to the data to transfer to 
 303:RC522.c       ****                                 unsigned char sendLen,		///< Number of bytes to transfer to the FIF
 304:RC522.c       **** 								unsigned char *backData,		///< nullptr or pointer to buffer if data should be read back aft
 305:RC522.c       **** 								unsigned char *backLen,		///< In: Max number of unsigned chars to write to *backData. Out: 
 306:RC522.c       **** 								unsigned char *validBits,	///< In/Out: The number of valid bits in the last byte. 0 for 8 v
 307:RC522.c       **** 								unsigned char rxAlign,		///< In: Defines the bit position in backData[0] for the first bit 
 308:RC522.c       **** 								bool checkCRC		///< In: True => The last two bytes of the response is assumed to be a CRC_A
 309:RC522.c       **** 								 ) {
 310:RC522.c       **** 	unsigned char waitIRq = 0x30;		// RxIRq and IdleIRq
 311:RC522.c       **** 	return PCD_CommunicateWithPICC(PCD_Transceive, waitIRq, sendData, sendLen, backData, backLen, vali
 312:RC522.c       **** } // End PCD_TransceiveData()
 313:RC522.c       **** 
 314:RC522.c       **** unsigned char PCD_CommunicateWithPICC(	unsigned char command,		///< The command to execute. One of 
 315:RC522.c       **** 														unsigned char waitIRq,		///< The bits in the ComIrqReg register that signals successf
 316:RC522.c       **** 														unsigned char *sendData,		///< Pointer to the data to transfer to the FIFO.
 317:RC522.c       **** 														unsigned char sendLen,		///< Number of unsigned chars to transfer to the FIFO.
 318:RC522.c       **** 														unsigned char *backData,		///< nullptr or pointer to buffer if data should be read ba
 319:RC522.c       **** 														unsigned char *backLen,		///< In: Max number of bytes to write to *backData. Out: The
 320:RC522.c       **** 														unsigned char *validBits,	///< In/Out: The number of valid bits in the last byte. 0 f
 321:RC522.c       **** 														unsigned char rxAlign,		///< In: Defines the bit position in backData[0] for the firs
 322:RC522.c       **** 														bool checkCRC		///< In: True => The last two bytes of the response is assumed to be a
ARM GAS  C:\Users\ABAD_S~1\AppData\Local\Temp\cckPFQC2.s 			page 25


 323:RC522.c       **** 									 ) {
 1020              		.loc 1 323 0
 1021              		.cfi_startproc
 1022              		@ args = 20, pretend = 0, frame = 16
 1023              		@ frame_needed = 0, uses_anonymous_args = 0
 1024              	.LVL143:
 1025 0000 F0B5     		push	{r4, r5, r6, r7, lr}
 1026              		.cfi_def_cfa_offset 20
 1027              		.cfi_offset 4, -20
 1028              		.cfi_offset 5, -16
 1029              		.cfi_offset 6, -12
 1030              		.cfi_offset 7, -8
 1031              		.cfi_offset 14, -4
 1032 0002 85B0     		sub	sp, sp, #20
 1033              		.cfi_def_cfa_offset 40
 1034 0004 0400     		movs	r4, r0
 1035 0006 0092     		str	r2, [sp]
 1036 0008 0193     		str	r3, [sp, #4]
 1037 000a 0DAB     		add	r3, sp, #52
 1038              	.LVL144:
 1039 000c 1D78     		ldrb	r5, [r3]
 1040 000e 0EAB     		add	r3, sp, #56
 1041              	.LVL145:
 1042 0010 1E78     		ldrb	r6, [r3]
 324:RC522.c       **** 	// Prepare values for BitFramingReg
 325:RC522.c       **** 	unsigned char txLastBits = validBits ? *validBits : 0;
 1043              		.loc 1 325 0
 1044 0012 0C9B     		ldr	r3, [sp, #48]
 1045              	.LVL146:
 1046 0014 002B     		cmp	r3, #0
 1047 0016 01D0     		beq	.L56
 1048              		.loc 1 325 0 is_stmt 0 discriminator 1
 1049 0018 1A78     		ldrb	r2, [r3]
 1050              	.LVL147:
 1051 001a 00E0     		b	.L47
 1052              	.LVL148:
 1053              	.L56:
 1054              		.loc 1 325 0
 1055 001c 0022     		movs	r2, #0
 1056              	.LVL149:
 1057              	.L47:
 326:RC522.c       **** 	unsigned char bitFraming = (rxAlign << 4) + txLastBits;		// RxAlign = BitFramingReg[6..4]. TxLastB
 1058              		.loc 1 326 0 is_stmt 1 discriminator 4
 1059 001e 2B01     		lsls	r3, r5, #4
 1060 0020 D318     		adds	r3, r2, r3
 1061 0022 DFB2     		uxtb	r7, r3
 1062              	.LVL150:
 327:RC522.c       **** 	
 328:RC522.c       **** 	PCD_WriteRegister(CommandReg, PCD_Idle);			// Stop any active command.
 1063              		.loc 1 328 0 discriminator 4
 1064 0024 0021     		movs	r1, #0
 1065              	.LVL151:
 1066 0026 0120     		movs	r0, #1
 1067              	.LVL152:
 1068 0028 FFF7FEFF 		bl	PCD_WriteRegister
 1069              	.LVL153:
 329:RC522.c       **** 	PCD_WriteRegister(ComIrqReg, 0x7F);					// Clear all seven interrupt request bits
ARM GAS  C:\Users\ABAD_S~1\AppData\Local\Temp\cckPFQC2.s 			page 26


 1070              		.loc 1 329 0 discriminator 4
 1071 002c 7F21     		movs	r1, #127
 1072 002e 0420     		movs	r0, #4
 1073 0030 FFF7FEFF 		bl	PCD_WriteRegister
 1074              	.LVL154:
 330:RC522.c       **** 	PCD_WriteRegister(FIFOLevelReg, 0x80);				// FlushBuffer = 1, FIFO initialization
 1075              		.loc 1 330 0 discriminator 4
 1076 0034 8021     		movs	r1, #128
 1077 0036 0A20     		movs	r0, #10
 1078 0038 FFF7FEFF 		bl	PCD_WriteRegister
 1079              	.LVL155:
 331:RC522.c       **** 	PCD_WriteRegisters(FIFODataReg, sendLen, sendData);	// Write sendData to the FIFO
 1080              		.loc 1 331 0 discriminator 4
 1081 003c 009A     		ldr	r2, [sp]
 1082 003e 0199     		ldr	r1, [sp, #4]
 1083 0040 0920     		movs	r0, #9
 1084 0042 FFF7FEFF 		bl	PCD_WriteRegisters
 1085              	.LVL156:
 332:RC522.c       **** 	PCD_WriteRegister(BitFramingReg, bitFraming);		// Bit adjustments
 1086              		.loc 1 332 0 discriminator 4
 1087 0046 3900     		movs	r1, r7
 1088 0048 0D20     		movs	r0, #13
 1089 004a FFF7FEFF 		bl	PCD_WriteRegister
 1090              	.LVL157:
 333:RC522.c       **** 	PCD_WriteRegister(CommandReg, command);				// Execute the command
 1091              		.loc 1 333 0 discriminator 4
 1092 004e 2100     		movs	r1, r4
 1093 0050 0120     		movs	r0, #1
 1094 0052 FFF7FEFF 		bl	PCD_WriteRegister
 1095              	.LVL158:
 334:RC522.c       **** 	if (command == PCD_Transceive) {
 1096              		.loc 1 334 0 discriminator 4
 1097 0056 0C2C     		cmp	r4, #12
 1098 0058 03D1     		bne	.L48
 335:RC522.c       **** 		PCD_SetRegisterBitMask(BitFramingReg, 0x80);	// StartSend=1, transmission of data starts
 1099              		.loc 1 335 0
 1100 005a 8021     		movs	r1, #128
 1101 005c 0D20     		movs	r0, #13
 1102 005e FFF7FEFF 		bl	PCD_SetRegisterBitMask
 1103              	.LVL159:
 1104              	.L48:
 325:RC522.c       **** 	unsigned char bitFraming = (rxAlign << 4) + txLastBits;		// RxAlign = BitFramingReg[6..4]. TxLastB
 1105              		.loc 1 325 0 discriminator 1
 1106 0062 FA24     		movs	r4, #250
 1107 0064 E400     		lsls	r4, r4, #3
 1108 0066 08E0     		b	.L49
 1109              	.LVL160:
 1110              	.L52:
 336:RC522.c       **** 	}
 337:RC522.c       **** 	
 338:RC522.c       **** 	// Wait for the command to complete.
 339:RC522.c       **** 	// In PCD_Init() we set the TAuto flag in TModeReg. This means the timer automatically starts when
 340:RC522.c       **** 	// Each iteration of the do-while-loop takes 17.86?s.
 341:RC522.c       **** 	// TODO check/modify for other architectures than Arduino Uno 16bit
 342:RC522.c       **** 	uint16_t i;
 343:RC522.c       ****     unsigned char n;
 344:RC522.c       **** 	for (i = 2000; i > 0; i--) {
ARM GAS  C:\Users\ABAD_S~1\AppData\Local\Temp\cckPFQC2.s 			page 27


 345:RC522.c       **** 		n = PCD_ReadRegister(ComIrqReg);	// ComIrqReg[7..0] bits are: Set1 TxIRq RxIRq IdleIRq HiAlertIRq
 1111              		.loc 1 345 0
 1112 0068 0420     		movs	r0, #4
 1113 006a FFF7FEFF 		bl	PCD_ReadRegister
 1114              	.LVL161:
 346:RC522.c       **** 		if (n == 0x64) {					// One of the interrupts that signal success has been set.
 1115              		.loc 1 346 0
 1116 006e 6428     		cmp	r0, #100
 1117 0070 05D0     		beq	.L50
 347:RC522.c       ****             break;
 348:RC522.c       **** 		}
 349:RC522.c       **** 		if (n & 0x01) {						// Timer interrupt - nothing received in 25ms
 1118              		.loc 1 349 0
 1119 0072 C307     		lsls	r3, r0, #31
 1120 0074 6AD4     		bmi	.L57
 344:RC522.c       **** 		n = PCD_ReadRegister(ComIrqReg);	// ComIrqReg[7..0] bits are: Set1 TxIRq RxIRq IdleIRq HiAlertIRq
 1121              		.loc 1 344 0 discriminator 2
 1122 0076 013C     		subs	r4, r4, #1
 1123              	.LVL162:
 1124 0078 A4B2     		uxth	r4, r4
 1125              	.LVL163:
 1126              	.L49:
 344:RC522.c       **** 		n = PCD_ReadRegister(ComIrqReg);	// ComIrqReg[7..0] bits are: Set1 TxIRq RxIRq IdleIRq HiAlertIRq
 1127              		.loc 1 344 0 is_stmt 0 discriminator 1
 1128 007a 002C     		cmp	r4, #0
 1129 007c F4D1     		bne	.L52
 1130              	.L50:
 350:RC522.c       **** 			return STATUS_TIMEOUT;
 351:RC522.c       **** 		}
 352:RC522.c       **** 	}
 353:RC522.c       **** 	// 35.7ms and nothing happend. Communication with the MFRC522 might be down.
 354:RC522.c       **** 	if (i == 0) {
 1131              		.loc 1 354 0 is_stmt 1
 1132 007e 002C     		cmp	r4, #0
 1133 0080 66D0     		beq	.L58
 355:RC522.c       **** 		return STATUS_TIMEOUT;
 356:RC522.c       **** 	}
 357:RC522.c       **** 	
 358:RC522.c       **** 	// Stop now if any errors except collisions were detected.
 359:RC522.c       **** 	unsigned char errorRegValue = PCD_ReadRegister(ErrorReg); // ErrorReg[7..0] bits are: WrErr TempEr
 1134              		.loc 1 359 0
 1135 0082 0620     		movs	r0, #6
 1136 0084 FFF7FEFF 		bl	PCD_ReadRegister
 1137              	.LVL164:
 1138 0088 0400     		movs	r4, r0
 1139              	.LVL165:
 360:RC522.c       **** 	if (errorRegValue & 0x13) {	 // BufferOvfl ParityErr ProtocolErr
 1140              		.loc 1 360 0
 1141 008a 1323     		movs	r3, #19
 1142 008c 0342     		tst	r3, r0
 1143 008e 61D1     		bne	.L59
 1144              	.LVL166:
 361:RC522.c       **** 		return STATUS_ERROR;
 362:RC522.c       **** 	}
 363:RC522.c       ****   
 364:RC522.c       **** 	unsigned char _validBits = 0;
 365:RC522.c       **** 	
ARM GAS  C:\Users\ABAD_S~1\AppData\Local\Temp\cckPFQC2.s 			page 28


 366:RC522.c       **** 	// If the caller wants data back, get it from the MFRC522.
 367:RC522.c       **** 	if (backData && backLen) {
 1145              		.loc 1 367 0
 1146 0090 0A9B     		ldr	r3, [sp, #40]
 1147 0092 002B     		cmp	r3, #0
 1148 0094 1BD0     		beq	.L60
 1149              		.loc 1 367 0 is_stmt 0 discriminator 1
 1150 0096 0B9B     		ldr	r3, [sp, #44]
 1151 0098 002B     		cmp	r3, #0
 1152 009a 1AD0     		beq	.L61
 1153              	.LBB7:
 368:RC522.c       **** 		unsigned char n = PCD_ReadRegister(FIFOLevelReg);	// Number of bytes in the FIFO
 1154              		.loc 1 368 0 is_stmt 1
 1155 009c 0A20     		movs	r0, #10
 1156              	.LVL167:
 1157 009e FFF7FEFF 		bl	PCD_ReadRegister
 1158              	.LVL168:
 369:RC522.c       **** 		if (n > *backLen) {
 1159              		.loc 1 369 0
 1160 00a2 0B9B     		ldr	r3, [sp, #44]
 1161 00a4 1B78     		ldrb	r3, [r3]
 1162 00a6 9842     		cmp	r0, r3
 1163 00a8 56D8     		bhi	.L62
 370:RC522.c       **** 			return STATUS_NO_ROOM;
 371:RC522.c       **** 		}
 372:RC522.c       **** 		*backLen = n;											// Number of bytes returned
 1164              		.loc 1 372 0
 1165 00aa 0B9B     		ldr	r3, [sp, #44]
 1166 00ac 1870     		strb	r0, [r3]
 373:RC522.c       **** 		PCD_ReadRegisters(FIFODataReg, n, backData, rxAlign);	// Get received data from FIFO
 1167              		.loc 1 373 0
 1168 00ae 2B00     		movs	r3, r5
 1169 00b0 0A9A     		ldr	r2, [sp, #40]
 1170 00b2 0100     		movs	r1, r0
 1171 00b4 0920     		movs	r0, #9
 1172              	.LVL169:
 1173 00b6 FFF7FEFF 		bl	PCD_ReadRegisters
 1174              	.LVL170:
 374:RC522.c       **** 		_validBits = PCD_ReadRegister(ControlReg) & 0x07;		// RxLastBits[2:0] indicates the number of val
 1175              		.loc 1 374 0
 1176 00ba 0C20     		movs	r0, #12
 1177 00bc FFF7FEFF 		bl	PCD_ReadRegister
 1178              	.LVL171:
 1179 00c0 0723     		movs	r3, #7
 1180 00c2 1840     		ands	r0, r3
 1181              	.LVL172:
 375:RC522.c       **** 		if (validBits) {
 1182              		.loc 1 375 0
 1183 00c4 0C9B     		ldr	r3, [sp, #48]
 1184 00c6 002B     		cmp	r3, #0
 1185 00c8 04D0     		beq	.L53
 376:RC522.c       **** 			*validBits = _validBits;
 1186              		.loc 1 376 0
 1187 00ca 1870     		strb	r0, [r3]
 1188 00cc 02E0     		b	.L53
 1189              	.LVL173:
 1190              	.L60:
ARM GAS  C:\Users\ABAD_S~1\AppData\Local\Temp\cckPFQC2.s 			page 29


 1191              	.LBE7:
 364:RC522.c       **** 	
 1192              		.loc 1 364 0
 1193 00ce 0020     		movs	r0, #0
 1194              	.LVL174:
 1195 00d0 00E0     		b	.L53
 1196              	.LVL175:
 1197              	.L61:
 1198 00d2 0020     		movs	r0, #0
 1199              	.LVL176:
 1200              	.L53:
 1201 00d4 0823     		movs	r3, #8
 1202 00d6 1C40     		ands	r4, r3
 377:RC522.c       **** 		}
 378:RC522.c       **** 	}
 379:RC522.c       **** 	
 380:RC522.c       **** 	// Tell about collisions
 381:RC522.c       **** 	if (errorRegValue & 0x08) {		// CollErr
 1203              		.loc 1 381 0
 1204 00d8 40D1     		bne	.L63
 382:RC522.c       **** 		return STATUS_COLLISION;
 383:RC522.c       **** 	}
 384:RC522.c       **** 	
 385:RC522.c       **** 	// Perform CRC_A validation if requested.
 386:RC522.c       **** 	if (backData && backLen && checkCRC) {
 1205              		.loc 1 386 0
 1206 00da 0A9B     		ldr	r3, [sp, #40]
 1207 00dc 002B     		cmp	r3, #0
 1208 00de 3ED0     		beq	.L51
 1209              		.loc 1 386 0 is_stmt 0 discriminator 1
 1210 00e0 0B9B     		ldr	r3, [sp, #44]
 1211 00e2 002B     		cmp	r3, #0
 1212 00e4 3BD0     		beq	.L51
 1213              		.loc 1 386 0 discriminator 2
 1214 00e6 002E     		cmp	r6, #0
 1215 00e8 39D0     		beq	.L51
 1216              	.LBB8:
 387:RC522.c       **** 		// In this case a MIFARE Classic NAK is not OK.
 388:RC522.c       **** 		if (*backLen == 1 && _validBits == 4) {
 1217              		.loc 1 388 0 is_stmt 1
 1218 00ea 1B78     		ldrb	r3, [r3]
 1219 00ec 012B     		cmp	r3, #1
 1220 00ee 01D1     		bne	.L54
 1221              		.loc 1 388 0 is_stmt 0 discriminator 1
 1222 00f0 0428     		cmp	r0, #4
 1223 00f2 1FD0     		beq	.L64
 1224              	.L54:
 389:RC522.c       **** 			return STATUS_MIFARE_NACK;
 390:RC522.c       **** 		}
 391:RC522.c       **** 		// We need at least the CRC_A value and all 8 bits of the last byte must be received.
 392:RC522.c       **** 		if (*backLen < 2 || _validBits != 0) {
 1225              		.loc 1 392 0 is_stmt 1
 1226 00f4 012B     		cmp	r3, #1
 1227 00f6 1FD9     		bls	.L65
 1228              		.loc 1 392 0 is_stmt 0 discriminator 1
 1229 00f8 0028     		cmp	r0, #0
 1230 00fa 1FD1     		bne	.L66
ARM GAS  C:\Users\ABAD_S~1\AppData\Local\Temp\cckPFQC2.s 			page 30


 393:RC522.c       **** 			return STATUS_CRC_WRONG;
 394:RC522.c       **** 		}
 395:RC522.c       **** 		// Verify CRC_A - do our own calculation and store the control in controlBuffer.
 396:RC522.c       **** 		unsigned char controlBuffer[2];
 397:RC522.c       **** 		unsigned char status = PCD_CalculateCRC(&backData[0], *backLen - 2, &controlBuffer[0]);
 1231              		.loc 1 397 0 is_stmt 1
 1232 00fc 023B     		subs	r3, r3, #2
 1233 00fe D9B2     		uxtb	r1, r3
 1234 0100 03AA     		add	r2, sp, #12
 1235 0102 0A98     		ldr	r0, [sp, #40]
 1236              	.LVL177:
 1237 0104 FFF7FEFF 		bl	PCD_CalculateCRC
 1238              	.LVL178:
 398:RC522.c       **** 		if (status != STATUS_OK) {
 1239              		.loc 1 398 0
 1240 0108 0028     		cmp	r0, #0
 1241 010a 19D1     		bne	.L67
 399:RC522.c       **** 			return status;
 400:RC522.c       **** 		}
 401:RC522.c       **** 		if ((backData[*backLen - 2] != controlBuffer[0]) || (backData[*backLen - 1] != controlBuffer[1]))
 1242              		.loc 1 401 0
 1243 010c 0B9B     		ldr	r3, [sp, #44]
 1244 010e 1B78     		ldrb	r3, [r3]
 1245 0110 0A9A     		ldr	r2, [sp, #40]
 1246 0112 D218     		adds	r2, r2, r3
 1247 0114 023A     		subs	r2, r2, #2
 1248 0116 1178     		ldrb	r1, [r2]
 1249 0118 03AA     		add	r2, sp, #12
 1250 011a 1278     		ldrb	r2, [r2]
 1251 011c 9142     		cmp	r1, r2
 1252 011e 11D1     		bne	.L68
 1253              		.loc 1 401 0 is_stmt 0 discriminator 1
 1254 0120 0A9A     		ldr	r2, [sp, #40]
 1255 0122 9446     		mov	ip, r2
 1256 0124 6344     		add	r3, r3, ip
 1257 0126 013B     		subs	r3, r3, #1
 1258 0128 1A78     		ldrb	r2, [r3]
 1259 012a 03AB     		add	r3, sp, #12
 1260 012c 5B78     		ldrb	r3, [r3, #1]
 1261 012e 9A42     		cmp	r2, r3
 1262 0130 0AD1     		bne	.L69
 1263 0132 14E0     		b	.L51
 1264              	.LVL179:
 1265              	.L64:
 389:RC522.c       **** 		}
 1266              		.loc 1 389 0 is_stmt 1
 1267 0134 FF24     		movs	r4, #255
 1268 0136 12E0     		b	.L51
 1269              	.L65:
 393:RC522.c       **** 		}
 1270              		.loc 1 393 0
 1271 0138 0724     		movs	r4, #7
 1272 013a 10E0     		b	.L51
 1273              	.L66:
 1274 013c 0724     		movs	r4, #7
 1275 013e 0EE0     		b	.L51
 1276              	.LVL180:
ARM GAS  C:\Users\ABAD_S~1\AppData\Local\Temp\cckPFQC2.s 			page 31


 1277              	.L67:
 399:RC522.c       **** 			return status;
 1278              		.loc 1 399 0
 1279 0140 0400     		movs	r4, r0
 1280 0142 0CE0     		b	.L51
 1281              	.L68:
 402:RC522.c       **** 			return STATUS_CRC_WRONG;
 1282              		.loc 1 402 0
 1283 0144 0724     		movs	r4, #7
 1284 0146 0AE0     		b	.L51
 1285              	.L69:
 1286 0148 0724     		movs	r4, #7
 1287 014a 08E0     		b	.L51
 1288              	.LVL181:
 1289              	.L57:
 1290              	.LBE8:
 350:RC522.c       **** 		}
 1291              		.loc 1 350 0
 1292 014c 0324     		movs	r4, #3
 1293              	.LVL182:
 1294 014e 06E0     		b	.L51
 1295              	.LVL183:
 1296              	.L58:
 355:RC522.c       **** 	}
 1297              		.loc 1 355 0
 1298 0150 0324     		movs	r4, #3
 1299              	.LVL184:
 1300 0152 04E0     		b	.L51
 1301              	.LVL185:
 1302              	.L59:
 361:RC522.c       **** 	}
 1303              		.loc 1 361 0
 1304 0154 0124     		movs	r4, #1
 1305 0156 02E0     		b	.L51
 1306              	.LVL186:
 1307              	.L62:
 1308              	.LBB9:
 370:RC522.c       **** 		}
 1309              		.loc 1 370 0
 1310 0158 0424     		movs	r4, #4
 1311 015a 00E0     		b	.L51
 1312              	.LVL187:
 1313              	.L63:
 1314              	.LBE9:
 382:RC522.c       **** 	}
 1315              		.loc 1 382 0
 1316 015c 0224     		movs	r4, #2
 1317              	.LVL188:
 1318              	.L51:
 403:RC522.c       **** 		}
 404:RC522.c       **** 	}
 405:RC522.c       **** 	
 406:RC522.c       **** 	return STATUS_OK;
 407:RC522.c       **** } // End PCD_CommunicateWithPICC()
 1319              		.loc 1 407 0
 1320 015e 2000     		movs	r0, r4
 1321 0160 05B0     		add	sp, sp, #20
ARM GAS  C:\Users\ABAD_S~1\AppData\Local\Temp\cckPFQC2.s 			page 32


 1322              	.LVL189:
 1323              		@ sp needed
 1324              	.LVL190:
 1325 0162 F0BD     		pop	{r4, r5, r6, r7, pc}
 1326              		.cfi_endproc
 1327              	.LFE50:
 1328              		.size	PCD_CommunicateWithPICC, .-PCD_CommunicateWithPICC
 1329              		.section	.text.PCD_TransceiveData,"ax",%progbits
 1330              		.align	2
 1331              		.global	PCD_TransceiveData
 1332              		.code	16
 1333              		.thumb_func
 1334              		.type	PCD_TransceiveData, %function
 1335              	PCD_TransceiveData:
 1336              	.LFB49:
 309:RC522.c       **** 	unsigned char waitIRq = 0x30;		// RxIRq and IdleIRq
 1337              		.loc 1 309 0
 1338              		.cfi_startproc
 1339              		@ args = 12, pretend = 0, frame = 0
 1340              		@ frame_needed = 0, uses_anonymous_args = 0
 1341              	.LVL191:
 1342 0000 70B5     		push	{r4, r5, r6, lr}
 1343              		.cfi_def_cfa_offset 16
 1344              		.cfi_offset 4, -16
 1345              		.cfi_offset 5, -12
 1346              		.cfi_offset 6, -8
 1347              		.cfi_offset 14, -4
 1348 0002 86B0     		sub	sp, sp, #24
 1349              		.cfi_def_cfa_offset 40
 1350 0004 0AAC     		add	r4, sp, #40
 1351              	.LVL192:
 1352 0006 20CC     		ldmia	r4!, {r5}
 1353              	.LVL193:
 1354 0008 2478     		ldrb	r4, [r4]
 1355              	.LVL194:
 1356 000a 0CAE     		add	r6, sp, #48
 1357              	.LVL195:
 1358 000c 3678     		ldrb	r6, [r6]
 1359              	.LVL196:
 311:RC522.c       **** } // End PCD_TransceiveData()
 1360              		.loc 1 311 0
 1361 000e 0496     		str	r6, [sp, #16]
 1362 0010 0394     		str	r4, [sp, #12]
 1363 0012 0295     		str	r5, [sp, #8]
 1364 0014 0193     		str	r3, [sp, #4]
 1365 0016 0092     		str	r2, [sp]
 1366 0018 0B00     		movs	r3, r1
 1367              	.LVL197:
 1368 001a 0200     		movs	r2, r0
 1369              	.LVL198:
 1370 001c 3021     		movs	r1, #48
 1371              	.LVL199:
 1372 001e 0C20     		movs	r0, #12
 1373              	.LVL200:
 1374 0020 FFF7FEFF 		bl	PCD_CommunicateWithPICC
 1375              	.LVL201:
 312:RC522.c       **** 
ARM GAS  C:\Users\ABAD_S~1\AppData\Local\Temp\cckPFQC2.s 			page 33


 1376              		.loc 1 312 0
 1377 0024 06B0     		add	sp, sp, #24
 1378              		@ sp needed
 1379 0026 70BD     		pop	{r4, r5, r6, pc}
 1380              		.cfi_endproc
 1381              	.LFE49:
 1382              		.size	PCD_TransceiveData, .-PCD_TransceiveData
 1383              		.section	.text.PICC_REQA_or_WUPA,"ax",%progbits
 1384              		.align	2
 1385              		.global	PICC_REQA_or_WUPA
 1386              		.code	16
 1387              		.thumb_func
 1388              		.type	PICC_REQA_or_WUPA, %function
 1389              	PICC_REQA_or_WUPA:
 1390              	.LFB53:
 408:RC522.c       **** 
 409:RC522.c       **** 
 410:RC522.c       **** unsigned char PICC_RequestA(	unsigned char *bufferATQA,	///< The buffer to store the ATQA (Answer t
 411:RC522.c       **** 								unsigned char *bufferSize	///< Buffer size, at least two bytes. Also number of bytes return
 412:RC522.c       **** 										) {
 413:RC522.c       **** 	return PICC_REQA_or_WUPA(PICC_CMD_REQA, bufferATQA, bufferSize);
 414:RC522.c       **** } // End PICC_RequestA()
 415:RC522.c       **** 
 416:RC522.c       **** unsigned char PICC_WakeupA(	unsigned char *bufferATQA,	///< The buffer to store the ATQA (Answer to
 417:RC522.c       **** 							unsigned char *bufferSize	///< Buffer size, at least two bytes. Also number of bytes returne
 418:RC522.c       **** 										) {
 419:RC522.c       **** 	return PICC_REQA_or_WUPA(PICC_CMD_WUPA, bufferATQA, bufferSize);
 420:RC522.c       **** } // End PICC_WakeupA()
 421:RC522.c       **** 
 422:RC522.c       **** unsigned char PICC_REQA_or_WUPA(	unsigned char command, 		///< The command to send - PICC_CMD_REQA 
 423:RC522.c       **** 									unsigned char *bufferATQA,	///< The buffer to store the ATQA (Answer to request) in
 424:RC522.c       **** 									unsigned char *bufferSize	///< Buffer size, at least two bytes. Also number of bytes retur
 425:RC522.c       **** 											) {
 1391              		.loc 1 425 0
 1392              		.cfi_startproc
 1393              		@ args = 0, pretend = 0, frame = 16
 1394              		@ frame_needed = 0, uses_anonymous_args = 0
 1395              	.LVL202:
 1396 0000 30B5     		push	{r4, r5, lr}
 1397              		.cfi_def_cfa_offset 12
 1398              		.cfi_offset 4, -12
 1399              		.cfi_offset 5, -8
 1400              		.cfi_offset 14, -4
 1401 0002 89B0     		sub	sp, sp, #36
 1402              		.cfi_def_cfa_offset 48
 1403 0004 0C00     		movs	r4, r1
 1404 0006 1500     		movs	r5, r2
 1405 0008 1723     		movs	r3, #23
 1406 000a 6B44     		add	r3, r3, sp
 1407 000c 1870     		strb	r0, [r3]
 426:RC522.c       **** 	unsigned char validBits;
 427:RC522.c       **** 	unsigned char status;
 428:RC522.c       **** 	
 429:RC522.c       **** 	if (bufferATQA == NULL || (*bufferSize < 2)) {	// The ATQA response is 2 bytes unsigned long.
 1408              		.loc 1 429 0
 1409 000e 0029     		cmp	r1, #0
 1410 0010 21D0     		beq	.L73
ARM GAS  C:\Users\ABAD_S~1\AppData\Local\Temp\cckPFQC2.s 			page 34


 1411              		.loc 1 429 0 is_stmt 0 discriminator 1
 1412 0012 1378     		ldrb	r3, [r2]
 1413 0014 012B     		cmp	r3, #1
 1414 0016 20D9     		bls	.L74
 430:RC522.c       **** 		return STATUS_NO_ROOM;
 431:RC522.c       **** 	}
 432:RC522.c       **** 	PCD_ClearRegisterBitMask(CollReg, 0x80);		// ValuesAfterColl=1 => Bits received after collision ar
 1415              		.loc 1 432 0 is_stmt 1
 1416 0018 8021     		movs	r1, #128
 1417              	.LVL203:
 1418 001a 0E20     		movs	r0, #14
 1419              	.LVL204:
 1420 001c FFF7FEFF 		bl	PCD_ClearRegisterBitMask
 1421              	.LVL205:
 433:RC522.c       **** 	validBits = 7;									// For REQA and WUPA we need the short frame format - transmit only 7 bits 
 1422              		.loc 1 433 0
 1423 0020 1F23     		movs	r3, #31
 1424 0022 6B44     		add	r3, r3, sp
 1425 0024 0722     		movs	r2, #7
 1426 0026 1A70     		strb	r2, [r3]
 434:RC522.c       **** 	status = PCD_TransceiveData(&command, 1, bufferATQA, bufferSize, &validBits, 0x0 ,false);
 1427              		.loc 1 434 0
 1428 0028 0022     		movs	r2, #0
 1429 002a 0292     		str	r2, [sp, #8]
 1430 002c 0192     		str	r2, [sp, #4]
 1431 002e 0093     		str	r3, [sp]
 1432 0030 2B00     		movs	r3, r5
 1433 0032 2200     		movs	r2, r4
 1434 0034 0121     		movs	r1, #1
 1435 0036 1720     		movs	r0, #23
 1436              	.LVL206:
 1437 0038 6844     		add	r0, r0, sp
 1438              	.LVL207:
 1439 003a FFF7FEFF 		bl	PCD_TransceiveData
 1440              	.LVL208:
 435:RC522.c       **** 	if (status != STATUS_OK) {
 1441              		.loc 1 435 0
 1442 003e 0028     		cmp	r0, #0
 1443 0040 0ED1     		bne	.L72
 436:RC522.c       **** 		return status;
 437:RC522.c       **** 	}
 438:RC522.c       **** 	if (*bufferSize != 2 || validBits != 0) {		// ATQA must be exactly 16 bits.
 1444              		.loc 1 438 0
 1445 0042 2B78     		ldrb	r3, [r5]
 1446 0044 022B     		cmp	r3, #2
 1447 0046 0AD1     		bne	.L76
 1448              		.loc 1 438 0 is_stmt 0 discriminator 1
 1449 0048 1D33     		adds	r3, r3, #29
 1450 004a 6B44     		add	r3, r3, sp
 1451 004c 1878     		ldrb	r0, [r3]
 1452              	.LVL209:
 1453 004e 0028     		cmp	r0, #0
 1454 0050 06D0     		beq	.L72
 439:RC522.c       **** 		return STATUS_ERROR;
 1455              		.loc 1 439 0 is_stmt 1
 1456 0052 0120     		movs	r0, #1
 1457 0054 04E0     		b	.L72
ARM GAS  C:\Users\ABAD_S~1\AppData\Local\Temp\cckPFQC2.s 			page 35


 1458              	.LVL210:
 1459              	.L73:
 430:RC522.c       **** 	}
 1460              		.loc 1 430 0
 1461 0056 0420     		movs	r0, #4
 1462              	.LVL211:
 1463 0058 02E0     		b	.L72
 1464              	.LVL212:
 1465              	.L74:
 1466 005a 0420     		movs	r0, #4
 1467              	.LVL213:
 1468 005c 00E0     		b	.L72
 1469              	.LVL214:
 1470              	.L76:
 1471              		.loc 1 439 0
 1472 005e 0120     		movs	r0, #1
 1473              	.LVL215:
 1474              	.L72:
 440:RC522.c       **** 	}
 441:RC522.c       **** 	return STATUS_OK;
 442:RC522.c       **** } // End PICC_REQA_or_WUPA()
 1475              		.loc 1 442 0
 1476 0060 09B0     		add	sp, sp, #36
 1477              		@ sp needed
 1478              	.LVL216:
 1479              	.LVL217:
 1480 0062 30BD     		pop	{r4, r5, pc}
 1481              		.cfi_endproc
 1482              	.LFE53:
 1483              		.size	PICC_REQA_or_WUPA, .-PICC_REQA_or_WUPA
 1484              		.section	.text.PICC_RequestA,"ax",%progbits
 1485              		.align	2
 1486              		.global	PICC_RequestA
 1487              		.code	16
 1488              		.thumb_func
 1489              		.type	PICC_RequestA, %function
 1490              	PICC_RequestA:
 1491              	.LFB51:
 412:RC522.c       **** 	return PICC_REQA_or_WUPA(PICC_CMD_REQA, bufferATQA, bufferSize);
 1492              		.loc 1 412 0
 1493              		.cfi_startproc
 1494              		@ args = 0, pretend = 0, frame = 0
 1495              		@ frame_needed = 0, uses_anonymous_args = 0
 1496              	.LVL218:
 1497 0000 10B5     		push	{r4, lr}
 1498              		.cfi_def_cfa_offset 8
 1499              		.cfi_offset 4, -8
 1500              		.cfi_offset 14, -4
 1501 0002 0A00     		movs	r2, r1
 413:RC522.c       **** } // End PICC_RequestA()
 1502              		.loc 1 413 0
 1503 0004 0100     		movs	r1, r0
 1504              	.LVL219:
 1505 0006 2620     		movs	r0, #38
 1506              	.LVL220:
 1507 0008 FFF7FEFF 		bl	PICC_REQA_or_WUPA
 1508              	.LVL221:
ARM GAS  C:\Users\ABAD_S~1\AppData\Local\Temp\cckPFQC2.s 			page 36


 414:RC522.c       **** 
 1509              		.loc 1 414 0
 1510              		@ sp needed
 1511 000c 10BD     		pop	{r4, pc}
 1512              		.cfi_endproc
 1513              	.LFE51:
 1514              		.size	PICC_RequestA, .-PICC_RequestA
 1515 000e C046     		.section	.text.PICC_WakeupA,"ax",%progbits
 1516              		.align	2
 1517              		.global	PICC_WakeupA
 1518              		.code	16
 1519              		.thumb_func
 1520              		.type	PICC_WakeupA, %function
 1521              	PICC_WakeupA:
 1522              	.LFB52:
 418:RC522.c       **** 	return PICC_REQA_or_WUPA(PICC_CMD_WUPA, bufferATQA, bufferSize);
 1523              		.loc 1 418 0
 1524              		.cfi_startproc
 1525              		@ args = 0, pretend = 0, frame = 0
 1526              		@ frame_needed = 0, uses_anonymous_args = 0
 1527              	.LVL222:
 1528 0000 10B5     		push	{r4, lr}
 1529              		.cfi_def_cfa_offset 8
 1530              		.cfi_offset 4, -8
 1531              		.cfi_offset 14, -4
 1532 0002 0A00     		movs	r2, r1
 419:RC522.c       **** } // End PICC_WakeupA()
 1533              		.loc 1 419 0
 1534 0004 0100     		movs	r1, r0
 1535              	.LVL223:
 1536 0006 5220     		movs	r0, #82
 1537              	.LVL224:
 1538 0008 FFF7FEFF 		bl	PICC_REQA_or_WUPA
 1539              	.LVL225:
 420:RC522.c       **** 
 1540              		.loc 1 420 0
 1541              		@ sp needed
 1542 000c 10BD     		pop	{r4, pc}
 1543              		.cfi_endproc
 1544              	.LFE52:
 1545              		.size	PICC_WakeupA, .-PICC_WakeupA
 1546 000e C046     		.section	.text.PICC_Select,"ax",%progbits
 1547              		.align	2
 1548              		.global	PICC_Select
 1549              		.code	16
 1550              		.thumb_func
 1551              		.type	PICC_Select, %function
 1552              	PICC_Select:
 1553              	.LFB54:
 443:RC522.c       **** 
 444:RC522.c       **** 
 445:RC522.c       **** 
 446:RC522.c       **** unsigned char PICC_Select(	Uid *uid,			///< Pointer to Uid struct. Normally output, but can also be
 447:RC522.c       **** 											unsigned char validBits		///< The number of known UID bits supplied in *uid. Normally 0.
 448:RC522.c       **** 										 ) {
 1554              		.loc 1 448 0
 1555              		.cfi_startproc
ARM GAS  C:\Users\ABAD_S~1\AppData\Local\Temp\cckPFQC2.s 			page 37


 1556              		@ args = 0, pretend = 0, frame = 32
 1557              		@ frame_needed = 0, uses_anonymous_args = 0
 1558              	.LVL226:
 1559 0000 F0B5     		push	{r4, r5, r6, r7, lr}
 1560              		.cfi_def_cfa_offset 20
 1561              		.cfi_offset 4, -20
 1562              		.cfi_offset 5, -16
 1563              		.cfi_offset 6, -12
 1564              		.cfi_offset 7, -8
 1565              		.cfi_offset 14, -4
 1566 0002 5F46     		mov	r7, fp
 1567 0004 5646     		mov	r6, r10
 1568 0006 4D46     		mov	r5, r9
 1569 0008 4446     		mov	r4, r8
 1570 000a F0B4     		push	{r4, r5, r6, r7}
 1571              		.cfi_def_cfa_offset 36
 1572              		.cfi_offset 8, -36
 1573              		.cfi_offset 9, -32
 1574              		.cfi_offset 10, -28
 1575              		.cfi_offset 11, -24
 1576 000c 8DB0     		sub	sp, sp, #52
 1577              		.cfi_def_cfa_offset 88
 1578 000e 8246     		mov	r10, r0
 1579 0010 0591     		str	r1, [sp, #20]
 1580              	.LVL227:
 449:RC522.c       **** 	bool uidComplete;
 450:RC522.c       **** 	bool selectDone;
 451:RC522.c       **** 	bool useCascadeTag;
 452:RC522.c       **** 	unsigned char cascadeLevel = 1;
 453:RC522.c       **** 	unsigned char result;
 454:RC522.c       **** 	unsigned char count;
 455:RC522.c       **** 	unsigned char checkBit;
 456:RC522.c       **** 	unsigned char index;
 457:RC522.c       ****     unsigned char uidIndex;					// The first index in uid->uidByte[] that is used in the current Ca
 458:RC522.c       **** 	int8_t currentLevelKnownBits;		// The number of known UID bits in the current Cascade Level.
 459:RC522.c       **** 	unsigned char buffer[9];					// The SELECT/ANTICOLLISION commands uses a 7 byte standard frame + 2
 460:RC522.c       **** 	unsigned char bufferUsed;				// The number of bytes used in the buffer, ie the number of bytes to 
 461:RC522.c       **** 	unsigned char rxAlign;					// Used in BitFramingReg. Defines the bit position for the first bit re
 462:RC522.c       **** 	unsigned char txLastBits;				// Used in BitFramingReg. The number of valid bits in the last transm
 463:RC522.c       **** 	unsigned char *responseBuffer;
 464:RC522.c       **** 	unsigned char responseLength;
 465:RC522.c       **** 	
 466:RC522.c       **** 	// Description of buffer structure:
 467:RC522.c       **** 	//		Byte 0: SEL 				Indicates the Cascade Level: PICC_CMD_SEL_CL1, PICC_CMD_SEL_CL2 or PICC_CMD_SE
 468:RC522.c       **** 	//		Byte 1: NVB					Number of Valid Bits (in complete command, not just the UID): High nibble: com
 469:RC522.c       **** 	//		Byte 2: UID-data or CT		See explanation below. CT means Cascade Tag.
 470:RC522.c       **** 	//		Byte 3: UID-data
 471:RC522.c       **** 	//		Byte 4: UID-data
 472:RC522.c       **** 	//		Byte 5: UID-data
 473:RC522.c       **** 	//		Byte 6: BCC					Block Check Character - XOR of bytes 2-5
 474:RC522.c       **** 	//		Byte 7: CRC_A
 475:RC522.c       **** 	//		Byte 8: CRC_A
 476:RC522.c       **** 	// The BCC and CRC_A are only transmitted if we know all the UID bits of the current Cascade Level
 477:RC522.c       **** 	//
 478:RC522.c       **** 	// Description of bytes 2-5: (Section 6.5.4 of the ISO/IEC 14443-3 draft: UID contents and cascade
 479:RC522.c       **** 	//		UID size	Cascade level	Byte2	Byte3	Byte4	Byte5
 480:RC522.c       **** 	//		========	=============	=====	=====	=====	=====
ARM GAS  C:\Users\ABAD_S~1\AppData\Local\Temp\cckPFQC2.s 			page 38


 481:RC522.c       **** 	//		 4 bytes		1			uid0	uid1	uid2	uid3
 482:RC522.c       **** 	//		 7 bytes		1			CT		uid0	uid1	uid2
 483:RC522.c       **** 	//						2			uid3	uid4	uid5	uid6
 484:RC522.c       **** 	//		10 bytes		1			CT		uid0	uid1	uid2
 485:RC522.c       **** 	//						2			CT		uid3	uid4	uid5
 486:RC522.c       **** 	//						3			uid6	uid7	uid8	uid9
 487:RC522.c       **** 	
 488:RC522.c       **** 	// Sanity checks
 489:RC522.c       **** 	if (validBits > 80) {
 1581              		.loc 1 489 0
 1582 0012 5029     		cmp	r1, #80
 1583 0014 00D9     		bls	.LCB1498
 1584 0016 6FE1     		b	.L110	@long jump
 1585              	.LCB1498:
 490:RC522.c       **** 		return STATUS_INVALID;
 491:RC522.c       **** 	}
 492:RC522.c       **** 	
 493:RC522.c       **** 	// Prepare MFRC522
 494:RC522.c       **** 	PCD_ClearRegisterBitMask(CollReg, 0x80);		// ValuesAfterColl=1 => Bits received after collision ar
 1586              		.loc 1 494 0
 1587 0018 8021     		movs	r1, #128
 1588              	.LVL228:
 1589 001a 0E20     		movs	r0, #14
 1590              	.LVL229:
 1591 001c FFF7FEFF 		bl	PCD_ClearRegisterBitMask
 1592              	.LVL230:
 452:RC522.c       **** 	unsigned char result;
 1593              		.loc 1 452 0
 1594 0020 0123     		movs	r3, #1
 1595 0022 0693     		str	r3, [sp, #24]
 495:RC522.c       **** 	
 496:RC522.c       **** 	// Repeat Cascade Level loop until we have a complete UID.
 497:RC522.c       **** 	uidComplete = false;
 1596              		.loc 1 497 0
 1597 0024 0023     		movs	r3, #0
 1598 0026 0793     		str	r3, [sp, #28]
 498:RC522.c       **** 	while (!uidComplete) {
 1599              		.loc 1 498 0
 1600 0028 59E1     		b	.L81
 1601              	.LVL231:
 1602              	.L109:
 1603              	.LBB10:
 499:RC522.c       **** 		// Set the Cascade Level in the SEL byte, find out if we need to use the Cascade Tag in byte 2.
 500:RC522.c       **** 		switch (cascadeLevel) {
 1604              		.loc 1 500 0
 1605 002a 069B     		ldr	r3, [sp, #24]
 1606 002c 022B     		cmp	r3, #2
 1607 002e 17D0     		beq	.L82
 1608 0030 032B     		cmp	r3, #3
 1609 0032 28D0     		beq	.L83
 1610 0034 012B     		cmp	r3, #1
 1611 0036 00D0     		beq	.LCB1524
 1612 0038 60E1     		b	.L132	@long jump
 1613              	.LCB1524:
 501:RC522.c       **** 			case 1:
 502:RC522.c       **** 				buffer[0] = PICC_CMD_SEL_CL1;
 1614              		.loc 1 502 0
ARM GAS  C:\Users\ABAD_S~1\AppData\Local\Temp\cckPFQC2.s 			page 39


 1615 003a 9322     		movs	r2, #147
 1616 003c 09AB     		add	r3, sp, #36
 1617 003e 1A70     		strb	r2, [r3]
 1618              	.LVL232:
 503:RC522.c       **** 				uidIndex = 0;
 504:RC522.c       **** 				useCascadeTag = validBits && uid->size > 4;	// When we know that the UID has more than 4 bytes
 1619              		.loc 1 504 0
 1620 0040 059B     		ldr	r3, [sp, #20]
 1621 0042 002B     		cmp	r3, #0
 1622 0044 05D0     		beq	.L112
 1623              		.loc 1 504 0 is_stmt 0 discriminator 1
 1624 0046 5346     		mov	r3, r10
 1625 0048 1B78     		ldrb	r3, [r3]
 1626 004a 042B     		cmp	r3, #4
 1627 004c 03D8     		bhi	.L113
 1628              		.loc 1 504 0
 1629 004e 0020     		movs	r0, #0
 1630 0050 02E0     		b	.L85
 1631              	.L112:
 1632 0052 0020     		movs	r0, #0
 1633 0054 00E0     		b	.L85
 1634              	.L113:
 1635 0056 0120     		movs	r0, #1
 1636              	.L85:
 1637              		.loc 1 504 0 discriminator 6
 1638 0058 8046     		mov	r8, r0
 1639              	.LVL233:
 503:RC522.c       **** 				uidIndex = 0;
 1640              		.loc 1 503 0 is_stmt 1 discriminator 6
 1641 005a 0023     		movs	r3, #0
 1642 005c 9B46     		mov	fp, r3
 505:RC522.c       **** 				break;
 1643              		.loc 1 505 0 discriminator 6
 1644 005e 19E0     		b	.L86
 1645              	.LVL234:
 1646              	.L82:
 506:RC522.c       **** 			
 507:RC522.c       **** 			case 2:
 508:RC522.c       **** 				buffer[0] = PICC_CMD_SEL_CL2;
 1647              		.loc 1 508 0
 1648 0060 9522     		movs	r2, #149
 1649 0062 09AB     		add	r3, sp, #36
 1650 0064 1A70     		strb	r2, [r3]
 1651              	.LVL235:
 509:RC522.c       **** 				uidIndex = 3;
 510:RC522.c       **** 				useCascadeTag = validBits && uid->size > 7;	// When we know that the UID has more than 7 bytes
 1652              		.loc 1 510 0
 1653 0066 059B     		ldr	r3, [sp, #20]
 1654 0068 002B     		cmp	r3, #0
 1655 006a 05D0     		beq	.L114
 1656              		.loc 1 510 0 is_stmt 0 discriminator 1
 1657 006c 5346     		mov	r3, r10
 1658 006e 1B78     		ldrb	r3, [r3]
 1659 0070 072B     		cmp	r3, #7
 1660 0072 03D8     		bhi	.L115
 1661              		.loc 1 510 0
 1662 0074 0020     		movs	r0, #0
ARM GAS  C:\Users\ABAD_S~1\AppData\Local\Temp\cckPFQC2.s 			page 40


 1663 0076 02E0     		b	.L87
 1664              	.L114:
 1665 0078 0020     		movs	r0, #0
 1666 007a 00E0     		b	.L87
 1667              	.L115:
 1668 007c 0120     		movs	r0, #1
 1669              	.L87:
 1670              		.loc 1 510 0 discriminator 6
 1671 007e 8046     		mov	r8, r0
 1672              	.LVL236:
 509:RC522.c       **** 				uidIndex = 3;
 1673              		.loc 1 509 0 is_stmt 1 discriminator 6
 1674 0080 0323     		movs	r3, #3
 1675 0082 9B46     		mov	fp, r3
 511:RC522.c       **** 				break;
 1676              		.loc 1 511 0 discriminator 6
 1677 0084 06E0     		b	.L86
 1678              	.LVL237:
 1679              	.L83:
 512:RC522.c       **** 			
 513:RC522.c       **** 			case 3:
 514:RC522.c       **** 				buffer[0] = PICC_CMD_SEL_CL3;
 1680              		.loc 1 514 0
 1681 0086 9722     		movs	r2, #151
 1682 0088 09AB     		add	r3, sp, #36
 1683 008a 1A70     		strb	r2, [r3]
 1684              	.LVL238:
 515:RC522.c       **** 				uidIndex = 6;
 1685              		.loc 1 515 0
 1686 008c 0623     		movs	r3, #6
 1687 008e 9B46     		mov	fp, r3
 516:RC522.c       **** 				useCascadeTag = false;						// Never used in CL3.
 1688              		.loc 1 516 0
 1689 0090 0023     		movs	r3, #0
 1690 0092 9846     		mov	r8, r3
 1691              	.LVL239:
 1692              	.L86:
 517:RC522.c       **** 				break;
 518:RC522.c       **** 			
 519:RC522.c       **** 			default:
 520:RC522.c       **** 				return STATUS_INTERNAL_ERROR;
 521:RC522.c       **** 				break;
 522:RC522.c       **** 		}
 523:RC522.c       **** 		
 524:RC522.c       **** 		// How many UID bits are known in this Cascade Level?
 525:RC522.c       **** 		currentLevelKnownBits = validBits - (8 * uidIndex);
 1693              		.loc 1 525 0
 1694 0094 5B46     		mov	r3, fp
 1695 0096 DD00     		lsls	r5, r3, #3
 1696 0098 059B     		ldr	r3, [sp, #20]
 1697 009a 5D1B     		subs	r5, r3, r5
 1698 009c 6DB2     		sxtb	r5, r5
 1699              	.LVL240:
 526:RC522.c       **** 		if (currentLevelKnownBits < 0) {
 1700              		.loc 1 526 0
 1701 009e 002D     		cmp	r5, #0
 1702 00a0 00DA     		bge	.L88
ARM GAS  C:\Users\ABAD_S~1\AppData\Local\Temp\cckPFQC2.s 			page 41


 527:RC522.c       **** 			currentLevelKnownBits = 0;
 1703              		.loc 1 527 0
 1704 00a2 0025     		movs	r5, #0
 1705              	.LVL241:
 1706              	.L88:
 528:RC522.c       **** 		}
 529:RC522.c       **** 		// Copy the known bits from uid->uidByte[] to buffer[]
 530:RC522.c       **** 		index = 2; // destination index in buffer[]
 531:RC522.c       **** 		if (useCascadeTag) {
 1707              		.loc 1 531 0
 1708 00a4 4346     		mov	r3, r8
 1709 00a6 002B     		cmp	r3, #0
 1710 00a8 04D0     		beq	.L117
 1711              	.LVL242:
 532:RC522.c       **** 			buffer[index++] = PICC_CMD_CT;
 1712              		.loc 1 532 0
 1713 00aa 8822     		movs	r2, #136
 1714 00ac 09AB     		add	r3, sp, #36
 1715 00ae 9A70     		strb	r2, [r3, #2]
 1716 00b0 0321     		movs	r1, #3
 1717 00b2 00E0     		b	.L89
 1718              	.LVL243:
 1719              	.L117:
 530:RC522.c       **** 		if (useCascadeTag) {
 1720              		.loc 1 530 0
 1721 00b4 0221     		movs	r1, #2
 1722              	.LVL244:
 1723              	.L89:
 533:RC522.c       **** 		}
 534:RC522.c       **** 		unsigned char bytesToCopy = currentLevelKnownBits / 8 + (currentLevelKnownBits % 8 ? 1 : 0); // T
 1724              		.loc 1 534 0
 1725 00b6 EBB2     		uxtb	r3, r5
 1726 00b8 9C46     		mov	ip, r3
 1727 00ba 0723     		movs	r3, #7
 1728 00bc 6246     		mov	r2, ip
 1729 00be 1340     		ands	r3, r2
 1730 00c0 1F00     		movs	r7, r3
 1731 00c2 7B1E     		subs	r3, r7, #1
 1732 00c4 9F41     		sbcs	r7, r7, r3
 1733 00c6 EA17     		asrs	r2, r5, #31
 1734 00c8 0723     		movs	r3, #7
 1735 00ca 1340     		ands	r3, r2
 1736 00cc 5B19     		adds	r3, r3, r5
 1737 00ce DB10     		asrs	r3, r3, #3
 1738 00d0 FB18     		adds	r3, r7, r3
 1739 00d2 DBB2     		uxtb	r3, r3
 1740              	.LVL245:
 535:RC522.c       **** 		if (bytesToCopy) {
 1741              		.loc 1 535 0
 1742 00d4 002B     		cmp	r3, #0
 1743 00d6 1DD0     		beq	.L90
 1744              	.LBB11:
 536:RC522.c       **** 			unsigned char maxBytes = useCascadeTag ? 3 : 4; // Max 4 bytes in each Cascade Level. Only 3 lef
 1745              		.loc 1 536 0
 1746 00d8 4246     		mov	r2, r8
 1747 00da 002A     		cmp	r2, #0
 1748 00dc 01D0     		beq	.L118
ARM GAS  C:\Users\ABAD_S~1\AppData\Local\Temp\cckPFQC2.s 			page 42


 1749 00de 0327     		movs	r7, #3
 1750 00e0 00E0     		b	.L91
 1751              	.L118:
 1752 00e2 0427     		movs	r7, #4
 1753              	.L91:
 1754              	.LVL246:
 537:RC522.c       **** 			if (bytesToCopy > maxBytes) {
 1755              		.loc 1 537 0 discriminator 4
 1756 00e4 9F42     		cmp	r7, r3
 1757 00e6 00D3     		bcc	.L92
 1758              	.LBE11:
 534:RC522.c       **** 		if (bytesToCopy) {
 1759              		.loc 1 534 0
 1760 00e8 1F00     		movs	r7, r3
 1761              	.LVL247:
 1762              	.L92:
 1763              	.LBB12:
 538:RC522.c       **** 				bytesToCopy = maxBytes;
 539:RC522.c       **** 			}
 540:RC522.c       **** 			for (count = 0; count < bytesToCopy; count++) {
 1764              		.loc 1 540 0
 1765 00ea 0023     		movs	r3, #0
 1766 00ec 5C46     		mov	r4, fp
 1767 00ee A946     		mov	r9, r5
 1768 00f0 5546     		mov	r5, r10
 1769              	.LVL248:
 1770 00f2 B246     		mov	r10, r6
 1771              	.LVL249:
 1772 00f4 08E0     		b	.L93
 1773              	.LVL250:
 1774              	.L94:
 541:RC522.c       **** 				buffer[index++] = uid->uidByte[uidIndex + count];
 1775              		.loc 1 541 0 discriminator 3
 1776 00f6 481C     		adds	r0, r1, #1
 1777              	.LVL251:
 1778 00f8 E218     		adds	r2, r4, r3
 1779 00fa AA18     		adds	r2, r5, r2
 1780 00fc 5678     		ldrb	r6, [r2, #1]
 1781 00fe 09AA     		add	r2, sp, #36
 1782 0100 5654     		strb	r6, [r2, r1]
 540:RC522.c       **** 				buffer[index++] = uid->uidByte[uidIndex + count];
 1783              		.loc 1 540 0 discriminator 3
 1784 0102 0133     		adds	r3, r3, #1
 1785              	.LVL252:
 1786 0104 DBB2     		uxtb	r3, r3
 1787              	.LVL253:
 1788              		.loc 1 541 0 discriminator 3
 1789 0106 C1B2     		uxtb	r1, r0
 1790              	.LVL254:
 1791              	.L93:
 540:RC522.c       **** 				buffer[index++] = uid->uidByte[uidIndex + count];
 1792              		.loc 1 540 0 discriminator 1
 1793 0108 BB42     		cmp	r3, r7
 1794 010a F4D3     		bcc	.L94
 1795 010c A346     		mov	fp, r4
 1796              	.LVL255:
 1797 010e 5646     		mov	r6, r10
ARM GAS  C:\Users\ABAD_S~1\AppData\Local\Temp\cckPFQC2.s 			page 43


 1798 0110 AA46     		mov	r10, r5
 1799              	.LVL256:
 1800 0112 4D46     		mov	r5, r9
 1801              	.LVL257:
 1802              	.L90:
 1803              	.LBE12:
 542:RC522.c       **** 			}
 543:RC522.c       **** 		}
 544:RC522.c       **** 		// Now that the data has been copied we need to include the 8 bits in CT in currentLevelKnownBits
 545:RC522.c       **** 		if (useCascadeTag) {
 1804              		.loc 1 545 0
 1805 0114 4346     		mov	r3, r8
 1806 0116 002B     		cmp	r3, #0
 1807 0118 02D0     		beq	.L95
 546:RC522.c       **** 			currentLevelKnownBits += 8;
 1808              		.loc 1 546 0
 1809 011a 6546     		mov	r5, ip
 1810 011c 0835     		adds	r5, r5, #8
 1811 011e 6DB2     		sxtb	r5, r5
 1812              	.LVL258:
 1813              	.L95:
 547:RC522.c       **** 		}
 548:RC522.c       **** 		
 549:RC522.c       **** 		// Repeat anti collision loop until we can transmit all UID bits + BCC and receive a SAK - max 32
 550:RC522.c       **** 		selectDone = false;
 551:RC522.c       **** 		while (!selectDone) {
 552:RC522.c       **** 			// Find out how many bits and bytes to send and receive.
 553:RC522.c       **** 			if (currentLevelKnownBits >= 32) { // All UID bits in this Cascade Level are known. This is a SE
 554:RC522.c       **** 				//Serial.print(F("SELECT: currentLevelKnownBits=")); Serial.println(currentLevelKnownBits, DEC)
 555:RC522.c       **** 				buffer[1] = 0x70; // NVB - Number of Valid Bits: Seven whole bytes
 556:RC522.c       **** 				// Calculate BCC - Block Check Character
 557:RC522.c       **** 				buffer[6] = buffer[2] ^ buffer[3] ^ buffer[4] ^ buffer[5];
 558:RC522.c       **** 				// Calculate CRC_A
 559:RC522.c       **** 				result = PCD_CalculateCRC(buffer, 7, &buffer[7]);
 560:RC522.c       **** 				if (result != STATUS_OK) {
 561:RC522.c       **** 					return result;
 562:RC522.c       **** 				}
 563:RC522.c       **** 				txLastBits		= 0; // 0 => All 8 bits are valid.
 564:RC522.c       **** 				bufferUsed		= 9;
 565:RC522.c       **** 				// Store response in the last 3 bytes of buffer (BCC and CRC_A - not needed after tx)
 566:RC522.c       **** 				responseBuffer	= &buffer[6];
 567:RC522.c       **** 				responseLength	= 3;
 568:RC522.c       **** 			}
 569:RC522.c       **** 			else { // This is an ANTICOLLISION.
 570:RC522.c       **** 				//Serial.print(F("ANTICOLLISION: currentLevelKnownBits=")); Serial.println(currentLevelKnownBit
 571:RC522.c       **** 				txLastBits		= currentLevelKnownBits % 8;
 572:RC522.c       **** 				count			= currentLevelKnownBits / 8;	// Number of whole bytes in the UID part.
 573:RC522.c       **** 				index			= 2 + count;					// Number of whole bytes: SEL + NVB + UIDs
 574:RC522.c       **** 				buffer[1]		= (index << 4) + txLastBits;	// NVB - Number of Valid Bits
 575:RC522.c       **** 				bufferUsed		= index + (txLastBits ? 1 : 0);
 576:RC522.c       **** 				// Store response in the unused part of buffer
 577:RC522.c       **** 				responseBuffer	= &buffer[index];
 578:RC522.c       **** 				responseLength	= sizeof(buffer) - index;
 579:RC522.c       **** 			}
 580:RC522.c       **** 			
 581:RC522.c       **** 			// Set bit adjustments
 582:RC522.c       **** 			rxAlign = txLastBits;											// Having a separate variable is overkill. But it makes the next
ARM GAS  C:\Users\ABAD_S~1\AppData\Local\Temp\cckPFQC2.s 			page 44


 583:RC522.c       **** 			PCD_WriteRegister(BitFramingReg, (rxAlign << 4) + txLastBits);	// RxAlign = BitFramingReg[6..4].
 584:RC522.c       **** 			
 585:RC522.c       **** 			// Transmit the buffer and receive the response.
 586:RC522.c       **** 			result = PCD_TransceiveData(buffer, bufferUsed, responseBuffer, &responseLength, &txLastBits, rx
 587:RC522.c       **** 			if (result == STATUS_COLLISION) { // More than one PICC in the field => collision.
 588:RC522.c       **** 				unsigned char valueOfCollReg = PCD_ReadRegister(CollReg); // CollReg[7..0] bits are: ValuesAfte
 589:RC522.c       **** 				if (valueOfCollReg & 0x20) { // CollPosNotValid
 590:RC522.c       **** 					return STATUS_COLLISION; // Without a valid collision position we cannot continue
 591:RC522.c       **** 				}
 592:RC522.c       **** 				unsigned char collisionPos = valueOfCollReg & 0x1F; // Values 0-31, 0 means bit 32.
 593:RC522.c       **** 				if (collisionPos == 0) {
 594:RC522.c       **** 					collisionPos = 32;
 595:RC522.c       **** 				}
 596:RC522.c       **** 				if (collisionPos <= currentLevelKnownBits) { // No progress - should not happen 
 597:RC522.c       **** 					return STATUS_INTERNAL_ERROR;
 598:RC522.c       **** 				}
 599:RC522.c       **** 				// Choose the PICC with the bit set.
 600:RC522.c       **** 				currentLevelKnownBits	= collisionPos;
 601:RC522.c       **** 				count			= currentLevelKnownBits % 8; // The bit to modify
 602:RC522.c       **** 				checkBit		= (currentLevelKnownBits - 1) % 8;
 603:RC522.c       **** 				index			= 1 + (currentLevelKnownBits / 8) + (count ? 1 : 0); // First byte is index 0.
 604:RC522.c       **** 				buffer[index]	|= (1 << checkBit);
 605:RC522.c       **** 			}
 606:RC522.c       **** 			else if (result != STATUS_OK) {
 607:RC522.c       **** 				return result;
 608:RC522.c       **** 			}
 609:RC522.c       **** 			else { // STATUS_OK
 610:RC522.c       **** 				if (currentLevelKnownBits >= 32) { // This was a SELECT.
 611:RC522.c       **** 					selectDone = true; // No more anticollision 
 1814              		.loc 1 611 0
 1815 0120 0023     		movs	r3, #0
 1816 0122 1F00     		movs	r7, r3
 1817 0124 B046     		mov	r8, r6
 1818              	.LVL259:
 1819 0126 8EE0     		b	.L96
 1820              	.LVL260:
 1821              	.L102:
 553:RC522.c       **** 				//Serial.print(F("SELECT: currentLevelKnownBits=")); Serial.println(currentLevelKnownBits, DEC)
 1822              		.loc 1 553 0
 1823 0128 1F2D     		cmp	r5, #31
 1824 012a 24DD     		ble	.L97
 555:RC522.c       **** 				// Calculate BCC - Block Check Character
 1825              		.loc 1 555 0
 1826 012c 09A8     		add	r0, sp, #36
 1827 012e 7023     		movs	r3, #112
 1828 0130 4370     		strb	r3, [r0, #1]
 557:RC522.c       **** 				// Calculate CRC_A
 1829              		.loc 1 557 0
 1830 0132 8478     		ldrb	r4, [r0, #2]
 1831 0134 C278     		ldrb	r2, [r0, #3]
 1832 0136 0379     		ldrb	r3, [r0, #4]
 1833 0138 4179     		ldrb	r1, [r0, #5]
 1834 013a 6240     		eors	r2, r4
 1835 013c 5340     		eors	r3, r2
 1836 013e 4B40     		eors	r3, r1
 1837 0140 8371     		strb	r3, [r0, #6]
 559:RC522.c       **** 				if (result != STATUS_OK) {
ARM GAS  C:\Users\ABAD_S~1\AppData\Local\Temp\cckPFQC2.s 			page 45


 1838              		.loc 1 559 0
 1839 0142 1B22     		movs	r2, #27
 1840 0144 04AB     		add	r3, sp, #16
 1841 0146 9C46     		mov	ip, r3
 1842 0148 6244     		add	r2, r2, ip
 1843 014a 0721     		movs	r1, #7
 1844 014c FFF7FEFF 		bl	PCD_CalculateCRC
 1845              	.LVL261:
 560:RC522.c       **** 					return result;
 1846              		.loc 1 560 0
 1847 0150 0028     		cmp	r0, #0
 1848 0152 00D0     		beq	.LCB1789
 1849 0154 DFE0     		b	.L80	@long jump
 1850              	.LCB1789:
 563:RC522.c       **** 				bufferUsed		= 9;
 1851              		.loc 1 563 0
 1852 0156 0022     		movs	r2, #0
 1853 0158 1323     		movs	r3, #19
 1854 015a 04A9     		add	r1, sp, #16
 1855 015c 8C46     		mov	ip, r1
 1856 015e 6344     		add	r3, r3, ip
 1857 0160 1A70     		strb	r2, [r3]
 1858              	.LVL262:
 567:RC522.c       **** 			}
 1859              		.loc 1 567 0
 1860 0162 0332     		adds	r2, r2, #3
 1861 0164 1223     		movs	r3, #18
 1862 0166 6344     		add	r3, r3, ip
 1863 0168 1A70     		strb	r2, [r3]
 566:RC522.c       **** 				responseLength	= 3;
 1864              		.loc 1 566 0
 1865 016a 1A23     		movs	r3, #26
 1866 016c 6344     		add	r3, r3, ip
 1867 016e 9846     		mov	r8, r3
 564:RC522.c       **** 				// Store response in the last 3 bytes of buffer (BCC and CRC_A - not needed after tx)
 1868              		.loc 1 564 0
 1869 0170 0923     		movs	r3, #9
 1870 0172 9946     		mov	r9, r3
 1871 0174 21E0     		b	.L98
 1872              	.LVL263:
 1873              	.L97:
 571:RC522.c       **** 				count			= currentLevelKnownBits / 8;	// Number of whole bytes in the UID part.
 1874              		.loc 1 571 0
 1875 0176 EB17     		asrs	r3, r5, #31
 1876 0178 580F     		lsrs	r0, r3, #29
 1877 017a 2918     		adds	r1, r5, r0
 1878 017c 0722     		movs	r2, #7
 1879 017e 1140     		ands	r1, r2
 1880 0180 091A     		subs	r1, r1, r0
 1881 0182 C9B2     		uxtb	r1, r1
 1882 0184 1320     		movs	r0, #19
 1883 0186 04AC     		add	r4, sp, #16
 1884 0188 A446     		mov	ip, r4
 1885 018a 6044     		add	r0, r0, ip
 1886 018c 0170     		strb	r1, [r0]
 572:RC522.c       **** 				index			= 2 + count;					// Number of whole bytes: SEL + NVB + UIDs
 1887              		.loc 1 572 0
ARM GAS  C:\Users\ABAD_S~1\AppData\Local\Temp\cckPFQC2.s 			page 46


 1888 018e 1340     		ands	r3, r2
 1889 0190 5B19     		adds	r3, r3, r5
 1890 0192 DB10     		asrs	r3, r3, #3
 1891 0194 DBB2     		uxtb	r3, r3
 1892              	.LVL264:
 573:RC522.c       **** 				buffer[1]		= (index << 4) + txLastBits;	// NVB - Number of Valid Bits
 1893              		.loc 1 573 0
 1894 0196 0233     		adds	r3, r3, #2
 1895              	.LVL265:
 1896 0198 DBB2     		uxtb	r3, r3
 1897              	.LVL266:
 574:RC522.c       **** 				bufferUsed		= index + (txLastBits ? 1 : 0);
 1898              		.loc 1 574 0
 1899 019a 09A8     		add	r0, sp, #36
 1900 019c 1A01     		lsls	r2, r3, #4
 1901              	.LVL267:
 1902 019e 8A18     		adds	r2, r1, r2
 1903 01a0 4270     		strb	r2, [r0, #1]
 575:RC522.c       **** 				// Store response in the unused part of buffer
 1904              		.loc 1 575 0
 1905 01a2 4A1E     		subs	r2, r1, #1
 1906 01a4 9141     		sbcs	r1, r1, r2
 1907 01a6 C918     		adds	r1, r1, r3
 1908 01a8 CAB2     		uxtb	r2, r1
 1909 01aa 9146     		mov	r9, r2
 1910              	.LVL268:
 577:RC522.c       **** 				responseLength	= sizeof(buffer) - index;
 1911              		.loc 1 577 0
 1912 01ac 8046     		mov	r8, r0
 1913              	.LVL269:
 1914 01ae 9844     		add	r8, r8, r3
 1915              	.LVL270:
 578:RC522.c       **** 			}
 1916              		.loc 1 578 0
 1917 01b0 0922     		movs	r2, #9
 1918 01b2 D31A     		subs	r3, r2, r3
 1919              	.LVL271:
 1920 01b4 1222     		movs	r2, #18
 1921 01b6 6244     		add	r2, r2, ip
 1922 01b8 1370     		strb	r3, [r2]
 1923              	.LVL272:
 1924              	.L98:
 582:RC522.c       **** 			PCD_WriteRegister(BitFramingReg, (rxAlign << 4) + txLastBits);	// RxAlign = BitFramingReg[6..4].
 1925              		.loc 1 582 0
 1926 01ba 1324     		movs	r4, #19
 1927 01bc 04AB     		add	r3, sp, #16
 1928 01be 9C46     		mov	ip, r3
 1929 01c0 6444     		add	r4, r4, ip
 1930 01c2 2678     		ldrb	r6, [r4]
 1931              	.LVL273:
 583:RC522.c       **** 			
 1932              		.loc 1 583 0
 1933 01c4 3101     		lsls	r1, r6, #4
 1934 01c6 7118     		adds	r1, r6, r1
 1935 01c8 C9B2     		uxtb	r1, r1
 1936 01ca 0D20     		movs	r0, #13
 1937 01cc FFF7FEFF 		bl	PCD_WriteRegister
ARM GAS  C:\Users\ABAD_S~1\AppData\Local\Temp\cckPFQC2.s 			page 47


 1938              	.LVL274:
 586:RC522.c       **** 			if (result == STATUS_COLLISION) { // More than one PICC in the field => collision.
 1939              		.loc 1 586 0
 1940 01d0 0023     		movs	r3, #0
 1941 01d2 0293     		str	r3, [sp, #8]
 1942 01d4 0196     		str	r6, [sp, #4]
 1943 01d6 0094     		str	r4, [sp]
 1944 01d8 1233     		adds	r3, r3, #18
 1945 01da 04AA     		add	r2, sp, #16
 1946 01dc 9446     		mov	ip, r2
 1947 01de 6344     		add	r3, r3, ip
 1948 01e0 4246     		mov	r2, r8
 1949 01e2 4946     		mov	r1, r9
 1950 01e4 09A8     		add	r0, sp, #36
 1951 01e6 FFF7FEFF 		bl	PCD_TransceiveData
 1952              	.LVL275:
 587:RC522.c       **** 				unsigned char valueOfCollReg = PCD_ReadRegister(CollReg); // CollReg[7..0] bits are: ValuesAfte
 1953              		.loc 1 587 0
 1954 01ea 0228     		cmp	r0, #2
 1955 01ec 24D1     		bne	.L99
 1956              	.LBB13:
 588:RC522.c       **** 				if (valueOfCollReg & 0x20) { // CollPosNotValid
 1957              		.loc 1 588 0
 1958 01ee 0C30     		adds	r0, r0, #12
 1959              	.LVL276:
 1960 01f0 FFF7FEFF 		bl	PCD_ReadRegister
 1961              	.LVL277:
 589:RC522.c       **** 					return STATUS_COLLISION; // Without a valid collision position we cannot continue
 1962              		.loc 1 589 0
 1963 01f4 8306     		lsls	r3, r0, #26
 1964 01f6 00D5     		bpl	.LCB1904
 1965 01f8 82E0     		b	.L120	@long jump
 1966              	.LCB1904:
 592:RC522.c       **** 				if (collisionPos == 0) {
 1967              		.loc 1 592 0
 1968 01fa 1F23     		movs	r3, #31
 1969 01fc 1840     		ands	r0, r3
 1970              	.LVL278:
 593:RC522.c       **** 					collisionPos = 32;
 1971              		.loc 1 593 0
 1972 01fe 00D1     		bne	.L100
 594:RC522.c       **** 				}
 1973              		.loc 1 594 0
 1974 0200 2030     		adds	r0, r0, #32
 1975              	.LVL279:
 1976              	.L100:
 596:RC522.c       **** 					return STATUS_INTERNAL_ERROR;
 1977              		.loc 1 596 0
 1978 0202 A842     		cmp	r0, r5
 1979 0204 7EDD     		ble	.L122
 600:RC522.c       **** 				count			= currentLevelKnownBits % 8; // The bit to modify
 1980              		.loc 1 600 0
 1981 0206 45B2     		sxtb	r5, r0
 1982              	.LVL280:
 601:RC522.c       **** 				checkBit		= (currentLevelKnownBits - 1) % 8;
 1983              		.loc 1 601 0
 1984 0208 0720     		movs	r0, #7
ARM GAS  C:\Users\ABAD_S~1\AppData\Local\Temp\cckPFQC2.s 			page 48


 1985              	.LVL281:
 1986 020a 2A00     		movs	r2, r5
 1987 020c 0240     		ands	r2, r0
 1988              	.LVL282:
 602:RC522.c       **** 				index			= 1 + (currentLevelKnownBits / 8) + (count ? 1 : 0); // First byte is index 0.
 1989              		.loc 1 602 0
 1990 020e 6B1E     		subs	r3, r5, #1
 1991 0210 D917     		asrs	r1, r3, #31
 1992 0212 490F     		lsrs	r1, r1, #29
 1993 0214 5B18     		adds	r3, r3, r1
 1994 0216 0340     		ands	r3, r0
 1995 0218 5B1A     		subs	r3, r3, r1
 1996              	.LVL283:
 603:RC522.c       **** 				buffer[index]	|= (1 << checkBit);
 1997              		.loc 1 603 0
 1998 021a 511E     		subs	r1, r2, #1
 1999 021c 8A41     		sbcs	r2, r2, r1
 2000              	.LVL284:
 2001 021e E908     		lsrs	r1, r5, #3
 2002 0220 5218     		adds	r2, r2, r1
 2003 0222 0132     		adds	r2, r2, #1
 2004 0224 D2B2     		uxtb	r2, r2
 2005              	.LVL285:
 604:RC522.c       **** 			}
 2006              		.loc 1 604 0
 2007 0226 FF21     		movs	r1, #255
 2008 0228 1940     		ands	r1, r3
 2009 022a 0123     		movs	r3, #1
 2010              	.LVL286:
 2011 022c 8B40     		lsls	r3, r3, r1
 2012 022e 09A9     		add	r1, sp, #36
 2013 0230 885C     		ldrb	r0, [r1, r2]
 2014              	.LVL287:
 2015 0232 0343     		orrs	r3, r0
 2016 0234 8B54     		strb	r3, [r1, r2]
 2017              	.LBE13:
 2018 0236 06E0     		b	.L96
 2019              	.LVL288:
 2020              	.L99:
 606:RC522.c       **** 				return result;
 2021              		.loc 1 606 0
 2022 0238 0028     		cmp	r0, #0
 2023 023a 6CD1     		bne	.L80
 610:RC522.c       **** 					selectDone = true; // No more anticollision 
 2024              		.loc 1 610 0
 2025 023c 1F2D     		cmp	r5, #31
 2026 023e 01DD     		ble	.L124
 2027              		.loc 1 611 0
 2028 0240 0127     		movs	r7, #1
 2029              	.LVL289:
 2030 0242 00E0     		b	.L96
 2031              	.LVL290:
 2032              	.L124:
 612:RC522.c       **** 					// We continue below outside the while.
 613:RC522.c       **** 				}
 614:RC522.c       **** 				else { // This was an ANTICOLLISION.
 615:RC522.c       **** 					// We now have all 32 bits of the UID in this Cascade Level
ARM GAS  C:\Users\ABAD_S~1\AppData\Local\Temp\cckPFQC2.s 			page 49


 616:RC522.c       **** 					currentLevelKnownBits = 32;
 2033              		.loc 1 616 0
 2034 0244 2025     		movs	r5, #32
 2035              	.LVL291:
 2036              	.L96:
 551:RC522.c       **** 			// Find out how many bits and bytes to send and receive.
 2037              		.loc 1 551 0
 2038 0246 002F     		cmp	r7, #0
 2039 0248 00D1     		bne	.LCB1998
 2040 024a 6DE7     		b	.L102	@long jump
 2041              	.LCB1998:
 2042 024c 4646     		mov	r6, r8
 617:RC522.c       **** 					// Run loop again to do the SELECT.
 618:RC522.c       **** 				}
 619:RC522.c       **** 			}
 620:RC522.c       **** 		} // End of while (!selectDone)
 621:RC522.c       **** 		
 622:RC522.c       **** 		// We do not check the CBB - it was constructed by us above.
 623:RC522.c       **** 		
 624:RC522.c       **** 		// Copy the found UID bytes from buffer[] to uid->uidByte[]
 625:RC522.c       **** 		index			= (buffer[2] == PICC_CMD_CT) ? 3 : 2; // source index in buffer[]
 2043              		.loc 1 625 0
 2044 024e 09AB     		add	r3, sp, #36
 2045 0250 9B78     		ldrb	r3, [r3, #2]
 2046 0252 882B     		cmp	r3, #136
 2047 0254 01D1     		bne	.L125
 2048 0256 0321     		movs	r1, #3
 2049 0258 00E0     		b	.L103
 2050              	.L125:
 2051 025a 0221     		movs	r1, #2
 2052              	.L103:
 2053              	.LVL292:
 626:RC522.c       **** 		bytesToCopy		= (buffer[2] == PICC_CMD_CT) ? 3 : 4;
 2054              		.loc 1 626 0 discriminator 4
 2055 025c 882B     		cmp	r3, #136
 2056 025e 01D1     		bne	.L126
 2057              		.loc 1 626 0 is_stmt 0
 2058 0260 0325     		movs	r5, #3
 2059              	.LVL293:
 2060 0262 00E0     		b	.L104
 2061              	.LVL294:
 2062              	.L126:
 2063 0264 0425     		movs	r5, #4
 2064              	.LVL295:
 2065              	.L104:
 627:RC522.c       **** 		for (count = 0; count < bytesToCopy; count++) {
 2066              		.loc 1 627 0 is_stmt 1 discriminator 4
 2067 0266 0023     		movs	r3, #0
 2068 0268 5F46     		mov	r7, fp
 2069              	.LVL296:
 2070 026a B446     		mov	ip, r6
 2071 026c 5646     		mov	r6, r10
 2072 026e 08E0     		b	.L105
 2073              	.LVL297:
 2074              	.L106:
 628:RC522.c       **** 			uid->uidByte[uidIndex + count] = buffer[index++];
 2075              		.loc 1 628 0 discriminator 3
ARM GAS  C:\Users\ABAD_S~1\AppData\Local\Temp\cckPFQC2.s 			page 50


 2076 0270 FA18     		adds	r2, r7, r3
 2077 0272 481C     		adds	r0, r1, #1
 2078              	.LVL298:
 2079 0274 09AC     		add	r4, sp, #36
 2080 0276 615C     		ldrb	r1, [r4, r1]
 2081 0278 B218     		adds	r2, r6, r2
 2082 027a 5170     		strb	r1, [r2, #1]
 627:RC522.c       **** 		for (count = 0; count < bytesToCopy; count++) {
 2083              		.loc 1 627 0 discriminator 3
 2084 027c 0133     		adds	r3, r3, #1
 2085              	.LVL299:
 2086 027e DBB2     		uxtb	r3, r3
 2087              	.LVL300:
 2088              		.loc 1 628 0 discriminator 3
 2089 0280 C1B2     		uxtb	r1, r0
 2090              	.LVL301:
 2091              	.L105:
 627:RC522.c       **** 		for (count = 0; count < bytesToCopy; count++) {
 2092              		.loc 1 627 0 discriminator 1
 2093 0282 AB42     		cmp	r3, r5
 2094 0284 F4D3     		bcc	.L106
 2095 0286 B246     		mov	r10, r6
 2096 0288 6646     		mov	r6, ip
 2097              	.LVL302:
 629:RC522.c       **** 		}
 630:RC522.c       **** 		
 631:RC522.c       **** 		// Check response SAK (Select Acknowledge)
 632:RC522.c       **** 		if (responseLength != 3 || txLastBits != 0) { // SAK must be exactly 24 bits (1 byte + CRC_A).
 2098              		.loc 1 632 0
 2099 028a 1223     		movs	r3, #18
 2100              	.LVL303:
 2101 028c 04AA     		add	r2, sp, #16
 2102 028e 9446     		mov	ip, r2
 2103 0290 6344     		add	r3, r3, ip
 2104 0292 1B78     		ldrb	r3, [r3]
 2105 0294 032B     		cmp	r3, #3
 2106 0296 37D1     		bne	.L127
 2107              	.LVL304:
 2108              		.loc 1 632 0 is_stmt 0 discriminator 1
 2109 0298 1033     		adds	r3, r3, #16
 2110 029a 6344     		add	r3, r3, ip
 2111 029c 1B78     		ldrb	r3, [r3]
 2112 029e 002B     		cmp	r3, #0
 2113 02a0 34D1     		bne	.L128
 633:RC522.c       **** 			return STATUS_ERROR;
 634:RC522.c       **** 		}
 635:RC522.c       **** 		// Verify CRC_A - do our own calculation and store the control in buffer[2..3] - those bytes are 
 636:RC522.c       **** 		result = PCD_CalculateCRC(responseBuffer, 1, &buffer[2]);
 2114              		.loc 1 636 0 is_stmt 1
 2115 02a2 1622     		movs	r2, #22
 2116 02a4 6244     		add	r2, r2, ip
 2117 02a6 0121     		movs	r1, #1
 2118              	.LVL305:
 2119 02a8 3000     		movs	r0, r6
 2120 02aa FFF7FEFF 		bl	PCD_CalculateCRC
 2121              	.LVL306:
 637:RC522.c       **** 		if (result != STATUS_OK) {
ARM GAS  C:\Users\ABAD_S~1\AppData\Local\Temp\cckPFQC2.s 			page 51


 2122              		.loc 1 637 0
 2123 02ae 0028     		cmp	r0, #0
 2124 02b0 31D1     		bne	.L80
 638:RC522.c       **** 			return result;
 639:RC522.c       **** 		}
 640:RC522.c       **** 		if ((buffer[2] != responseBuffer[1]) || (buffer[3] != responseBuffer[2])) {
 2125              		.loc 1 640 0
 2126 02b2 09AB     		add	r3, sp, #36
 2127 02b4 9A78     		ldrb	r2, [r3, #2]
 2128 02b6 7378     		ldrb	r3, [r6, #1]
 2129 02b8 9A42     		cmp	r2, r3
 2130 02ba 29D1     		bne	.L130
 2131              		.loc 1 640 0 is_stmt 0 discriminator 1
 2132 02bc 09AB     		add	r3, sp, #36
 2133 02be DA78     		ldrb	r2, [r3, #3]
 2134 02c0 B378     		ldrb	r3, [r6, #2]
 2135 02c2 9A42     		cmp	r2, r3
 2136 02c4 26D1     		bne	.L131
 641:RC522.c       **** 			return STATUS_CRC_WRONG;
 642:RC522.c       **** 		}
 643:RC522.c       **** 		if (responseBuffer[0] & 0x04) { // Cascade bit set - UID not complete yes
 2137              		.loc 1 643 0 is_stmt 1
 2138 02c6 3378     		ldrb	r3, [r6]
 2139 02c8 5A07     		lsls	r2, r3, #29
 2140 02ca 04D5     		bpl	.L107
 644:RC522.c       **** 			cascadeLevel++;
 2141              		.loc 1 644 0
 2142 02cc 069B     		ldr	r3, [sp, #24]
 2143 02ce 0133     		adds	r3, r3, #1
 2144 02d0 DBB2     		uxtb	r3, r3
 2145 02d2 0693     		str	r3, [sp, #24]
 2146              	.LVL307:
 2147 02d4 03E0     		b	.L81
 2148              	.L107:
 2149              	.LVL308:
 645:RC522.c       **** 		}
 646:RC522.c       **** 		else {
 647:RC522.c       **** 			uidComplete = true;
 648:RC522.c       **** 			uid->sak = responseBuffer[0];
 2150              		.loc 1 648 0
 2151 02d6 5246     		mov	r2, r10
 2152 02d8 D372     		strb	r3, [r2, #11]
 647:RC522.c       **** 			uid->sak = responseBuffer[0];
 2153              		.loc 1 647 0
 2154 02da 0123     		movs	r3, #1
 2155 02dc 0793     		str	r3, [sp, #28]
 2156              	.LVL309:
 2157              	.L81:
 2158              	.LBE10:
 498:RC522.c       **** 		// Set the Cascade Level in the SEL byte, find out if we need to use the Cascade Tag in byte 2.
 2159              		.loc 1 498 0
 2160 02de 079B     		ldr	r3, [sp, #28]
 2161 02e0 002B     		cmp	r3, #0
 2162 02e2 00D1     		bne	.LCB2144
 2163 02e4 A1E6     		b	.L109	@long jump
 2164              	.LCB2144:
 649:RC522.c       **** 		}
ARM GAS  C:\Users\ABAD_S~1\AppData\Local\Temp\cckPFQC2.s 			page 52


 650:RC522.c       **** 	} // End of while (!uidComplete)
 651:RC522.c       **** 	
 652:RC522.c       **** 	// Set correct uid->size
 653:RC522.c       **** 	uid->size = 3 * cascadeLevel + 1;
 2165              		.loc 1 653 0
 2166 02e6 069A     		ldr	r2, [sp, #24]
 2167 02e8 5300     		lsls	r3, r2, #1
 2168 02ea 9446     		mov	ip, r2
 2169 02ec 6344     		add	r3, r3, ip
 2170 02ee 0133     		adds	r3, r3, #1
 2171 02f0 5246     		mov	r2, r10
 2172 02f2 1370     		strb	r3, [r2]
 654:RC522.c       **** 
 655:RC522.c       **** 	return STATUS_OK;
 2173              		.loc 1 655 0
 2174 02f4 0020     		movs	r0, #0
 2175 02f6 0EE0     		b	.L80
 2176              	.LVL310:
 2177              	.L110:
 490:RC522.c       **** 	}
 2178              		.loc 1 490 0
 2179 02f8 0620     		movs	r0, #6
 2180              	.LVL311:
 2181 02fa 0CE0     		b	.L80
 2182              	.LVL312:
 2183              	.L132:
 2184              	.LBB15:
 520:RC522.c       **** 				break;
 2185              		.loc 1 520 0
 2186 02fc 0520     		movs	r0, #5
 2187 02fe 0AE0     		b	.L80
 2188              	.LVL313:
 2189              	.L120:
 2190              	.LBB14:
 590:RC522.c       **** 				}
 2191              		.loc 1 590 0
 2192 0300 0220     		movs	r0, #2
 2193              	.LVL314:
 2194 0302 08E0     		b	.L80
 2195              	.LVL315:
 2196              	.L122:
 597:RC522.c       **** 				}
 2197              		.loc 1 597 0
 2198 0304 0520     		movs	r0, #5
 2199              	.LVL316:
 2200 0306 06E0     		b	.L80
 2201              	.LVL317:
 2202              	.L127:
 2203              	.LBE14:
 633:RC522.c       **** 		}
 2204              		.loc 1 633 0
 2205 0308 0120     		movs	r0, #1
 2206 030a 04E0     		b	.L80
 2207              	.L128:
 2208 030c 0120     		movs	r0, #1
 2209 030e 02E0     		b	.L80
 2210              	.LVL318:
ARM GAS  C:\Users\ABAD_S~1\AppData\Local\Temp\cckPFQC2.s 			page 53


 2211              	.L130:
 641:RC522.c       **** 		}
 2212              		.loc 1 641 0
 2213 0310 0720     		movs	r0, #7
 2214              	.LVL319:
 2215 0312 00E0     		b	.L80
 2216              	.LVL320:
 2217              	.L131:
 2218 0314 0720     		movs	r0, #7
 2219              	.LVL321:
 2220              	.L80:
 2221              	.LBE15:
 656:RC522.c       **** } // End PICC_Select()
 2222              		.loc 1 656 0
 2223 0316 0DB0     		add	sp, sp, #52
 2224              		@ sp needed
 2225              	.LVL322:
 2226 0318 3CBC     		pop	{r2, r3, r4, r5}
 2227 031a 9046     		mov	r8, r2
 2228 031c 9946     		mov	r9, r3
 2229 031e A246     		mov	r10, r4
 2230 0320 AB46     		mov	fp, r5
 2231 0322 F0BD     		pop	{r4, r5, r6, r7, pc}
 2232              		.cfi_endproc
 2233              	.LFE54:
 2234              		.size	PICC_Select, .-PICC_Select
 2235              		.section	.text.PICC_HaltA,"ax",%progbits
 2236              		.align	2
 2237              		.global	PICC_HaltA
 2238              		.code	16
 2239              		.thumb_func
 2240              		.type	PICC_HaltA, %function
 2241              	PICC_HaltA:
 2242              	.LFB55:
 657:RC522.c       **** 
 658:RC522.c       **** unsigned char PICC_HaltA(void) {
 2243              		.loc 1 658 0
 2244              		.cfi_startproc
 2245              		@ args = 0, pretend = 0, frame = 8
 2246              		@ frame_needed = 0, uses_anonymous_args = 0
 2247 0000 00B5     		push	{lr}
 2248              		.cfi_def_cfa_offset 4
 2249              		.cfi_offset 14, -4
 2250 0002 87B0     		sub	sp, sp, #28
 2251              		.cfi_def_cfa_offset 32
 659:RC522.c       **** 	unsigned char result;
 660:RC522.c       **** 	unsigned char buffer[4];
 661:RC522.c       **** 	
 662:RC522.c       **** 	// Build command buffer
 663:RC522.c       **** 	buffer[0] = PICC_CMD_HLTA;
 2252              		.loc 1 663 0
 2253 0004 05A8     		add	r0, sp, #20
 2254 0006 5023     		movs	r3, #80
 2255 0008 0370     		strb	r3, [r0]
 664:RC522.c       **** 	buffer[1] = 0;
 2256              		.loc 1 664 0
 2257 000a 0023     		movs	r3, #0
ARM GAS  C:\Users\ABAD_S~1\AppData\Local\Temp\cckPFQC2.s 			page 54


 2258 000c 4370     		strb	r3, [r0, #1]
 665:RC522.c       **** 	// Calculate CRC_A
 666:RC522.c       **** 	result = PCD_CalculateCRC(buffer, 2, &buffer[2]);
 2259              		.loc 1 666 0
 2260 000e 1622     		movs	r2, #22
 2261 0010 6A44     		add	r2, r2, sp
 2262 0012 0221     		movs	r1, #2
 2263 0014 FFF7FEFF 		bl	PCD_CalculateCRC
 2264              	.LVL323:
 667:RC522.c       **** 	if (result != STATUS_OK) {
 2265              		.loc 1 667 0
 2266 0018 0028     		cmp	r0, #0
 2267 001a 0FD1     		bne	.L134
 668:RC522.c       **** 		return result;
 669:RC522.c       **** 	}
 670:RC522.c       **** 	
 671:RC522.c       **** 	// Send the command.
 672:RC522.c       **** 	// The standard says:
 673:RC522.c       **** 	//		If the PICC responds with any modulation during a period of 1 ms after the end of the frame co
 674:RC522.c       **** 	//		HLTA command, this response shall be interpreted as 'not acknowledge'.
 675:RC522.c       **** 	// We interpret that this way: Only STATUS_TIMEOUT is a success.
 676:RC522.c       **** 	result =  PCD_TransceiveData(buffer, sizeof(buffer), NULL, 0,NULL,0,false);
 2268              		.loc 1 676 0
 2269 001c 0023     		movs	r3, #0
 2270 001e 0293     		str	r3, [sp, #8]
 2271 0020 0193     		str	r3, [sp, #4]
 2272 0022 0093     		str	r3, [sp]
 2273 0024 0022     		movs	r2, #0
 2274 0026 0421     		movs	r1, #4
 2275 0028 05A8     		add	r0, sp, #20
 2276              	.LVL324:
 2277 002a FFF7FEFF 		bl	PCD_TransceiveData
 2278              	.LVL325:
 677:RC522.c       **** 	if (result == STATUS_TIMEOUT) {
 2279              		.loc 1 677 0
 2280 002e 0328     		cmp	r0, #3
 2281 0030 03D0     		beq	.L136
 678:RC522.c       **** 		return STATUS_OK;
 679:RC522.c       **** 	}
 680:RC522.c       **** 	if (result == STATUS_OK) { // That is ironically NOT ok in this case ;-)
 2282              		.loc 1 680 0
 2283 0032 0028     		cmp	r0, #0
 2284 0034 02D1     		bne	.L134
 681:RC522.c       **** 		return STATUS_ERROR;
 2285              		.loc 1 681 0
 2286 0036 0120     		movs	r0, #1
 2287              	.LVL326:
 2288 0038 00E0     		b	.L134
 2289              	.LVL327:
 2290              	.L136:
 678:RC522.c       **** 		return STATUS_OK;
 2291              		.loc 1 678 0
 2292 003a 0020     		movs	r0, #0
 2293              	.LVL328:
 2294              	.L134:
 682:RC522.c       **** 	}
 683:RC522.c       **** 	return result;
ARM GAS  C:\Users\ABAD_S~1\AppData\Local\Temp\cckPFQC2.s 			page 55


 684:RC522.c       **** } // End PICC_HaltA()
 2295              		.loc 1 684 0
 2296 003c 07B0     		add	sp, sp, #28
 2297              		@ sp needed
 2298 003e 00BD     		pop	{pc}
 2299              		.cfi_endproc
 2300              	.LFE55:
 2301              		.size	PICC_HaltA, .-PICC_HaltA
 2302              		.section	.text.PCD_Authenticate,"ax",%progbits
 2303              		.align	2
 2304              		.global	PCD_Authenticate
 2305              		.code	16
 2306              		.thumb_func
 2307              		.type	PCD_Authenticate, %function
 2308              	PCD_Authenticate:
 2309              	.LFB56:
 685:RC522.c       **** 
 686:RC522.c       **** unsigned char PCD_Authenticate(unsigned char command,		///< PICC_CMD_MF_AUTH_KEY_A or PICC_CMD_MF_A
 687:RC522.c       **** 											unsigned char blockAddr, 	///< The block number. See numbering in the comments in the .h
 688:RC522.c       **** 											MIFARE_Key *key,	///< Pointer to the Crypteo1 key to use (6 bytes)
 689:RC522.c       **** 											Uid *uid			///< Pointer to Uid struct. The first 4 bytes of the UID is used.
 690:RC522.c       **** 											) {
 2310              		.loc 1 690 0
 2311              		.cfi_startproc
 2312              		@ args = 0, pretend = 0, frame = 16
 2313              		@ frame_needed = 0, uses_anonymous_args = 0
 2314              	.LVL329:
 2315 0000 30B5     		push	{r4, r5, lr}
 2316              		.cfi_def_cfa_offset 12
 2317              		.cfi_offset 4, -12
 2318              		.cfi_offset 5, -8
 2319              		.cfi_offset 14, -4
 2320 0002 8BB0     		sub	sp, sp, #44
 2321              		.cfi_def_cfa_offset 56
 2322              	.LVL330:
 691:RC522.c       **** 	unsigned char waitIRq = 0x10;		// IdleIRq
 692:RC522.c       **** 	
 693:RC522.c       **** 	// Build command buffer
 694:RC522.c       **** 	unsigned char sendData[12];
 695:RC522.c       **** 	sendData[0] = command;
 2323              		.loc 1 695 0
 2324 0004 07AC     		add	r4, sp, #28
 2325 0006 2070     		strb	r0, [r4]
 696:RC522.c       **** 	sendData[1] = blockAddr;
 2326              		.loc 1 696 0
 2327 0008 6170     		strb	r1, [r4, #1]
 2328              	.LVL331:
 2329              	.LBB16:
 697:RC522.c       **** 	for (unsigned char i = 0; i < 6; i++) {	// 6 key bytes
 2330              		.loc 1 697 0
 2331 000a 0021     		movs	r1, #0
 2332              	.LVL332:
 2333 000c 05E0     		b	.L139
 2334              	.LVL333:
 2335              	.L140:
 698:RC522.c       **** 		sendData[2+i] = key->keyByte[i];
 2336              		.loc 1 698 0 discriminator 3
ARM GAS  C:\Users\ABAD_S~1\AppData\Local\Temp\cckPFQC2.s 			page 56


 2337 000e 881C     		adds	r0, r1, #2
 2338 0010 555C     		ldrb	r5, [r2, r1]
 2339 0012 07AC     		add	r4, sp, #28
 2340 0014 2554     		strb	r5, [r4, r0]
 697:RC522.c       **** 	for (unsigned char i = 0; i < 6; i++) {	// 6 key bytes
 2341              		.loc 1 697 0 discriminator 3
 2342 0016 0131     		adds	r1, r1, #1
 2343              	.LVL334:
 2344 0018 C9B2     		uxtb	r1, r1
 2345              	.LVL335:
 2346              	.L139:
 697:RC522.c       **** 	for (unsigned char i = 0; i < 6; i++) {	// 6 key bytes
 2347              		.loc 1 697 0 is_stmt 0 discriminator 1
 2348 001a 0529     		cmp	r1, #5
 2349 001c F7D9     		bls	.L140
 2350 001e 0021     		movs	r1, #0
 2351              	.LVL336:
 2352 0020 0AE0     		b	.L141
 2353              	.LVL337:
 2354              	.L142:
 2355              	.LBE16:
 2356              	.LBB17:
 699:RC522.c       **** 	}
 700:RC522.c       **** 	// Use the last uid bytes as specified in http://cache.nxp.com/documents/application_note/AN10927.
 701:RC522.c       **** 	// section 3.2.5 "MIFARE Classic Authentication".
 702:RC522.c       **** 	// The only missed case is the MF1Sxxxx shortcut activation,
 703:RC522.c       **** 	// but it requires cascade tag (CT) byte, that is not part of uid.
 704:RC522.c       **** 	for (unsigned char i = 0; i < 4; i++) {				// The last 4 bytes of the UID
 705:RC522.c       **** 		sendData[8+i] = uid->uidByte[i+uid->size-4];
 2357              		.loc 1 705 0 is_stmt 1 discriminator 3
 2358 0022 0800     		movs	r0, r1
 2359 0024 0830     		adds	r0, r0, #8
 2360 0026 1A78     		ldrb	r2, [r3]
 2361 0028 5218     		adds	r2, r2, r1
 2362 002a 043A     		subs	r2, r2, #4
 2363 002c 9A18     		adds	r2, r3, r2
 2364 002e 5478     		ldrb	r4, [r2, #1]
 2365 0030 07AA     		add	r2, sp, #28
 2366 0032 1454     		strb	r4, [r2, r0]
 704:RC522.c       **** 		sendData[8+i] = uid->uidByte[i+uid->size-4];
 2367              		.loc 1 704 0 discriminator 3
 2368 0034 0131     		adds	r1, r1, #1
 2369              	.LVL338:
 2370 0036 C9B2     		uxtb	r1, r1
 2371              	.LVL339:
 2372              	.L141:
 704:RC522.c       **** 		sendData[8+i] = uid->uidByte[i+uid->size-4];
 2373              		.loc 1 704 0 is_stmt 0 discriminator 1
 2374 0038 0329     		cmp	r1, #3
 2375 003a F2D9     		bls	.L142
 2376              	.LBE17:
 706:RC522.c       **** 	}
 707:RC522.c       **** 	
 708:RC522.c       **** 	// Start the authentication.
 709:RC522.c       **** 	return PCD_CommunicateWithPICC(PCD_MFAuthent, waitIRq, &sendData[0], sizeof(sendData),NULL,NULL,NU
 2377              		.loc 1 709 0 is_stmt 1
 2378 003c 0023     		movs	r3, #0
ARM GAS  C:\Users\ABAD_S~1\AppData\Local\Temp\cckPFQC2.s 			page 57


 2379              	.LVL340:
 2380 003e 0493     		str	r3, [sp, #16]
 2381 0040 0393     		str	r3, [sp, #12]
 2382 0042 0293     		str	r3, [sp, #8]
 2383 0044 0193     		str	r3, [sp, #4]
 2384 0046 0093     		str	r3, [sp]
 2385 0048 0C33     		adds	r3, r3, #12
 2386 004a 07AA     		add	r2, sp, #28
 2387 004c 1021     		movs	r1, #16
 2388              	.LVL341:
 2389 004e 0E20     		movs	r0, #14
 2390 0050 FFF7FEFF 		bl	PCD_CommunicateWithPICC
 2391              	.LVL342:
 710:RC522.c       **** } // End PCD_Authenticate()
 2392              		.loc 1 710 0
 2393 0054 0BB0     		add	sp, sp, #44
 2394              		@ sp needed
 2395 0056 30BD     		pop	{r4, r5, pc}
 2396              		.cfi_endproc
 2397              	.LFE56:
 2398              		.size	PCD_Authenticate, .-PCD_Authenticate
 2399              		.section	.text.PCD_StopCrypto1,"ax",%progbits
 2400              		.align	2
 2401              		.global	PCD_StopCrypto1
 2402              		.code	16
 2403              		.thumb_func
 2404              		.type	PCD_StopCrypto1, %function
 2405              	PCD_StopCrypto1:
 2406              	.LFB57:
 711:RC522.c       **** 
 712:RC522.c       **** 
 713:RC522.c       **** void PCD_StopCrypto1(void) {
 2407              		.loc 1 713 0
 2408              		.cfi_startproc
 2409              		@ args = 0, pretend = 0, frame = 0
 2410              		@ frame_needed = 0, uses_anonymous_args = 0
 2411 0000 10B5     		push	{r4, lr}
 2412              		.cfi_def_cfa_offset 8
 2413              		.cfi_offset 4, -8
 2414              		.cfi_offset 14, -4
 714:RC522.c       **** 	// Clear MFCrypto1On bit
 715:RC522.c       **** 	PCD_ClearRegisterBitMask(Status2Reg, 0x08); // Status2Reg[7..0] bits are: TempSensClear I2CForceHS
 2415              		.loc 1 715 0
 2416 0002 0821     		movs	r1, #8
 2417 0004 0820     		movs	r0, #8
 2418 0006 FFF7FEFF 		bl	PCD_ClearRegisterBitMask
 2419              	.LVL343:
 716:RC522.c       **** } // End PCD_StopCrypto1()
 2420              		.loc 1 716 0
 2421              		@ sp needed
 2422 000a 10BD     		pop	{r4, pc}
 2423              		.cfi_endproc
 2424              	.LFE57:
 2425              		.size	PCD_StopCrypto1, .-PCD_StopCrypto1
 2426              		.section	.text.MIFARE_Read,"ax",%progbits
 2427              		.align	2
 2428              		.global	MIFARE_Read
ARM GAS  C:\Users\ABAD_S~1\AppData\Local\Temp\cckPFQC2.s 			page 58


 2429              		.code	16
 2430              		.thumb_func
 2431              		.type	MIFARE_Read, %function
 2432              	MIFARE_Read:
 2433              	.LFB58:
 717:RC522.c       **** 
 718:RC522.c       **** 
 719:RC522.c       **** unsigned char MIFARE_Read(	unsigned char blockAddr, 	///< MIFARE Classic: The block (0-0xff) number
 720:RC522.c       **** 							unsigned char *buffer,		///< The buffer to store the data in
 721:RC522.c       ****                             unsigned char *bufferSize	///< Buffer size, at least 18 bytes. Also num
 722:RC522.c       **** 										) {
 2434              		.loc 1 722 0
 2435              		.cfi_startproc
 2436              		@ args = 0, pretend = 0, frame = 0
 2437              		@ frame_needed = 0, uses_anonymous_args = 0
 2438              	.LVL344:
 2439 0000 30B5     		push	{r4, r5, lr}
 2440              		.cfi_def_cfa_offset 12
 2441              		.cfi_offset 4, -12
 2442              		.cfi_offset 5, -8
 2443              		.cfi_offset 14, -4
 2444 0002 85B0     		sub	sp, sp, #20
 2445              		.cfi_def_cfa_offset 32
 2446 0004 0C00     		movs	r4, r1
 2447 0006 1500     		movs	r5, r2
 723:RC522.c       **** 	unsigned char result;
 724:RC522.c       **** 	
 725:RC522.c       **** 	// Sanity check
 726:RC522.c       **** 	if (buffer == NULL || *bufferSize < 18) {
 2448              		.loc 1 726 0
 2449 0008 0029     		cmp	r1, #0
 2450 000a 18D0     		beq	.L146
 2451              		.loc 1 726 0 is_stmt 0 discriminator 1
 2452 000c 1378     		ldrb	r3, [r2]
 2453 000e 112B     		cmp	r3, #17
 2454 0010 17D9     		bls	.L147
 727:RC522.c       **** 		return STATUS_NO_ROOM;
 728:RC522.c       **** 	}
 729:RC522.c       **** 	
 730:RC522.c       **** 	// Build command buffer
 731:RC522.c       **** 	buffer[0] = PICC_CMD_MF_READ;
 2455              		.loc 1 731 0 is_stmt 1
 2456 0012 3023     		movs	r3, #48
 2457 0014 0B70     		strb	r3, [r1]
 732:RC522.c       **** 	buffer[1] = blockAddr;
 2458              		.loc 1 732 0
 2459 0016 4870     		strb	r0, [r1, #1]
 733:RC522.c       **** 	// Calculate CRC_A
 734:RC522.c       **** 	result = PCD_CalculateCRC(buffer, 2, &buffer[2]);
 2460              		.loc 1 734 0
 2461 0018 8A1C     		adds	r2, r1, #2
 2462              	.LVL345:
 2463 001a 0221     		movs	r1, #2
 2464              	.LVL346:
 2465 001c 2000     		movs	r0, r4
 2466              	.LVL347:
 2467 001e FFF7FEFF 		bl	PCD_CalculateCRC
ARM GAS  C:\Users\ABAD_S~1\AppData\Local\Temp\cckPFQC2.s 			page 59


 2468              	.LVL348:
 735:RC522.c       **** 	if (result != STATUS_OK) {
 2469              		.loc 1 735 0
 2470 0022 0028     		cmp	r0, #0
 2471 0024 0ED1     		bne	.L145
 736:RC522.c       **** 		return result;
 737:RC522.c       **** 	}
 738:RC522.c       **** 	
 739:RC522.c       **** 	// Transmit the buffer and receive the response, validate CRC_A.
 740:RC522.c       **** 	return PCD_TransceiveData(buffer, 4, buffer, bufferSize, NULL, 0, true);
 2472              		.loc 1 740 0
 2473 0026 0123     		movs	r3, #1
 2474 0028 0293     		str	r3, [sp, #8]
 2475 002a 0023     		movs	r3, #0
 2476 002c 0193     		str	r3, [sp, #4]
 2477 002e 0093     		str	r3, [sp]
 2478 0030 2B00     		movs	r3, r5
 2479 0032 2200     		movs	r2, r4
 2480 0034 0421     		movs	r1, #4
 2481 0036 2000     		movs	r0, r4
 2482              	.LVL349:
 2483 0038 FFF7FEFF 		bl	PCD_TransceiveData
 2484              	.LVL350:
 2485 003c 02E0     		b	.L145
 2486              	.LVL351:
 2487              	.L146:
 727:RC522.c       **** 	}
 2488              		.loc 1 727 0
 2489 003e 0420     		movs	r0, #4
 2490              	.LVL352:
 2491 0040 00E0     		b	.L145
 2492              	.LVL353:
 2493              	.L147:
 2494 0042 0420     		movs	r0, #4
 2495              	.LVL354:
 2496              	.L145:
 741:RC522.c       **** } // End MIFARE_Read()
 2497              		.loc 1 741 0
 2498 0044 05B0     		add	sp, sp, #20
 2499              		@ sp needed
 2500              	.LVL355:
 2501              	.LVL356:
 2502 0046 30BD     		pop	{r4, r5, pc}
 2503              		.cfi_endproc
 2504              	.LFE58:
 2505              		.size	MIFARE_Read, .-MIFARE_Read
 2506              		.section	.text.MIFARE_GetValue,"ax",%progbits
 2507              		.align	2
 2508              		.global	MIFARE_GetValue
 2509              		.code	16
 2510              		.thumb_func
 2511              		.type	MIFARE_GetValue, %function
 2512              	MIFARE_GetValue:
 2513              	.LFB66:
 742:RC522.c       **** 
 743:RC522.c       **** 
 744:RC522.c       **** unsigned char MIFARE_Write(	unsigned char blockAddr, ///< MIFARE Classic: The block (0-0xff) number
ARM GAS  C:\Users\ABAD_S~1\AppData\Local\Temp\cckPFQC2.s 			page 60


 745:RC522.c       **** 							unsigned char *buffer,	///< The 16 bytes to write to the PICC
 746:RC522.c       **** 							unsigned char bufferSize	///< Buffer size, must be at least 16 bytes. Exactly 16 bytes are w
 747:RC522.c       **** 										) {
 748:RC522.c       **** 	unsigned char result;
 749:RC522.c       **** 	
 750:RC522.c       **** 	// Sanity check
 751:RC522.c       **** 	if (buffer == NULL || bufferSize < 16) {
 752:RC522.c       **** 		return STATUS_INVALID;
 753:RC522.c       **** }
 754:RC522.c       ****     
 755:RC522.c       ****     
 756:RC522.c       **** // Mifare Classic protocol requires two communications to perform a write.
 757:RC522.c       **** 	// Step 1: Tell the PICC we want to write to block blockAddr.
 758:RC522.c       **** 	unsigned char cmdBuffer[2];
 759:RC522.c       **** 	cmdBuffer[0] = PICC_CMD_MF_WRITE;
 760:RC522.c       **** 	cmdBuffer[1] = blockAddr;
 761:RC522.c       **** 	result = PCD_MIFARE_Transceive(cmdBuffer, 2,false); // Adds CRC_A and checks that the response is 
 762:RC522.c       **** 	if (result != STATUS_OK) {
 763:RC522.c       **** 		return result;
 764:RC522.c       **** 	}
 765:RC522.c       **** 	
 766:RC522.c       **** 	// Step 2: Transfer the data
 767:RC522.c       **** 	result = PCD_MIFARE_Transceive(buffer, bufferSize,false); // Adds CRC_A and checks that the respon
 768:RC522.c       **** 	if (result != STATUS_OK) {
 769:RC522.c       **** 		return result;
 770:RC522.c       **** 	}
 771:RC522.c       **** 	
 772:RC522.c       **** 	return STATUS_OK;
 773:RC522.c       **** } // End MIFARE_Write()
 774:RC522.c       **** 
 775:RC522.c       **** 
 776:RC522.c       **** unsigned char MIFARE_Ultralight_Write(	unsigned char page, 		///< The page (2-15) to write to.
 777:RC522.c       **** 										unsigned char *buffer,	///< The 4 bytes to write to the PICC
 778:RC522.c       **** 										unsigned char bufferSize	///< Buffer size, must be at least 4 bytes. Exactly 4 bytes are 
 779:RC522.c       **** 													) {
 780:RC522.c       **** 	unsigned char result;
 781:RC522.c       **** 	
 782:RC522.c       **** 	// Sanity check
 783:RC522.c       **** 	if (buffer == NULL || bufferSize < 4) {
 784:RC522.c       **** 		return STATUS_INVALID;
 785:RC522.c       **** 	}
 786:RC522.c       **** 	
 787:RC522.c       **** 	// Build commmand buffer
 788:RC522.c       **** 	unsigned char cmdBuffer[6];
 789:RC522.c       **** 	cmdBuffer[0] = PICC_CMD_UL_WRITE;
 790:RC522.c       **** 	cmdBuffer[1] = page;
 791:RC522.c       **** 	memcpy(&cmdBuffer[2], buffer, 4);
 792:RC522.c       **** 	
 793:RC522.c       **** 	// Perform the write
 794:RC522.c       **** 	result = PCD_MIFARE_Transceive(cmdBuffer, 6,false); // Adds CRC_A and checks that the response is 
 795:RC522.c       **** 	if (result != STATUS_OK) {
 796:RC522.c       **** 		return result;
 797:RC522.c       **** 	}
 798:RC522.c       **** 	return STATUS_OK;
 799:RC522.c       **** } // End MIFARE_Ultralight_Write()
 800:RC522.c       **** 
 801:RC522.c       **** unsigned char MIFARE_Decrement(	unsigned char blockAddr, ///< The block (0-0xff) number.
ARM GAS  C:\Users\ABAD_S~1\AppData\Local\Temp\cckPFQC2.s 			page 61


 802:RC522.c       **** 								uint32_t delta		///< This number is subtracted from the value of block blockAddr.
 803:RC522.c       **** 											) {
 804:RC522.c       **** 	return MIFARE_TwoStepHelper(PICC_CMD_MF_DECREMENT, blockAddr, delta);
 805:RC522.c       **** }
 806:RC522.c       **** 
 807:RC522.c       **** unsigned char MIFARE_Increment(	unsigned char blockAddr, ///< The block (0-0xff) number.
 808:RC522.c       **** 								uint32_t delta		///< This number is added to the value of block blockAddr.
 809:RC522.c       **** 											) {
 810:RC522.c       **** 	return MIFARE_TwoStepHelper(PICC_CMD_MF_INCREMENT, blockAddr, delta);
 811:RC522.c       **** } // End MIFARE_Increment()
 812:RC522.c       **** 
 813:RC522.c       **** 
 814:RC522.c       **** unsigned char  MIFARE_Restore(	unsigned char  blockAddr ///< The block (0-0xff) number.
 815:RC522.c       **** ) {
 816:RC522.c       **** 	// The datasheet describes Restore as a two step operation, but does not explain what data to tran
 817:RC522.c       **** 	// Doing only a single step does not work, so I chose to transfer 0L in step two.
 818:RC522.c       **** 	return MIFARE_TwoStepHelper(PICC_CMD_MF_RESTORE, blockAddr, 0L);
 819:RC522.c       **** } // End MIFARE_Restore()
 820:RC522.c       **** 
 821:RC522.c       **** 
 822:RC522.c       **** unsigned char MIFARE_TwoStepHelper(	unsigned char command,	///< The command to use
 823:RC522.c       **** 									unsigned char blockAddr,	///< The block (0-0xff) number.
 824:RC522.c       **** 									uint32_t data		///< The data to transfer in step 2
 825:RC522.c       **** 													) {
 826:RC522.c       **** 	unsigned char result;
 827:RC522.c       **** 	unsigned char cmdBuffer[2]; // We only need room for 2 bytes.
 828:RC522.c       **** 	
 829:RC522.c       **** 	// Step 1: Tell the PICC the command and block address
 830:RC522.c       **** 	cmdBuffer[0] = command;
 831:RC522.c       **** 	cmdBuffer[1] = blockAddr;
 832:RC522.c       **** 	result = PCD_MIFARE_Transceive(	cmdBuffer, 2, false); // Adds CRC_A and checks that the response i
 833:RC522.c       **** 	if (result != STATUS_OK) {
 834:RC522.c       **** 		return result;
 835:RC522.c       **** 	}
 836:RC522.c       **** 	// Step 2: Transfer the data
 837:RC522.c       **** 	result = PCD_MIFARE_Transceive(	(unsigned char *)&data, 4, true); // Adds CRC_A and accept timeout
 838:RC522.c       **** 	if (result != STATUS_OK) {
 839:RC522.c       **** 		return result;
 840:RC522.c       **** 	}
 841:RC522.c       **** 	
 842:RC522.c       **** 	return STATUS_OK;
 843:RC522.c       **** } // End MIFARE_TwoStepHelper()
 844:RC522.c       **** 
 845:RC522.c       **** 
 846:RC522.c       **** unsigned char MIFARE_Transfer(	unsigned char blockAddr ///< The block (0-0xff) number.
 847:RC522.c       **** 											) {
 848:RC522.c       **** 	unsigned char result;
 849:RC522.c       **** 	unsigned char cmdBuffer[2]; // We only need room for 2 bytes.
 850:RC522.c       **** 	
 851:RC522.c       **** 	// Tell the PICC we want to transfer the result into block blockAddr.
 852:RC522.c       **** 	cmdBuffer[0] = PICC_CMD_MF_TRANSFER;
 853:RC522.c       **** 	cmdBuffer[1] = blockAddr;
 854:RC522.c       **** 	result = PCD_MIFARE_Transceive(	cmdBuffer, 2, false); // Adds CRC_A and checks that the response i
 855:RC522.c       **** 	if (result != STATUS_OK) {
 856:RC522.c       **** 		return result;
 857:RC522.c       **** 	}
 858:RC522.c       **** 	return STATUS_OK;
ARM GAS  C:\Users\ABAD_S~1\AppData\Local\Temp\cckPFQC2.s 			page 62


 859:RC522.c       **** } // End MIFARE_Transfer()
 860:RC522.c       **** 
 861:RC522.c       **** unsigned char MIFARE_GetValue(unsigned char blockAddr, uint32_t *value) {
 2514              		.loc 1 861 0
 2515              		.cfi_startproc
 2516              		@ args = 0, pretend = 0, frame = 24
 2517              		@ frame_needed = 0, uses_anonymous_args = 0
 2518              	.LVL357:
 2519 0000 10B5     		push	{r4, lr}
 2520              		.cfi_def_cfa_offset 8
 2521              		.cfi_offset 4, -8
 2522              		.cfi_offset 14, -4
 2523 0002 86B0     		sub	sp, sp, #24
 2524              		.cfi_def_cfa_offset 32
 2525 0004 0C00     		movs	r4, r1
 862:RC522.c       **** 	unsigned char status;
 863:RC522.c       **** 	unsigned char buffer[18];
 864:RC522.c       **** 	unsigned char size = sizeof(buffer);
 2526              		.loc 1 864 0
 2527 0006 6B46     		mov	r3, sp
 2528 0008 DA1C     		adds	r2, r3, #3
 2529 000a 1223     		movs	r3, #18
 2530 000c 1370     		strb	r3, [r2]
 865:RC522.c       **** 	
 866:RC522.c       **** 	// Read the block
 867:RC522.c       **** 	status = MIFARE_Read(blockAddr, buffer, &size);
 2531              		.loc 1 867 0
 2532 000e 01A9     		add	r1, sp, #4
 2533              	.LVL358:
 2534 0010 FFF7FEFF 		bl	MIFARE_Read
 2535              	.LVL359:
 868:RC522.c       **** 	if (status == STATUS_OK) {
 2536              		.loc 1 868 0
 2537 0014 0028     		cmp	r0, #0
 2538 0016 0BD1     		bne	.L150
 2539              	.LBB18:
 869:RC522.c       **** 		// Extract the value
 870:RC522.c       ****         uint32_t aux;
 871:RC522.c       ****         aux=(uint32_t)(buffer[3]<<8);
 2540              		.loc 1 871 0
 2541 0018 01AA     		add	r2, sp, #4
 2542 001a D378     		ldrb	r3, [r2, #3]
 2543 001c 1B02     		lsls	r3, r3, #8
 2544              	.LVL360:
 872:RC522.c       ****         aux= (uint32_t)((buffer[2]|aux)<<8);
 2545              		.loc 1 872 0
 2546 001e 9178     		ldrb	r1, [r2, #2]
 2547 0020 0B43     		orrs	r3, r1
 2548              	.LVL361:
 2549 0022 1B02     		lsls	r3, r3, #8
 2550              	.LVL362:
 873:RC522.c       ****         aux= (uint32_t)((buffer[1]|aux)<<8);
 2551              		.loc 1 873 0
 2552 0024 5178     		ldrb	r1, [r2, #1]
 2553 0026 0B43     		orrs	r3, r1
 2554              	.LVL363:
 2555 0028 1B02     		lsls	r3, r3, #8
ARM GAS  C:\Users\ABAD_S~1\AppData\Local\Temp\cckPFQC2.s 			page 63


 2556              	.LVL364:
 874:RC522.c       **** 		*value = aux | buffer[0];
 2557              		.loc 1 874 0
 2558 002a 1278     		ldrb	r2, [r2]
 2559 002c 1343     		orrs	r3, r2
 2560              	.LVL365:
 2561 002e 2360     		str	r3, [r4]
 2562              	.LVL366:
 2563              	.L150:
 2564              	.LBE18:
 875:RC522.c       **** 	}
 876:RC522.c       **** 	return status;
 877:RC522.c       **** } // End MIFARE_GetValue()
 2565              		.loc 1 877 0
 2566 0030 06B0     		add	sp, sp, #24
 2567              		@ sp needed
 2568              	.LVL367:
 2569 0032 10BD     		pop	{r4, pc}
 2570              		.cfi_endproc
 2571              	.LFE66:
 2572              		.size	MIFARE_GetValue, .-MIFARE_GetValue
 2573              		.section	.text.PCD_NTAG216_AUTH,"ax",%progbits
 2574              		.align	2
 2575              		.global	PCD_NTAG216_AUTH
 2576              		.code	16
 2577              		.thumb_func
 2578              		.type	PCD_NTAG216_AUTH, %function
 2579              	PCD_NTAG216_AUTH:
 2580              	.LFB68:
 878:RC522.c       **** 
 879:RC522.c       **** 
 880:RC522.c       **** unsigned char MIFARE_SetValue(unsigned char blockAddr, uint32_t value) {
 881:RC522.c       **** 	unsigned char buffer[18];
 882:RC522.c       **** 	// Translate the unsigned long into 4 bytes; repeated 2x in value block
 883:RC522.c       **** 	buffer[0] = buffer[ 8] = (value & 0xFF);
 884:RC522.c       **** 	buffer[1] = buffer[ 9] = (value & 0xFF00) >> 8;
 885:RC522.c       **** 	buffer[2] = buffer[10] = (value & 0xFF0000) >> 16;
 886:RC522.c       **** 	buffer[3] = buffer[11] = (value & 0xFF000000) >> 24;
 887:RC522.c       **** 	// Inverse 4 bytes also found in value block
 888:RC522.c       **** 	buffer[4] = ~buffer[0];
 889:RC522.c       **** 	buffer[5] = ~buffer[1];
 890:RC522.c       **** 	buffer[6] = ~buffer[2];
 891:RC522.c       **** 	buffer[7] = ~buffer[3];
 892:RC522.c       **** 	// Address 2x with inverse address 2x
 893:RC522.c       **** 	buffer[12] = buffer[14] = blockAddr;
 894:RC522.c       **** 	buffer[13] = buffer[15] = ~blockAddr;
 895:RC522.c       **** 	
 896:RC522.c       **** 	// Write the whole data block
 897:RC522.c       **** 	return MIFARE_Write(blockAddr, buffer, 16);
 898:RC522.c       **** } // End MIFARE_SetValue()
 899:RC522.c       **** 
 900:RC522.c       **** unsigned char PCD_NTAG216_AUTH(unsigned char *passWord, unsigned char pACK[]) //Authenticate with 3
 901:RC522.c       **** {
 2581              		.loc 1 901 0
 2582              		.cfi_startproc
 2583              		@ args = 0, pretend = 0, frame = 24
 2584              		@ frame_needed = 0, uses_anonymous_args = 0
ARM GAS  C:\Users\ABAD_S~1\AppData\Local\Temp\cckPFQC2.s 			page 64


 2585              	.LVL368:
 2586 0000 30B5     		push	{r4, r5, lr}
 2587              		.cfi_def_cfa_offset 12
 2588              		.cfi_offset 4, -12
 2589              		.cfi_offset 5, -8
 2590              		.cfi_offset 14, -4
 2591 0002 8DB0     		sub	sp, sp, #52
 2592              		.cfi_def_cfa_offset 64
 2593 0004 0C00     		movs	r4, r1
 902:RC522.c       **** 	// TODO: Fix cmdBuffer length and rxlength. They really should match.
 903:RC522.c       **** 	//       (Better still, rxlength should not even be necessary.)
 904:RC522.c       **** 
 905:RC522.c       **** 	unsigned char  result;
 906:RC522.c       **** 	unsigned char cmdBuffer[18]; // We need room for 16 bytes data and 2 bytes CRC_A.
 907:RC522.c       **** 	
 908:RC522.c       **** 	cmdBuffer[0] = 0x1B; //Comando de autentificacion
 2594              		.loc 1 908 0
 2595 0006 1B22     		movs	r2, #27
 2596 0008 07AB     		add	r3, sp, #28
 2597 000a 1A70     		strb	r2, [r3]
 2598              	.LVL369:
 2599              	.LBB19:
 909:RC522.c       **** 	
 910:RC522.c       **** 	for (unsigned char i = 0; i<4; i++)
 2600              		.loc 1 910 0
 2601 000c 0023     		movs	r3, #0
 2602 000e 04E0     		b	.L152
 2603              	.LVL370:
 2604              	.L153:
 911:RC522.c       **** 		cmdBuffer[i+1] = passWord[i];
 2605              		.loc 1 911 0 discriminator 3
 2606 0010 5A1C     		adds	r2, r3, #1
 2607 0012 C15C     		ldrb	r1, [r0, r3]
 2608 0014 07AB     		add	r3, sp, #28
 2609              	.LVL371:
 2610 0016 9954     		strb	r1, [r3, r2]
 910:RC522.c       **** 		cmdBuffer[i+1] = passWord[i];
 2611              		.loc 1 910 0 discriminator 3
 2612 0018 D3B2     		uxtb	r3, r2
 2613              	.LVL372:
 2614              	.L152:
 910:RC522.c       **** 		cmdBuffer[i+1] = passWord[i];
 2615              		.loc 1 910 0 is_stmt 0 discriminator 1
 2616 001a 032B     		cmp	r3, #3
 2617 001c F8D9     		bls	.L153
 2618              	.LBE19:
 912:RC522.c       **** 	
 913:RC522.c       **** 	result = PCD_CalculateCRC(cmdBuffer, 5, &cmdBuffer[5]);
 2619              		.loc 1 913 0 is_stmt 1
 2620 001e 2122     		movs	r2, #33
 2621 0020 6A44     		add	r2, r2, sp
 2622 0022 0521     		movs	r1, #5
 2623 0024 07A8     		add	r0, sp, #28
 2624              	.LVL373:
 2625 0026 FFF7FEFF 		bl	PCD_CalculateCRC
 2626              	.LVL374:
 914:RC522.c       **** 	
ARM GAS  C:\Users\ABAD_S~1\AppData\Local\Temp\cckPFQC2.s 			page 65


 915:RC522.c       **** 	if (result!=STATUS_OK) {
 2627              		.loc 1 915 0
 2628 002a 0028     		cmp	r0, #0
 2629 002c 17D1     		bne	.L154
 2630              	.LVL375:
 916:RC522.c       **** 		return result;
 917:RC522.c       **** 	}
 918:RC522.c       **** 	// Transceive the data, store the reply in cmdBuffer[]
 919:RC522.c       **** 	unsigned char waitIRq		= 0x30;	// RxIRq and IdleIRq
 920:RC522.c       **** //	unsigned char cmdBufferSize	= sizeof(cmdBuffer);
 921:RC522.c       **** 	unsigned char validBits		= 0;
 2631              		.loc 1 921 0
 2632 002e 1B21     		movs	r1, #27
 2633 0030 6944     		add	r1, r1, sp
 2634 0032 0023     		movs	r3, #0
 2635 0034 0B70     		strb	r3, [r1]
 922:RC522.c       **** 	unsigned char rxlength		= 5;
 2636              		.loc 1 922 0
 2637 0036 1A22     		movs	r2, #26
 2638 0038 6A44     		add	r2, r2, sp
 2639 003a 0530     		adds	r0, r0, #5
 2640              	.LVL376:
 2641 003c 1070     		strb	r0, [r2]
 923:RC522.c       **** 	result = PCD_CommunicateWithPICC(PCD_Transceive, waitIRq, cmdBuffer, 7, cmdBuffer, &rxlength, &val
 2642              		.loc 1 923 0
 2643 003e 07AD     		add	r5, sp, #28
 2644 0040 0493     		str	r3, [sp, #16]
 2645 0042 0393     		str	r3, [sp, #12]
 2646 0044 0291     		str	r1, [sp, #8]
 2647 0046 0192     		str	r2, [sp, #4]
 2648 0048 0095     		str	r5, [sp]
 2649 004a 0733     		adds	r3, r3, #7
 2650 004c 2A00     		movs	r2, r5
 2651 004e 3021     		movs	r1, #48
 2652 0050 0730     		adds	r0, r0, #7
 2653 0052 FFF7FEFF 		bl	PCD_CommunicateWithPICC
 2654              	.LVL377:
 924:RC522.c       **** 	
 925:RC522.c       **** 	pACK[0] = cmdBuffer[0];
 2655              		.loc 1 925 0
 2656 0056 2B78     		ldrb	r3, [r5]
 2657 0058 2370     		strb	r3, [r4]
 926:RC522.c       **** 	pACK[1] = cmdBuffer[1];
 2658              		.loc 1 926 0
 2659 005a 6B78     		ldrb	r3, [r5, #1]
 2660 005c 6370     		strb	r3, [r4, #1]
 2661              	.LVL378:
 2662              	.L154:
 927:RC522.c       **** 	
 928:RC522.c       **** 	if (result!=STATUS_OK) {
 929:RC522.c       **** 		return result;
 930:RC522.c       **** 	}
 931:RC522.c       **** 	
 932:RC522.c       **** 	return STATUS_OK;
 933:RC522.c       **** } // End PCD_NTAG216_AUTH()
 2663              		.loc 1 933 0
 2664 005e 0DB0     		add	sp, sp, #52
ARM GAS  C:\Users\ABAD_S~1\AppData\Local\Temp\cckPFQC2.s 			page 66


 2665              		@ sp needed
 2666              	.LVL379:
 2667 0060 30BD     		pop	{r4, r5, pc}
 2668              		.cfi_endproc
 2669              	.LFE68:
 2670              		.size	PCD_NTAG216_AUTH, .-PCD_NTAG216_AUTH
 2671 0062 C046     		.section	.text.PCD_MIFARE_Transceive,"ax",%progbits
 2672              		.align	2
 2673              		.global	PCD_MIFARE_Transceive
 2674              		.code	16
 2675              		.thumb_func
 2676              		.type	PCD_MIFARE_Transceive, %function
 2677              	PCD_MIFARE_Transceive:
 2678              	.LFB69:
 934:RC522.c       **** 
 935:RC522.c       **** unsigned char PCD_MIFARE_Transceive(	unsigned char *sendData,		///< Pointer to the data to transfer
 936:RC522.c       **** 										unsigned char sendLen,		///< Number of bytes in sendData.
 937:RC522.c       **** 										bool acceptTimeout	///< True => A timeout is also success
 938:RC522.c       **** 												) {
 2679              		.loc 1 938 0
 2680              		.cfi_startproc
 2681              		@ args = 0, pretend = 0, frame = 24
 2682              		@ frame_needed = 0, uses_anonymous_args = 0
 2683              	.LVL380:
 2684 0000 30B5     		push	{r4, r5, lr}
 2685              		.cfi_def_cfa_offset 12
 2686              		.cfi_offset 4, -12
 2687              		.cfi_offset 5, -8
 2688              		.cfi_offset 14, -4
 2689 0002 8DB0     		sub	sp, sp, #52
 2690              		.cfi_def_cfa_offset 64
 2691 0004 0C00     		movs	r4, r1
 2692 0006 1500     		movs	r5, r2
 939:RC522.c       **** 	unsigned char result;
 940:RC522.c       **** 	unsigned char cmdBuffer[18]; // We need room for 16 bytes data and 2 bytes CRC_A.
 941:RC522.c       **** 	
 942:RC522.c       **** 	// Sanity check
 943:RC522.c       **** 	if (sendData == NULL || sendLen > 16) {
 2693              		.loc 1 943 0
 2694 0008 0028     		cmp	r0, #0
 2695 000a 39D0     		beq	.L160
 2696              		.loc 1 943 0 is_stmt 0 discriminator 1
 2697 000c 1029     		cmp	r1, #16
 2698 000e 39D8     		bhi	.L161
 944:RC522.c       **** 		return STATUS_INVALID;
 945:RC522.c       **** 	}
 946:RC522.c       **** 	
 947:RC522.c       **** 	// Copy sendData[] to cmdBuffer[] and add CRC_A
 948:RC522.c       **** 	memcpy(cmdBuffer, sendData, sendLen);
 2699              		.loc 1 948 0 is_stmt 1
 2700 0010 0A00     		movs	r2, r1
 2701              	.LVL381:
 2702 0012 0100     		movs	r1, r0
 2703              	.LVL382:
 2704 0014 07A8     		add	r0, sp, #28
 2705              	.LVL383:
 2706 0016 FFF7FEFF 		bl	memcpy
ARM GAS  C:\Users\ABAD_S~1\AppData\Local\Temp\cckPFQC2.s 			page 67


 2707              	.LVL384:
 949:RC522.c       **** 	result = PCD_CalculateCRC(cmdBuffer, sendLen, &cmdBuffer[sendLen]);
 2708              		.loc 1 949 0
 2709 001a 07AB     		add	r3, sp, #28
 2710 001c 1A19     		adds	r2, r3, r4
 2711 001e 2100     		movs	r1, r4
 2712 0020 1800     		movs	r0, r3
 2713 0022 FFF7FEFF 		bl	PCD_CalculateCRC
 2714              	.LVL385:
 950:RC522.c       **** 	if (result != STATUS_OK) { 
 2715              		.loc 1 950 0
 2716 0026 0028     		cmp	r0, #0
 2717 0028 33D1     		bne	.L158
 951:RC522.c       **** 		return result;
 952:RC522.c       **** 	}
 953:RC522.c       **** 	sendLen += 2;
 2718              		.loc 1 953 0
 2719 002a 0234     		adds	r4, r4, #2
 2720 002c E3B2     		uxtb	r3, r4
 2721              	.LVL386:
 954:RC522.c       **** 	
 955:RC522.c       **** 	// Transceive the data, store the reply in cmdBuffer[]
 956:RC522.c       **** 	unsigned char waitIRq = 0x30;		// RxIRq and IdleIRq
 957:RC522.c       **** 	unsigned char cmdBufferSize = sizeof(cmdBuffer);
 2722              		.loc 1 957 0
 2723 002e 1B30     		adds	r0, r0, #27
 2724              	.LVL387:
 2725 0030 6844     		add	r0, r0, sp
 2726 0032 1222     		movs	r2, #18
 2727 0034 0270     		strb	r2, [r0]
 958:RC522.c       **** 	unsigned char validBits = 0;
 2728              		.loc 1 958 0
 2729 0036 1A24     		movs	r4, #26
 2730 0038 6C44     		add	r4, r4, sp
 2731 003a 0021     		movs	r1, #0
 2732 003c 2170     		strb	r1, [r4]
 959:RC522.c       **** 	result = PCD_CommunicateWithPICC(PCD_Transceive, waitIRq, cmdBuffer, sendLen, cmdBuffer, &cmdBuffe
 2733              		.loc 1 959 0
 2734 003e 07AA     		add	r2, sp, #28
 2735 0040 0491     		str	r1, [sp, #16]
 2736 0042 0391     		str	r1, [sp, #12]
 2737 0044 0294     		str	r4, [sp, #8]
 2738 0046 0190     		str	r0, [sp, #4]
 2739 0048 0092     		str	r2, [sp]
 2740 004a 3031     		adds	r1, r1, #48
 2741 004c 0C20     		movs	r0, #12
 2742 004e FFF7FEFF 		bl	PCD_CommunicateWithPICC
 2743              	.LVL388:
 2744 0052 0300     		movs	r3, r0
 2745              	.LVL389:
 960:RC522.c       **** 	if (acceptTimeout && result == STATUS_TIMEOUT) {
 2746              		.loc 1 960 0
 2747 0054 002D     		cmp	r5, #0
 2748 0056 01D0     		beq	.L159
 2749              		.loc 1 960 0 is_stmt 0 discriminator 1
 2750 0058 0328     		cmp	r0, #3
 2751 005a 15D0     		beq	.L163
ARM GAS  C:\Users\ABAD_S~1\AppData\Local\Temp\cckPFQC2.s 			page 68


 2752              	.L159:
 961:RC522.c       **** 		return STATUS_OK;
 962:RC522.c       **** 	}
 963:RC522.c       **** 	if (result != STATUS_OK) {
 2753              		.loc 1 963 0 is_stmt 1
 2754 005c 002B     		cmp	r3, #0
 2755 005e 18D1     		bne	.L158
 964:RC522.c       **** 		return result;
 965:RC522.c       **** 	}
 966:RC522.c       **** 	// The PICC must reply with a 4 bit ACK
 967:RC522.c       **** 	if (cmdBufferSize != 1 || validBits != 4) {
 2756              		.loc 1 967 0
 2757 0060 1B33     		adds	r3, r3, #27
 2758 0062 6B44     		add	r3, r3, sp
 2759 0064 1878     		ldrb	r0, [r3]
 2760              	.LVL390:
 2761 0066 0128     		cmp	r0, #1
 2762 0068 10D1     		bne	.L165
 2763              		.loc 1 967 0 is_stmt 0 discriminator 1
 2764 006a 1A23     		movs	r3, #26
 2765 006c 6B44     		add	r3, r3, sp
 2766 006e 1B78     		ldrb	r3, [r3]
 2767 0070 042B     		cmp	r3, #4
 2768 0072 0ED1     		bne	.L158
 968:RC522.c       **** 		return STATUS_ERROR;
 969:RC522.c       **** 	}
 970:RC522.c       **** 	if (cmdBuffer[0] != 0xA) { //MI_ACK
 2769              		.loc 1 970 0 is_stmt 1
 2770 0074 07AB     		add	r3, sp, #28
 2771 0076 1B78     		ldrb	r3, [r3]
 2772 0078 0A2B     		cmp	r3, #10
 2773 007a 09D0     		beq	.L166
 971:RC522.c       **** 		return STATUS_MIFARE_NACK;
 2774              		.loc 1 971 0
 2775 007c FE30     		adds	r0, r0, #254
 2776 007e 08E0     		b	.L158
 2777              	.LVL391:
 2778              	.L160:
 944:RC522.c       **** 	}
 2779              		.loc 1 944 0
 2780 0080 0620     		movs	r0, #6
 2781              	.LVL392:
 2782 0082 06E0     		b	.L158
 2783              	.LVL393:
 2784              	.L161:
 2785 0084 0620     		movs	r0, #6
 2786              	.LVL394:
 2787 0086 04E0     		b	.L158
 2788              	.LVL395:
 2789              	.L163:
 961:RC522.c       **** 	}
 2790              		.loc 1 961 0
 2791 0088 0020     		movs	r0, #0
 2792              	.LVL396:
 2793 008a 02E0     		b	.L158
 2794              	.L165:
 968:RC522.c       **** 	}
ARM GAS  C:\Users\ABAD_S~1\AppData\Local\Temp\cckPFQC2.s 			page 69


 2795              		.loc 1 968 0
 2796 008c 0120     		movs	r0, #1
 2797 008e 00E0     		b	.L158
 2798              	.L166:
 972:RC522.c       **** 	}
 973:RC522.c       **** 	return STATUS_OK;
 2799              		.loc 1 973 0
 2800 0090 0020     		movs	r0, #0
 2801              	.LVL397:
 2802              	.L158:
 974:RC522.c       **** } // End PCD_MIFARE_Transceive()
 2803              		.loc 1 974 0
 2804 0092 0DB0     		add	sp, sp, #52
 2805              		@ sp needed
 2806 0094 30BD     		pop	{r4, r5, pc}
 2807              		.cfi_endproc
 2808              	.LFE69:
 2809              		.size	PCD_MIFARE_Transceive, .-PCD_MIFARE_Transceive
 2810 0096 C046     		.section	.text.MIFARE_Write,"ax",%progbits
 2811              		.align	2
 2812              		.global	MIFARE_Write
 2813              		.code	16
 2814              		.thumb_func
 2815              		.type	MIFARE_Write, %function
 2816              	MIFARE_Write:
 2817              	.LFB59:
 747:RC522.c       **** 	unsigned char result;
 2818              		.loc 1 747 0
 2819              		.cfi_startproc
 2820              		@ args = 0, pretend = 0, frame = 8
 2821              		@ frame_needed = 0, uses_anonymous_args = 0
 2822              	.LVL398:
 2823 0000 30B5     		push	{r4, r5, lr}
 2824              		.cfi_def_cfa_offset 12
 2825              		.cfi_offset 4, -12
 2826              		.cfi_offset 5, -8
 2827              		.cfi_offset 14, -4
 2828 0002 83B0     		sub	sp, sp, #12
 2829              		.cfi_def_cfa_offset 24
 2830 0004 0C00     		movs	r4, r1
 2831 0006 1500     		movs	r5, r2
 751:RC522.c       **** 		return STATUS_INVALID;
 2832              		.loc 1 751 0
 2833 0008 0029     		cmp	r1, #0
 2834 000a 12D0     		beq	.L169
 751:RC522.c       **** 		return STATUS_INVALID;
 2835              		.loc 1 751 0 is_stmt 0 discriminator 1
 2836 000c 0F2A     		cmp	r2, #15
 2837 000e 12D9     		bls	.L170
 759:RC522.c       **** 	cmdBuffer[1] = blockAddr;
 2838              		.loc 1 759 0 is_stmt 1
 2839 0010 01AB     		add	r3, sp, #4
 2840 0012 A022     		movs	r2, #160
 2841              	.LVL399:
 2842 0014 1A70     		strb	r2, [r3]
 760:RC522.c       **** 	result = PCD_MIFARE_Transceive(cmdBuffer, 2,false); // Adds CRC_A and checks that the response is 
 2843              		.loc 1 760 0
ARM GAS  C:\Users\ABAD_S~1\AppData\Local\Temp\cckPFQC2.s 			page 70


 2844 0016 5870     		strb	r0, [r3, #1]
 761:RC522.c       **** 	if (result != STATUS_OK) {
 2845              		.loc 1 761 0
 2846 0018 0022     		movs	r2, #0
 2847 001a 0221     		movs	r1, #2
 2848              	.LVL400:
 2849 001c 1800     		movs	r0, r3
 2850              	.LVL401:
 2851 001e FFF7FEFF 		bl	PCD_MIFARE_Transceive
 2852              	.LVL402:
 762:RC522.c       **** 		return result;
 2853              		.loc 1 762 0
 2854 0022 0028     		cmp	r0, #0
 2855 0024 08D1     		bne	.L168
 767:RC522.c       **** 	if (result != STATUS_OK) {
 2856              		.loc 1 767 0
 2857 0026 0022     		movs	r2, #0
 2858 0028 2900     		movs	r1, r5
 2859 002a 2000     		movs	r0, r4
 2860              	.LVL403:
 2861 002c FFF7FEFF 		bl	PCD_MIFARE_Transceive
 2862              	.LVL404:
 2863 0030 02E0     		b	.L168
 2864              	.LVL405:
 2865              	.L169:
 752:RC522.c       **** }
 2866              		.loc 1 752 0
 2867 0032 0620     		movs	r0, #6
 2868              	.LVL406:
 2869 0034 00E0     		b	.L168
 2870              	.LVL407:
 2871              	.L170:
 2872 0036 0620     		movs	r0, #6
 2873              	.LVL408:
 2874              	.L168:
 773:RC522.c       **** 
 2875              		.loc 1 773 0
 2876 0038 03B0     		add	sp, sp, #12
 2877              		@ sp needed
 2878              	.LVL409:
 2879 003a 30BD     		pop	{r4, r5, pc}
 2880              		.cfi_endproc
 2881              	.LFE59:
 2882              		.size	MIFARE_Write, .-MIFARE_Write
 2883              		.section	.text.MIFARE_SetValue,"ax",%progbits
 2884              		.align	2
 2885              		.global	MIFARE_SetValue
 2886              		.code	16
 2887              		.thumb_func
 2888              		.type	MIFARE_SetValue, %function
 2889              	MIFARE_SetValue:
 2890              	.LFB67:
 880:RC522.c       **** 	unsigned char buffer[18];
 2891              		.loc 1 880 0
 2892              		.cfi_startproc
 2893              		@ args = 0, pretend = 0, frame = 24
 2894              		@ frame_needed = 0, uses_anonymous_args = 0
ARM GAS  C:\Users\ABAD_S~1\AppData\Local\Temp\cckPFQC2.s 			page 71


 2895              	.LVL410:
 2896 0000 30B5     		push	{r4, r5, lr}
 2897              		.cfi_def_cfa_offset 12
 2898              		.cfi_offset 4, -12
 2899              		.cfi_offset 5, -8
 2900              		.cfi_offset 14, -4
 2901 0002 87B0     		sub	sp, sp, #28
 2902              		.cfi_def_cfa_offset 40
 883:RC522.c       **** 	buffer[1] = buffer[ 9] = (value & 0xFF00) >> 8;
 2903              		.loc 1 883 0
 2904 0004 CDB2     		uxtb	r5, r1
 2905 0006 01AB     		add	r3, sp, #4
 2906 0008 1D72     		strb	r5, [r3, #8]
 2907 000a 1D70     		strb	r5, [r3]
 884:RC522.c       **** 	buffer[2] = buffer[10] = (value & 0xFF0000) >> 16;
 2908              		.loc 1 884 0
 2909 000c 0C0A     		lsrs	r4, r1, #8
 2910 000e E4B2     		uxtb	r4, r4
 2911 0010 5C72     		strb	r4, [r3, #9]
 2912 0012 5C70     		strb	r4, [r3, #1]
 885:RC522.c       **** 	buffer[3] = buffer[11] = (value & 0xFF000000) >> 24;
 2913              		.loc 1 885 0
 2914 0014 0A0C     		lsrs	r2, r1, #16
 2915 0016 D2B2     		uxtb	r2, r2
 2916 0018 9A72     		strb	r2, [r3, #10]
 2917 001a 9A70     		strb	r2, [r3, #2]
 886:RC522.c       **** 	// Inverse 4 bytes also found in value block
 2918              		.loc 1 886 0
 2919 001c 090E     		lsrs	r1, r1, #24
 2920              	.LVL411:
 2921 001e D972     		strb	r1, [r3, #11]
 2922 0020 D970     		strb	r1, [r3, #3]
 888:RC522.c       **** 	buffer[5] = ~buffer[1];
 2923              		.loc 1 888 0
 2924 0022 ED43     		mvns	r5, r5
 2925 0024 1D71     		strb	r5, [r3, #4]
 889:RC522.c       **** 	buffer[6] = ~buffer[2];
 2926              		.loc 1 889 0
 2927 0026 E443     		mvns	r4, r4
 2928 0028 5C71     		strb	r4, [r3, #5]
 890:RC522.c       **** 	buffer[7] = ~buffer[3];
 2929              		.loc 1 890 0
 2930 002a D243     		mvns	r2, r2
 2931 002c 9A71     		strb	r2, [r3, #6]
 891:RC522.c       **** 	// Address 2x with inverse address 2x
 2932              		.loc 1 891 0
 2933 002e C943     		mvns	r1, r1
 2934 0030 D971     		strb	r1, [r3, #7]
 893:RC522.c       **** 	buffer[13] = buffer[15] = ~blockAddr;
 2935              		.loc 1 893 0
 2936 0032 9873     		strb	r0, [r3, #14]
 2937 0034 1873     		strb	r0, [r3, #12]
 894:RC522.c       **** 	
 2938              		.loc 1 894 0
 2939 0036 C243     		mvns	r2, r0
 2940 0038 D2B2     		uxtb	r2, r2
 2941 003a DA73     		strb	r2, [r3, #15]
ARM GAS  C:\Users\ABAD_S~1\AppData\Local\Temp\cckPFQC2.s 			page 72


 2942 003c 5A73     		strb	r2, [r3, #13]
 897:RC522.c       **** } // End MIFARE_SetValue()
 2943              		.loc 1 897 0
 2944 003e 1022     		movs	r2, #16
 2945 0040 1900     		movs	r1, r3
 2946 0042 FFF7FEFF 		bl	MIFARE_Write
 2947              	.LVL412:
 898:RC522.c       **** 
 2948              		.loc 1 898 0
 2949 0046 07B0     		add	sp, sp, #28
 2950              		@ sp needed
 2951 0048 30BD     		pop	{r4, r5, pc}
 2952              		.cfi_endproc
 2953              	.LFE67:
 2954              		.size	MIFARE_SetValue, .-MIFARE_SetValue
 2955 004a C046     		.section	.text.MIFARE_Ultralight_Write,"ax",%progbits
 2956              		.align	2
 2957              		.global	MIFARE_Ultralight_Write
 2958              		.code	16
 2959              		.thumb_func
 2960              		.type	MIFARE_Ultralight_Write, %function
 2961              	MIFARE_Ultralight_Write:
 2962              	.LFB60:
 779:RC522.c       **** 	unsigned char result;
 2963              		.loc 1 779 0
 2964              		.cfi_startproc
 2965              		@ args = 0, pretend = 0, frame = 8
 2966              		@ frame_needed = 0, uses_anonymous_args = 0
 2967              	.LVL413:
 2968 0000 00B5     		push	{lr}
 2969              		.cfi_def_cfa_offset 4
 2970              		.cfi_offset 14, -4
 2971 0002 83B0     		sub	sp, sp, #12
 2972              		.cfi_def_cfa_offset 16
 783:RC522.c       **** 		return STATUS_INVALID;
 2973              		.loc 1 783 0
 2974 0004 0029     		cmp	r1, #0
 2975 0006 10D0     		beq	.L176
 783:RC522.c       **** 		return STATUS_INVALID;
 2976              		.loc 1 783 0 is_stmt 0 discriminator 1
 2977 0008 032A     		cmp	r2, #3
 2978 000a 10D9     		bls	.L177
 789:RC522.c       **** 	cmdBuffer[1] = page;
 2979              		.loc 1 789 0 is_stmt 1
 2980 000c A223     		movs	r3, #162
 2981 000e 6A46     		mov	r2, sp
 2982              	.LVL414:
 2983 0010 1370     		strb	r3, [r2]
 790:RC522.c       **** 	memcpy(&cmdBuffer[2], buffer, 4);
 2984              		.loc 1 790 0
 2985 0012 6B46     		mov	r3, sp
 2986 0014 5070     		strb	r0, [r2, #1]
 791:RC522.c       **** 	
 2987              		.loc 1 791 0
 2988 0016 0422     		movs	r2, #4
 2989 0018 981C     		adds	r0, r3, #2
 2990              	.LVL415:
ARM GAS  C:\Users\ABAD_S~1\AppData\Local\Temp\cckPFQC2.s 			page 73


 2991 001a FFF7FEFF 		bl	memcpy
 2992              	.LVL416:
 794:RC522.c       **** 	if (result != STATUS_OK) {
 2993              		.loc 1 794 0
 2994 001e 0022     		movs	r2, #0
 2995 0020 0621     		movs	r1, #6
 2996 0022 6846     		mov	r0, sp
 2997 0024 FFF7FEFF 		bl	PCD_MIFARE_Transceive
 2998              	.LVL417:
 2999 0028 02E0     		b	.L175
 3000              	.LVL418:
 3001              	.L176:
 784:RC522.c       **** 	}
 3002              		.loc 1 784 0
 3003 002a 0620     		movs	r0, #6
 3004              	.LVL419:
 3005 002c 00E0     		b	.L175
 3006              	.LVL420:
 3007              	.L177:
 3008 002e 0620     		movs	r0, #6
 3009              	.LVL421:
 3010              	.L175:
 799:RC522.c       **** 
 3011              		.loc 1 799 0
 3012 0030 03B0     		add	sp, sp, #12
 3013              		@ sp needed
 3014 0032 00BD     		pop	{pc}
 3015              		.cfi_endproc
 3016              	.LFE60:
 3017              		.size	MIFARE_Ultralight_Write, .-MIFARE_Ultralight_Write
 3018              		.section	.text.MIFARE_TwoStepHelper,"ax",%progbits
 3019              		.align	2
 3020              		.global	MIFARE_TwoStepHelper
 3021              		.code	16
 3022              		.thumb_func
 3023              		.type	MIFARE_TwoStepHelper, %function
 3024              	MIFARE_TwoStepHelper:
 3025              	.LFB64:
 825:RC522.c       **** 	unsigned char result;
 3026              		.loc 1 825 0
 3027              		.cfi_startproc
 3028              		@ args = 0, pretend = 0, frame = 16
 3029              		@ frame_needed = 0, uses_anonymous_args = 0
 3030              	.LVL422:
 3031 0000 00B5     		push	{lr}
 3032              		.cfi_def_cfa_offset 4
 3033              		.cfi_offset 14, -4
 3034 0002 85B0     		sub	sp, sp, #20
 3035              		.cfi_def_cfa_offset 24
 3036 0004 0192     		str	r2, [sp, #4]
 830:RC522.c       **** 	cmdBuffer[1] = blockAddr;
 3037              		.loc 1 830 0
 3038 0006 03AB     		add	r3, sp, #12
 3039 0008 1870     		strb	r0, [r3]
 831:RC522.c       **** 	result = PCD_MIFARE_Transceive(	cmdBuffer, 2, false); // Adds CRC_A and checks that the response i
 3040              		.loc 1 831 0
 3041 000a 5970     		strb	r1, [r3, #1]
ARM GAS  C:\Users\ABAD_S~1\AppData\Local\Temp\cckPFQC2.s 			page 74


 832:RC522.c       **** 	if (result != STATUS_OK) {
 3042              		.loc 1 832 0
 3043 000c 0022     		movs	r2, #0
 3044              	.LVL423:
 3045 000e 0221     		movs	r1, #2
 3046              	.LVL424:
 3047 0010 1800     		movs	r0, r3
 3048              	.LVL425:
 3049 0012 FFF7FEFF 		bl	PCD_MIFARE_Transceive
 3050              	.LVL426:
 833:RC522.c       **** 		return result;
 3051              		.loc 1 833 0
 3052 0016 0028     		cmp	r0, #0
 3053 0018 04D1     		bne	.L180
 837:RC522.c       **** 	if (result != STATUS_OK) {
 3054              		.loc 1 837 0
 3055 001a 0122     		movs	r2, #1
 3056 001c 0421     		movs	r1, #4
 3057 001e 01A8     		add	r0, sp, #4
 3058              	.LVL427:
 3059 0020 FFF7FEFF 		bl	PCD_MIFARE_Transceive
 3060              	.LVL428:
 3061              	.L180:
 843:RC522.c       **** 
 3062              		.loc 1 843 0
 3063 0024 05B0     		add	sp, sp, #20
 3064              		@ sp needed
 3065 0026 00BD     		pop	{pc}
 3066              		.cfi_endproc
 3067              	.LFE64:
 3068              		.size	MIFARE_TwoStepHelper, .-MIFARE_TwoStepHelper
 3069              		.section	.text.MIFARE_Decrement,"ax",%progbits
 3070              		.align	2
 3071              		.global	MIFARE_Decrement
 3072              		.code	16
 3073              		.thumb_func
 3074              		.type	MIFARE_Decrement, %function
 3075              	MIFARE_Decrement:
 3076              	.LFB61:
 803:RC522.c       **** 	return MIFARE_TwoStepHelper(PICC_CMD_MF_DECREMENT, blockAddr, delta);
 3077              		.loc 1 803 0
 3078              		.cfi_startproc
 3079              		@ args = 0, pretend = 0, frame = 0
 3080              		@ frame_needed = 0, uses_anonymous_args = 0
 3081              	.LVL429:
 3082 0000 10B5     		push	{r4, lr}
 3083              		.cfi_def_cfa_offset 8
 3084              		.cfi_offset 4, -8
 3085              		.cfi_offset 14, -4
 3086 0002 0A00     		movs	r2, r1
 804:RC522.c       **** }
 3087              		.loc 1 804 0
 3088 0004 0100     		movs	r1, r0
 3089              	.LVL430:
 3090 0006 C020     		movs	r0, #192
 3091              	.LVL431:
 3092 0008 FFF7FEFF 		bl	MIFARE_TwoStepHelper
ARM GAS  C:\Users\ABAD_S~1\AppData\Local\Temp\cckPFQC2.s 			page 75


 3093              	.LVL432:
 805:RC522.c       **** 
 3094              		.loc 1 805 0
 3095              		@ sp needed
 3096 000c 10BD     		pop	{r4, pc}
 3097              		.cfi_endproc
 3098              	.LFE61:
 3099              		.size	MIFARE_Decrement, .-MIFARE_Decrement
 3100 000e C046     		.section	.text.MIFARE_Increment,"ax",%progbits
 3101              		.align	2
 3102              		.global	MIFARE_Increment
 3103              		.code	16
 3104              		.thumb_func
 3105              		.type	MIFARE_Increment, %function
 3106              	MIFARE_Increment:
 3107              	.LFB62:
 809:RC522.c       **** 	return MIFARE_TwoStepHelper(PICC_CMD_MF_INCREMENT, blockAddr, delta);
 3108              		.loc 1 809 0
 3109              		.cfi_startproc
 3110              		@ args = 0, pretend = 0, frame = 0
 3111              		@ frame_needed = 0, uses_anonymous_args = 0
 3112              	.LVL433:
 3113 0000 10B5     		push	{r4, lr}
 3114              		.cfi_def_cfa_offset 8
 3115              		.cfi_offset 4, -8
 3116              		.cfi_offset 14, -4
 3117 0002 0A00     		movs	r2, r1
 810:RC522.c       **** } // End MIFARE_Increment()
 3118              		.loc 1 810 0
 3119 0004 0100     		movs	r1, r0
 3120              	.LVL434:
 3121 0006 C120     		movs	r0, #193
 3122              	.LVL435:
 3123 0008 FFF7FEFF 		bl	MIFARE_TwoStepHelper
 3124              	.LVL436:
 811:RC522.c       **** 
 3125              		.loc 1 811 0
 3126              		@ sp needed
 3127 000c 10BD     		pop	{r4, pc}
 3128              		.cfi_endproc
 3129              	.LFE62:
 3130              		.size	MIFARE_Increment, .-MIFARE_Increment
 3131 000e C046     		.section	.text.MIFARE_Restore,"ax",%progbits
 3132              		.align	2
 3133              		.global	MIFARE_Restore
 3134              		.code	16
 3135              		.thumb_func
 3136              		.type	MIFARE_Restore, %function
 3137              	MIFARE_Restore:
 3138              	.LFB63:
 815:RC522.c       **** 	// The datasheet describes Restore as a two step operation, but does not explain what data to tran
 3139              		.loc 1 815 0
 3140              		.cfi_startproc
 3141              		@ args = 0, pretend = 0, frame = 0
 3142              		@ frame_needed = 0, uses_anonymous_args = 0
 3143              	.LVL437:
 3144 0000 10B5     		push	{r4, lr}
ARM GAS  C:\Users\ABAD_S~1\AppData\Local\Temp\cckPFQC2.s 			page 76


 3145              		.cfi_def_cfa_offset 8
 3146              		.cfi_offset 4, -8
 3147              		.cfi_offset 14, -4
 3148 0002 0100     		movs	r1, r0
 818:RC522.c       **** } // End MIFARE_Restore()
 3149              		.loc 1 818 0
 3150 0004 0022     		movs	r2, #0
 3151 0006 C220     		movs	r0, #194
 3152              	.LVL438:
 3153 0008 FFF7FEFF 		bl	MIFARE_TwoStepHelper
 3154              	.LVL439:
 819:RC522.c       **** 
 3155              		.loc 1 819 0
 3156              		@ sp needed
 3157 000c 10BD     		pop	{r4, pc}
 3158              		.cfi_endproc
 3159              	.LFE63:
 3160              		.size	MIFARE_Restore, .-MIFARE_Restore
 3161 000e C046     		.section	.text.MIFARE_Transfer,"ax",%progbits
 3162              		.align	2
 3163              		.global	MIFARE_Transfer
 3164              		.code	16
 3165              		.thumb_func
 3166              		.type	MIFARE_Transfer, %function
 3167              	MIFARE_Transfer:
 3168              	.LFB65:
 847:RC522.c       **** 	unsigned char result;
 3169              		.loc 1 847 0
 3170              		.cfi_startproc
 3171              		@ args = 0, pretend = 0, frame = 8
 3172              		@ frame_needed = 0, uses_anonymous_args = 0
 3173              	.LVL440:
 3174 0000 00B5     		push	{lr}
 3175              		.cfi_def_cfa_offset 4
 3176              		.cfi_offset 14, -4
 3177 0002 83B0     		sub	sp, sp, #12
 3178              		.cfi_def_cfa_offset 16
 852:RC522.c       **** 	cmdBuffer[1] = blockAddr;
 3179              		.loc 1 852 0
 3180 0004 01AB     		add	r3, sp, #4
 3181 0006 B022     		movs	r2, #176
 3182 0008 1A70     		strb	r2, [r3]
 853:RC522.c       **** 	result = PCD_MIFARE_Transceive(	cmdBuffer, 2, false); // Adds CRC_A and checks that the response i
 3183              		.loc 1 853 0
 3184 000a 5870     		strb	r0, [r3, #1]
 854:RC522.c       **** 	if (result != STATUS_OK) {
 3185              		.loc 1 854 0
 3186 000c 0022     		movs	r2, #0
 3187 000e 0221     		movs	r1, #2
 3188 0010 1800     		movs	r0, r3
 3189              	.LVL441:
 3190 0012 FFF7FEFF 		bl	PCD_MIFARE_Transceive
 3191              	.LVL442:
 859:RC522.c       **** 
 3192              		.loc 1 859 0
 3193 0016 03B0     		add	sp, sp, #12
 3194              		@ sp needed
ARM GAS  C:\Users\ABAD_S~1\AppData\Local\Temp\cckPFQC2.s 			page 77


 3195 0018 00BD     		pop	{pc}
 3196              		.cfi_endproc
 3197              	.LFE65:
 3198              		.size	MIFARE_Transfer, .-MIFARE_Transfer
 3199 001a C046     		.section	.text.PICC_IsNewCardPresent,"ax",%progbits
 3200              		.align	2
 3201              		.global	PICC_IsNewCardPresent
 3202              		.code	16
 3203              		.thumb_func
 3204              		.type	PICC_IsNewCardPresent, %function
 3205              	PICC_IsNewCardPresent:
 3206              	.LFB70:
 975:RC522.c       **** 
 976:RC522.c       **** 
 977:RC522.c       **** bool PICC_IsNewCardPresent(void) {
 3207              		.loc 1 977 0
 3208              		.cfi_startproc
 3209              		@ args = 0, pretend = 0, frame = 8
 3210              		@ frame_needed = 0, uses_anonymous_args = 0
 3211 0000 10B5     		push	{r4, lr}
 3212              		.cfi_def_cfa_offset 8
 3213              		.cfi_offset 4, -8
 3214              		.cfi_offset 14, -4
 3215 0002 82B0     		sub	sp, sp, #8
 3216              		.cfi_def_cfa_offset 16
 978:RC522.c       **** 	unsigned char bufferATQA[2];
 979:RC522.c       **** 	unsigned char bufferSize = sizeof(bufferATQA);
 3217              		.loc 1 979 0
 3218 0004 6B46     		mov	r3, sp
 3219 0006 DC1C     		adds	r4, r3, #3
 3220 0008 0223     		movs	r3, #2
 3221 000a 2370     		strb	r3, [r4]
 980:RC522.c       **** 	// Reset baud rates
 981:RC522.c       **** 	PCD_WriteRegister(TxModeReg, 0x00);
 3222              		.loc 1 981 0
 3223 000c 0021     		movs	r1, #0
 3224 000e 1220     		movs	r0, #18
 3225 0010 FFF7FEFF 		bl	PCD_WriteRegister
 3226              	.LVL443:
 982:RC522.c       **** 	PCD_WriteRegister(RxModeReg, 0x00);
 3227              		.loc 1 982 0
 3228 0014 0021     		movs	r1, #0
 3229 0016 1320     		movs	r0, #19
 3230 0018 FFF7FEFF 		bl	PCD_WriteRegister
 3231              	.LVL444:
 983:RC522.c       **** 	// Reset ModWidthReg
 984:RC522.c       **** 	PCD_WriteRegister(ModWidthReg, 0x26);
 3232              		.loc 1 984 0
 3233 001c 2621     		movs	r1, #38
 3234 001e 2420     		movs	r0, #36
 3235 0020 FFF7FEFF 		bl	PCD_WriteRegister
 3236              	.LVL445:
 985:RC522.c       **** 
 986:RC522.c       **** 	unsigned char result = PICC_RequestA(bufferATQA, &bufferSize);
 3237              		.loc 1 986 0
 3238 0024 2100     		movs	r1, r4
 3239 0026 01A8     		add	r0, sp, #4
ARM GAS  C:\Users\ABAD_S~1\AppData\Local\Temp\cckPFQC2.s 			page 78


 3240 0028 FFF7FEFF 		bl	PICC_RequestA
 3241              	.LVL446:
 987:RC522.c       **** 	
 988:RC522.c       ****     if((result == STATUS_OK || result == STATUS_COLLISION)){
 3242              		.loc 1 988 0
 3243 002c 0028     		cmp	r0, #0
 3244 002e 03D0     		beq	.L191
 3245              		.loc 1 988 0 is_stmt 0 discriminator 1
 3246 0030 0228     		cmp	r0, #2
 3247 0032 03D1     		bne	.L192
 989:RC522.c       ****         return true;
 3248              		.loc 1 989 0 is_stmt 1
 3249 0034 0138     		subs	r0, r0, #1
 3250              	.LVL447:
 3251 0036 02E0     		b	.L190
 3252              	.LVL448:
 3253              	.L191:
 3254 0038 0120     		movs	r0, #1
 3255              	.LVL449:
 3256 003a 00E0     		b	.L190
 3257              	.LVL450:
 3258              	.L192:
 990:RC522.c       ****     }else{        
 991:RC522.c       ****         return false;
 3259              		.loc 1 991 0
 3260 003c 0020     		movs	r0, #0
 3261              	.LVL451:
 3262              	.L190:
 992:RC522.c       ****     }
 993:RC522.c       **** } // End PICC_IsNewCardPresent()
 3263              		.loc 1 993 0
 3264 003e 02B0     		add	sp, sp, #8
 3265              		@ sp needed
 3266 0040 10BD     		pop	{r4, pc}
 3267              		.cfi_endproc
 3268              	.LFE70:
 3269              		.size	PICC_IsNewCardPresent, .-PICC_IsNewCardPresent
 3270 0042 C046     		.section	.text.PICC_ReadCardSerial,"ax",%progbits
 3271              		.align	2
 3272              		.global	PICC_ReadCardSerial
 3273              		.code	16
 3274              		.thumb_func
 3275              		.type	PICC_ReadCardSerial, %function
 3276              	PICC_ReadCardSerial:
 3277              	.LFB71:
 994:RC522.c       **** 
 995:RC522.c       **** bool PICC_ReadCardSerial(void) {
 3278              		.loc 1 995 0
 3279              		.cfi_startproc
 3280              		@ args = 0, pretend = 0, frame = 0
 3281              		@ frame_needed = 0, uses_anonymous_args = 0
 3282 0000 10B5     		push	{r4, lr}
 3283              		.cfi_def_cfa_offset 8
 3284              		.cfi_offset 4, -8
 3285              		.cfi_offset 14, -4
 996:RC522.c       **** 	unsigned char result = PICC_Select(&uid,0);
 3286              		.loc 1 996 0
ARM GAS  C:\Users\ABAD_S~1\AppData\Local\Temp\cckPFQC2.s 			page 79


 3287 0002 0021     		movs	r1, #0
 3288 0004 0348     		ldr	r0, .L194
 3289 0006 FFF7FEFF 		bl	PICC_Select
 3290              	.LVL452:
 997:RC522.c       **** 	return (result == STATUS_OK);
 3291              		.loc 1 997 0
 3292 000a 4342     		rsbs	r3, r0, #0
 3293 000c 5841     		adcs	r0, r0, r3
 3294              	.LVL453:
 3295 000e C0B2     		uxtb	r0, r0
 998:RC522.c       **** } // End 
 3296              		.loc 1 998 0
 3297              		@ sp needed
 3298 0010 10BD     		pop	{r4, pc}
 3299              	.L195:
 3300 0012 C046     		.align	2
 3301              	.L194:
 3302 0014 00000000 		.word	uid
 3303              		.cfi_endproc
 3304              	.LFE71:
 3305              		.size	PICC_ReadCardSerial, .-PICC_ReadCardSerial
 3306              		.comm	readDummy,1,1
 3307              		.comm	readData,1,1
 3308              		.comm	uid,12,4
 3309              		.text
 3310              	.Letext0:
 3311              		.file 2 "c:\\program files (x86)\\cypress\\psoc creator\\4.2\\psoc creator\\import\\gnu\\arm\\5.4.
 3312              		.file 3 "c:\\program files (x86)\\cypress\\psoc creator\\4.2\\psoc creator\\import\\gnu\\arm\\5.4.
 3313              		.file 4 "Generated_Source\\PSoC4/cytypes.h"
 3314              		.file 5 "RC522.h"
 3315              		.file 6 "Generated_Source\\PSoC4/SPI.h"
 3316              		.file 7 "Generated_Source\\PSoC4/CyLib.h"
 3317              		.file 8 "Generated_Source\\PSoC4/RESET.h"
 3318              		.section	.debug_info,"",%progbits
 3319              	.Ldebug_info0:
 3320 0000 1A1D0000 		.4byte	0x1d1a
 3321 0004 0400     		.2byte	0x4
 3322 0006 00000000 		.4byte	.Ldebug_abbrev0
 3323 000a 04       		.byte	0x4
 3324 000b 01       		.uleb128 0x1
 3325 000c 34020000 		.4byte	.LASF133
 3326 0010 0C       		.byte	0xc
 3327 0011 ED000000 		.4byte	.LASF134
 3328 0015 B1030000 		.4byte	.LASF135
 3329 0019 60000000 		.4byte	.Ldebug_ranges0+0x60
 3330 001d 00000000 		.4byte	0
 3331 0021 00000000 		.4byte	.Ldebug_line0
 3332 0025 02       		.uleb128 0x2
 3333 0026 E2040000 		.4byte	.LASF0
 3334 002a 02       		.byte	0x2
 3335 002b 1B       		.byte	0x1b
 3336 002c 30000000 		.4byte	0x30
 3337 0030 03       		.uleb128 0x3
 3338 0031 01       		.byte	0x1
 3339 0032 06       		.byte	0x6
 3340 0033 C0060000 		.4byte	.LASF2
 3341 0037 02       		.uleb128 0x2
ARM GAS  C:\Users\ABAD_S~1\AppData\Local\Temp\cckPFQC2.s 			page 80


 3342 0038 C0050000 		.4byte	.LASF1
 3343 003c 02       		.byte	0x2
 3344 003d 1D       		.byte	0x1d
 3345 003e 42000000 		.4byte	0x42
 3346 0042 03       		.uleb128 0x3
 3347 0043 01       		.byte	0x1
 3348 0044 08       		.byte	0x8
 3349 0045 68060000 		.4byte	.LASF3
 3350 0049 03       		.uleb128 0x3
 3351 004a 02       		.byte	0x2
 3352 004b 05       		.byte	0x5
 3353 004c 52050000 		.4byte	.LASF4
 3354 0050 02       		.uleb128 0x2
 3355 0051 FC010000 		.4byte	.LASF5
 3356 0055 02       		.byte	0x2
 3357 0056 2B       		.byte	0x2b
 3358 0057 5B000000 		.4byte	0x5b
 3359 005b 03       		.uleb128 0x3
 3360 005c 02       		.byte	0x2
 3361 005d 07       		.byte	0x7
 3362 005e D2060000 		.4byte	.LASF6
 3363 0062 03       		.uleb128 0x3
 3364 0063 04       		.byte	0x4
 3365 0064 05       		.byte	0x5
 3366 0065 67050000 		.4byte	.LASF7
 3367 0069 02       		.uleb128 0x2
 3368 006a 76060000 		.4byte	.LASF8
 3369 006e 02       		.byte	0x2
 3370 006f 41       		.byte	0x41
 3371 0070 74000000 		.4byte	0x74
 3372 0074 03       		.uleb128 0x3
 3373 0075 04       		.byte	0x4
 3374 0076 07       		.byte	0x7
 3375 0077 F1050000 		.4byte	.LASF9
 3376 007b 03       		.uleb128 0x3
 3377 007c 08       		.byte	0x8
 3378 007d 05       		.byte	0x5
 3379 007e 3C040000 		.4byte	.LASF10
 3380 0082 03       		.uleb128 0x3
 3381 0083 08       		.byte	0x8
 3382 0084 07       		.byte	0x7
 3383 0085 B0010000 		.4byte	.LASF11
 3384 0089 04       		.uleb128 0x4
 3385 008a 04       		.byte	0x4
 3386 008b 05       		.byte	0x5
 3387 008c 696E7400 		.ascii	"int\000"
 3388 0090 03       		.uleb128 0x3
 3389 0091 04       		.byte	0x4
 3390 0092 07       		.byte	0x7
 3391 0093 CB000000 		.4byte	.LASF12
 3392 0097 02       		.uleb128 0x2
 3393 0098 3D010000 		.4byte	.LASF13
 3394 009c 03       		.byte	0x3
 3395 009d 14       		.byte	0x14
 3396 009e 25000000 		.4byte	0x25
 3397 00a2 02       		.uleb128 0x2
 3398 00a3 72030000 		.4byte	.LASF14
ARM GAS  C:\Users\ABAD_S~1\AppData\Local\Temp\cckPFQC2.s 			page 81


 3399 00a7 03       		.byte	0x3
 3400 00a8 18       		.byte	0x18
 3401 00a9 37000000 		.4byte	0x37
 3402 00ad 02       		.uleb128 0x2
 3403 00ae 09050000 		.4byte	.LASF15
 3404 00b2 03       		.byte	0x3
 3405 00b3 24       		.byte	0x24
 3406 00b4 50000000 		.4byte	0x50
 3407 00b8 02       		.uleb128 0x2
 3408 00b9 34010000 		.4byte	.LASF16
 3409 00bd 03       		.byte	0x3
 3410 00be 30       		.byte	0x30
 3411 00bf 69000000 		.4byte	0x69
 3412 00c3 05       		.uleb128 0x5
 3413 00c4 0A070000 		.4byte	.LASF17
 3414 00c8 04       		.byte	0x4
 3415 00c9 E401     		.2byte	0x1e4
 3416 00cb 42000000 		.4byte	0x42
 3417 00cf 03       		.uleb128 0x3
 3418 00d0 04       		.byte	0x4
 3419 00d1 04       		.byte	0x4
 3420 00d2 72010000 		.4byte	.LASF18
 3421 00d6 03       		.uleb128 0x3
 3422 00d7 08       		.byte	0x8
 3423 00d8 04       		.byte	0x4
 3424 00d9 10070000 		.4byte	.LASF19
 3425 00dd 03       		.uleb128 0x3
 3426 00de 01       		.byte	0x1
 3427 00df 08       		.byte	0x8
 3428 00e0 3A030000 		.4byte	.LASF20
 3429 00e4 03       		.uleb128 0x3
 3430 00e5 08       		.byte	0x8
 3431 00e6 04       		.byte	0x4
 3432 00e7 FD040000 		.4byte	.LASF21
 3433 00eb 06       		.uleb128 0x6
 3434 00ec 42000000 		.4byte	0x42
 3435 00f0 FB000000 		.4byte	0xfb
 3436 00f4 07       		.uleb128 0x7
 3437 00f5 FB000000 		.4byte	0xfb
 3438 00f9 03       		.byte	0x3
 3439 00fa 00       		.byte	0
 3440 00fb 03       		.uleb128 0x3
 3441 00fc 04       		.byte	0x4
 3442 00fd 07       		.byte	0x7
 3443 00fe E8050000 		.4byte	.LASF22
 3444 0102 08       		.uleb128 0x8
 3445 0103 04       		.byte	0x4
 3446 0104 42000000 		.4byte	0x42
 3447 0108 09       		.uleb128 0x9
 3448 0109 0C       		.byte	0xc
 3449 010a 05       		.byte	0x5
 3450 010b 3A       		.byte	0x3a
 3451 010c 35010000 		.4byte	0x135
 3452 0110 0A       		.uleb128 0xa
 3453 0111 A5040000 		.4byte	.LASF23
 3454 0115 05       		.byte	0x5
 3455 0116 3B       		.byte	0x3b
ARM GAS  C:\Users\ABAD_S~1\AppData\Local\Temp\cckPFQC2.s 			page 82


 3456 0117 42000000 		.4byte	0x42
 3457 011b 00       		.byte	0
 3458 011c 0A       		.uleb128 0xa
 3459 011d A8010000 		.4byte	.LASF24
 3460 0121 05       		.byte	0x5
 3461 0122 3C       		.byte	0x3c
 3462 0123 35010000 		.4byte	0x135
 3463 0127 01       		.byte	0x1
 3464 0128 0B       		.uleb128 0xb
 3465 0129 73616B00 		.ascii	"sak\000"
 3466 012d 05       		.byte	0x5
 3467 012e 3D       		.byte	0x3d
 3468 012f 42000000 		.4byte	0x42
 3469 0133 0B       		.byte	0xb
 3470 0134 00       		.byte	0
 3471 0135 06       		.uleb128 0x6
 3472 0136 42000000 		.4byte	0x42
 3473 013a 45010000 		.4byte	0x145
 3474 013e 07       		.uleb128 0x7
 3475 013f FB000000 		.4byte	0xfb
 3476 0143 09       		.byte	0x9
 3477 0144 00       		.byte	0
 3478 0145 0C       		.uleb128 0xc
 3479 0146 55696400 		.ascii	"Uid\000"
 3480 014a 05       		.byte	0x5
 3481 014b 3E       		.byte	0x3e
 3482 014c 08010000 		.4byte	0x108
 3483 0150 09       		.uleb128 0x9
 3484 0151 06       		.byte	0x6
 3485 0152 05       		.byte	0x5
 3486 0153 42       		.byte	0x42
 3487 0154 65010000 		.4byte	0x165
 3488 0158 0A       		.uleb128 0xa
 3489 0159 02070000 		.4byte	.LASF25
 3490 015d 05       		.byte	0x5
 3491 015e 43       		.byte	0x43
 3492 015f 65010000 		.4byte	0x165
 3493 0163 00       		.byte	0
 3494 0164 00       		.byte	0
 3495 0165 06       		.uleb128 0x6
 3496 0166 42000000 		.4byte	0x42
 3497 016a 75010000 		.4byte	0x175
 3498 016e 07       		.uleb128 0x7
 3499 016f FB000000 		.4byte	0xfb
 3500 0173 05       		.byte	0x5
 3501 0174 00       		.byte	0
 3502 0175 02       		.uleb128 0x2
 3503 0176 6A000000 		.4byte	.LASF26
 3504 017a 05       		.byte	0x5
 3505 017b 44       		.byte	0x44
 3506 017c 50010000 		.4byte	0x150
 3507 0180 0D       		.uleb128 0xd
 3508 0181 7F000000 		.4byte	.LASF29
 3509 0185 01       		.byte	0x1
 3510 0186 10       		.byte	0x10
 3511 0187 00000000 		.4byte	.LFB33
 3512 018b 38000000 		.4byte	.LFE33-.LFB33
ARM GAS  C:\Users\ABAD_S~1\AppData\Local\Temp\cckPFQC2.s 			page 83


 3513 018f 01       		.uleb128 0x1
 3514 0190 9C       		.byte	0x9c
 3515 0191 14020000 		.4byte	0x214
 3516 0195 0E       		.uleb128 0xe
 3517 0196 A5060000 		.4byte	.LASF27
 3518 019a 01       		.byte	0x1
 3519 019b 10       		.byte	0x10
 3520 019c 42000000 		.4byte	0x42
 3521 01a0 00000000 		.4byte	.LLST0
 3522 01a4 0E       		.uleb128 0xe
 3523 01a5 21020000 		.4byte	.LASF28
 3524 01a9 01       		.byte	0x1
 3525 01aa 10       		.byte	0x10
 3526 01ab 42000000 		.4byte	0x42
 3527 01af 21000000 		.4byte	.LLST1
 3528 01b3 0F       		.uleb128 0xf
 3529 01b4 0A000000 		.4byte	.LVL1
 3530 01b8 9D1C0000 		.4byte	0x1c9d
 3531 01bc 0F       		.uleb128 0xf
 3532 01bd 0E000000 		.4byte	.LVL2
 3533 01c1 A81C0000 		.4byte	0x1ca8
 3534 01c5 0F       		.uleb128 0xf
 3535 01c6 12000000 		.4byte	.LVL3
 3536 01ca B31C0000 		.4byte	0x1cb3
 3537 01ce 10       		.uleb128 0x10
 3538 01cf 20000000 		.4byte	.LVL4
 3539 01d3 BE1C0000 		.4byte	0x1cbe
 3540 01d7 E5010000 		.4byte	0x1e5
 3541 01db 11       		.uleb128 0x11
 3542 01dc 01       		.uleb128 0x1
 3543 01dd 50       		.byte	0x50
 3544 01de 05       		.uleb128 0x5
 3545 01df 74       		.byte	0x74
 3546 01e0 00       		.sleb128 0
 3547 01e1 08       		.byte	0x8
 3548 01e2 7E       		.byte	0x7e
 3549 01e3 1A       		.byte	0x1a
 3550 01e4 00       		.byte	0
 3551 01e5 0F       		.uleb128 0xf
 3552 01e6 24000000 		.4byte	.LVL5
 3553 01ea B31C0000 		.4byte	0x1cb3
 3554 01ee 10       		.uleb128 0x10
 3555 01ef 2E000000 		.4byte	.LVL6
 3556 01f3 BE1C0000 		.4byte	0x1cbe
 3557 01f7 02020000 		.4byte	0x202
 3558 01fb 11       		.uleb128 0x11
 3559 01fc 01       		.uleb128 0x1
 3560 01fd 50       		.byte	0x50
 3561 01fe 02       		.uleb128 0x2
 3562 01ff 75       		.byte	0x75
 3563 0200 00       		.sleb128 0
 3564 0201 00       		.byte	0
 3565 0202 12       		.uleb128 0x12
 3566 0203 36000000 		.4byte	.LVL7
 3567 0207 C91C0000 		.4byte	0x1cc9
 3568 020b 11       		.uleb128 0x11
 3569 020c 01       		.uleb128 0x1
ARM GAS  C:\Users\ABAD_S~1\AppData\Local\Temp\cckPFQC2.s 			page 84


 3570 020d 50       		.byte	0x50
 3571 020e 03       		.uleb128 0x3
 3572 020f 0A       		.byte	0xa
 3573 0210 5802     		.2byte	0x258
 3574 0212 00       		.byte	0
 3575 0213 00       		.byte	0
 3576 0214 0D       		.uleb128 0xd
 3577 0215 5F030000 		.4byte	.LASF30
 3578 0219 01       		.byte	0x1
 3579 021a 18       		.byte	0x18
 3580 021b 00000000 		.4byte	.LFB34
 3581 021f 36000000 		.4byte	.LFE34-.LFB34
 3582 0223 01       		.uleb128 0x1
 3583 0224 9C       		.byte	0x9c
 3584 0225 A2020000 		.4byte	0x2a2
 3585 0229 0E       		.uleb128 0xe
 3586 022a A5060000 		.4byte	.LASF27
 3587 022e 01       		.byte	0x1
 3588 022f 18       		.byte	0x18
 3589 0230 42000000 		.4byte	0x42
 3590 0234 42000000 		.4byte	.LLST2
 3591 0238 0E       		.uleb128 0xe
 3592 0239 81010000 		.4byte	.LASF31
 3593 023d 01       		.byte	0x1
 3594 023e 18       		.byte	0x18
 3595 023f 42000000 		.4byte	0x42
 3596 0243 63000000 		.4byte	.LLST3
 3597 0247 0E       		.uleb128 0xe
 3598 0248 C2040000 		.4byte	.LASF32
 3599 024c 01       		.byte	0x1
 3600 024d 18       		.byte	0x18
 3601 024e 02010000 		.4byte	0x102
 3602 0252 84000000 		.4byte	.LLST4
 3603 0256 13       		.uleb128 0x13
 3604 0257 1A000000 		.4byte	.LBB2
 3605 025b 1A000000 		.4byte	.LBE2-.LBB2
 3606 025f 85020000 		.4byte	0x285
 3607 0263 14       		.uleb128 0x14
 3608 0264 87010000 		.4byte	.LASF33
 3609 0268 01       		.byte	0x1
 3610 0269 1E       		.byte	0x1e
 3611 026a 42000000 		.4byte	0x42
 3612 026e B0000000 		.4byte	.LLST5
 3613 0272 0F       		.uleb128 0xf
 3614 0273 22000000 		.4byte	.LVL13
 3615 0277 B31C0000 		.4byte	0x1cb3
 3616 027b 0F       		.uleb128 0xf
 3617 027c 2C000000 		.4byte	.LVL14
 3618 0280 BE1C0000 		.4byte	0x1cbe
 3619 0284 00       		.byte	0
 3620 0285 0F       		.uleb128 0xf
 3621 0286 0C000000 		.4byte	.LVL10
 3622 028a B31C0000 		.4byte	0x1cb3
 3623 028e 12       		.uleb128 0x12
 3624 028f 1A000000 		.4byte	.LVL11
 3625 0293 BE1C0000 		.4byte	0x1cbe
 3626 0297 11       		.uleb128 0x11
ARM GAS  C:\Users\ABAD_S~1\AppData\Local\Temp\cckPFQC2.s 			page 85


 3627 0298 01       		.uleb128 0x1
 3628 0299 50       		.byte	0x50
 3629 029a 05       		.uleb128 0x5
 3630 029b 74       		.byte	0x74
 3631 029c 00       		.sleb128 0
 3632 029d 08       		.byte	0x8
 3633 029e 7E       		.byte	0x7e
 3634 029f 1A       		.byte	0x1a
 3635 02a0 00       		.byte	0
 3636 02a1 00       		.byte	0
 3637 02a2 15       		.uleb128 0x15
 3638 02a3 58040000 		.4byte	.LASF39
 3639 02a7 01       		.byte	0x1
 3640 02a8 25       		.byte	0x25
 3641 02a9 42000000 		.4byte	0x42
 3642 02ad 00000000 		.4byte	.LFB35
 3643 02b1 3C000000 		.4byte	.LFE35-.LFB35
 3644 02b5 01       		.uleb128 0x1
 3645 02b6 9C       		.byte	0x9c
 3646 02b7 44030000 		.4byte	0x344
 3647 02bb 0E       		.uleb128 0xe
 3648 02bc A5060000 		.4byte	.LASF27
 3649 02c0 01       		.byte	0x1
 3650 02c1 25       		.byte	0x25
 3651 02c2 42000000 		.4byte	0x42
 3652 02c6 DA000000 		.4byte	.LLST6
 3653 02ca 16       		.uleb128 0x16
 3654 02cb 21020000 		.4byte	.LASF28
 3655 02cf 01       		.byte	0x1
 3656 02d0 26       		.byte	0x26
 3657 02d1 42000000 		.4byte	0x42
 3658 02d5 01       		.uleb128 0x1
 3659 02d6 50       		.byte	0x50
 3660 02d7 0F       		.uleb128 0xf
 3661 02d8 08000000 		.4byte	.LVL20
 3662 02dc 9D1C0000 		.4byte	0x1c9d
 3663 02e0 0F       		.uleb128 0xf
 3664 02e1 0C000000 		.4byte	.LVL21
 3665 02e5 A81C0000 		.4byte	0x1ca8
 3666 02e9 0F       		.uleb128 0xf
 3667 02ea 10000000 		.4byte	.LVL22
 3668 02ee B31C0000 		.4byte	0x1cb3
 3669 02f2 10       		.uleb128 0x10
 3670 02f3 24000000 		.4byte	.LVL23
 3671 02f7 BE1C0000 		.4byte	0x1cbe
 3672 02fb 09030000 		.4byte	0x309
 3673 02ff 11       		.uleb128 0x11
 3674 0300 01       		.uleb128 0x1
 3675 0301 50       		.byte	0x50
 3676 0302 05       		.uleb128 0x5
 3677 0303 74       		.byte	0x74
 3678 0304 00       		.sleb128 0
 3679 0305 09       		.byte	0x9
 3680 0306 80       		.byte	0x80
 3681 0307 21       		.byte	0x21
 3682 0308 00       		.byte	0
 3683 0309 10       		.uleb128 0x10
ARM GAS  C:\Users\ABAD_S~1\AppData\Local\Temp\cckPFQC2.s 			page 86


 3684 030a 2A000000 		.4byte	.LVL24
 3685 030e BE1C0000 		.4byte	0x1cbe
 3686 0312 1C030000 		.4byte	0x31c
 3687 0316 11       		.uleb128 0x11
 3688 0317 01       		.uleb128 0x1
 3689 0318 50       		.byte	0x50
 3690 0319 01       		.uleb128 0x1
 3691 031a 30       		.byte	0x30
 3692 031b 00       		.byte	0
 3693 031c 10       		.uleb128 0x10
 3694 031d 32000000 		.4byte	.LVL25
 3695 0321 C91C0000 		.4byte	0x1cc9
 3696 0325 31030000 		.4byte	0x331
 3697 0329 11       		.uleb128 0x11
 3698 032a 01       		.uleb128 0x1
 3699 032b 50       		.byte	0x50
 3700 032c 03       		.uleb128 0x3
 3701 032d 0A       		.byte	0xa
 3702 032e F401     		.2byte	0x1f4
 3703 0330 00       		.byte	0
 3704 0331 0F       		.uleb128 0xf
 3705 0332 36000000 		.4byte	.LVL26
 3706 0336 D41C0000 		.4byte	0x1cd4
 3707 033a 0F       		.uleb128 0xf
 3708 033b 3A000000 		.4byte	.LVL27
 3709 033f D41C0000 		.4byte	0x1cd4
 3710 0343 00       		.byte	0
 3711 0344 0D       		.uleb128 0xd
 3712 0345 0B030000 		.4byte	.LASF34
 3713 0349 01       		.byte	0x1
 3714 034a 33       		.byte	0x33
 3715 034b 00000000 		.4byte	.LFB36
 3716 034f 8E000000 		.4byte	.LFE36-.LFB36
 3717 0353 01       		.uleb128 0x1
 3718 0354 9C       		.byte	0x9c
 3719 0355 5C040000 		.4byte	0x45c
 3720 0359 0E       		.uleb128 0xe
 3721 035a A5060000 		.4byte	.LASF27
 3722 035e 01       		.byte	0x1
 3723 035f 33       		.byte	0x33
 3724 0360 42000000 		.4byte	0x42
 3725 0364 FB000000 		.4byte	.LLST7
 3726 0368 0E       		.uleb128 0xe
 3727 0369 81010000 		.4byte	.LASF31
 3728 036d 01       		.byte	0x1
 3729 036e 34       		.byte	0x34
 3730 036f 42000000 		.4byte	0x42
 3731 0373 1C010000 		.4byte	.LLST8
 3732 0377 0E       		.uleb128 0xe
 3733 0378 C2040000 		.4byte	.LASF32
 3734 037c 01       		.byte	0x1
 3735 037d 35       		.byte	0x35
 3736 037e 02010000 		.4byte	0x102
 3737 0382 48010000 		.4byte	.LLST9
 3738 0386 0E       		.uleb128 0xe
 3739 0387 81060000 		.4byte	.LASF35
 3740 038b 01       		.byte	0x1
ARM GAS  C:\Users\ABAD_S~1\AppData\Local\Temp\cckPFQC2.s 			page 87


 3741 038c 36       		.byte	0x36
 3742 038d 42000000 		.4byte	0x42
 3743 0391 74010000 		.4byte	.LLST10
 3744 0395 14       		.uleb128 0x14
 3745 0396 87010000 		.4byte	.LASF33
 3746 039a 01       		.byte	0x1
 3747 039b 3C       		.byte	0x3c
 3748 039c 42000000 		.4byte	0x42
 3749 03a0 95010000 		.4byte	.LLST11
 3750 03a4 13       		.uleb128 0x13
 3751 03a5 32000000 		.4byte	.LBB3
 3752 03a9 28000000 		.4byte	.LBE3-.LBB3
 3753 03ad F8030000 		.4byte	0x3f8
 3754 03b1 14       		.uleb128 0x14
 3755 03b2 BD040000 		.4byte	.LASF36
 3756 03b6 01       		.byte	0x1
 3757 03b7 44       		.byte	0x44
 3758 03b8 42000000 		.4byte	0x42
 3759 03bc D7010000 		.4byte	.LLST12
 3760 03c0 14       		.uleb128 0x14
 3761 03c1 21020000 		.4byte	.LASF28
 3762 03c5 01       		.byte	0x1
 3763 03c6 48       		.byte	0x48
 3764 03c7 42000000 		.4byte	0x42
 3765 03cb F5010000 		.4byte	.LLST13
 3766 03cf 0F       		.uleb128 0xf
 3767 03d0 3E000000 		.4byte	.LVL35
 3768 03d4 B31C0000 		.4byte	0x1cb3
 3769 03d8 10       		.uleb128 0x10
 3770 03d9 48000000 		.4byte	.LVL36
 3771 03dd BE1C0000 		.4byte	0x1cbe
 3772 03e1 EE030000 		.4byte	0x3ee
 3773 03e5 11       		.uleb128 0x11
 3774 03e6 01       		.uleb128 0x1
 3775 03e7 50       		.byte	0x50
 3776 03e8 04       		.uleb128 0x4
 3777 03e9 91       		.byte	0x91
 3778 03ea 64       		.sleb128 -28
 3779 03eb 94       		.byte	0x94
 3780 03ec 01       		.byte	0x1
 3781 03ed 00       		.byte	0
 3782 03ee 0F       		.uleb128 0xf
 3783 03ef 4C000000 		.4byte	.LVL37
 3784 03f3 D41C0000 		.4byte	0x1cd4
 3785 03f7 00       		.byte	0
 3786 03f8 0F       		.uleb128 0xf
 3787 03f9 16000000 		.4byte	.LVL32
 3788 03fd B31C0000 		.4byte	0x1cb3
 3789 0401 10       		.uleb128 0x10
 3790 0402 2E000000 		.4byte	.LVL33
 3791 0406 BE1C0000 		.4byte	0x1cbe
 3792 040a 17040000 		.4byte	0x417
 3793 040e 11       		.uleb128 0x11
 3794 040f 01       		.uleb128 0x1
 3795 0410 50       		.byte	0x50
 3796 0411 04       		.uleb128 0x4
 3797 0412 91       		.byte	0x91
ARM GAS  C:\Users\ABAD_S~1\AppData\Local\Temp\cckPFQC2.s 			page 88


 3798 0413 64       		.sleb128 -28
 3799 0414 94       		.byte	0x94
 3800 0415 01       		.byte	0x1
 3801 0416 00       		.byte	0
 3802 0417 0F       		.uleb128 0xf
 3803 0418 62000000 		.4byte	.LVL42
 3804 041c B31C0000 		.4byte	0x1cb3
 3805 0420 10       		.uleb128 0x10
 3806 0421 6C000000 		.4byte	.LVL43
 3807 0425 BE1C0000 		.4byte	0x1cbe
 3808 0429 36040000 		.4byte	0x436
 3809 042d 11       		.uleb128 0x11
 3810 042e 01       		.uleb128 0x1
 3811 042f 50       		.byte	0x50
 3812 0430 04       		.uleb128 0x4
 3813 0431 91       		.byte	0x91
 3814 0432 64       		.sleb128 -28
 3815 0433 94       		.byte	0x94
 3816 0434 01       		.byte	0x1
 3817 0435 00       		.byte	0
 3818 0436 0F       		.uleb128 0xf
 3819 0437 72000000 		.4byte	.LVL44
 3820 043b D41C0000 		.4byte	0x1cd4
 3821 043f 10       		.uleb128 0x10
 3822 0440 82000000 		.4byte	.LVL47
 3823 0444 BE1C0000 		.4byte	0x1cbe
 3824 0448 52040000 		.4byte	0x452
 3825 044c 11       		.uleb128 0x11
 3826 044d 01       		.uleb128 0x1
 3827 044e 50       		.byte	0x50
 3828 044f 01       		.uleb128 0x1
 3829 0450 30       		.byte	0x30
 3830 0451 00       		.byte	0
 3831 0452 0F       		.uleb128 0xf
 3832 0453 88000000 		.4byte	.LVL49
 3833 0457 D41C0000 		.4byte	0x1cd4
 3834 045b 00       		.byte	0
 3835 045c 0D       		.uleb128 0xd
 3836 045d A9050000 		.4byte	.LASF37
 3837 0461 01       		.byte	0x1
 3838 0462 59       		.byte	0x59
 3839 0463 00000000 		.4byte	.LFB37
 3840 0467 16000000 		.4byte	.LFE37-.LFB37
 3841 046b 01       		.uleb128 0x1
 3842 046c 9C       		.byte	0x9c
 3843 046d C9040000 		.4byte	0x4c9
 3844 0471 17       		.uleb128 0x17
 3845 0472 72656700 		.ascii	"reg\000"
 3846 0476 01       		.byte	0x1
 3847 0477 59       		.byte	0x59
 3848 0478 42000000 		.4byte	0x42
 3849 047c 08020000 		.4byte	.LLST14
 3850 0480 0E       		.uleb128 0xe
 3851 0481 BD040000 		.4byte	.LASF36
 3852 0485 01       		.byte	0x1
 3853 0486 5A       		.byte	0x5a
 3854 0487 42000000 		.4byte	0x42
ARM GAS  C:\Users\ABAD_S~1\AppData\Local\Temp\cckPFQC2.s 			page 89


 3855 048b 29020000 		.4byte	.LLST15
 3856 048f 18       		.uleb128 0x18
 3857 0490 746D7000 		.ascii	"tmp\000"
 3858 0494 01       		.byte	0x1
 3859 0495 5C       		.byte	0x5c
 3860 0496 42000000 		.4byte	0x42
 3861 049a 4A020000 		.4byte	.LLST16
 3862 049e 10       		.uleb128 0x10
 3863 049f 0A000000 		.4byte	.LVL53
 3864 04a3 A2020000 		.4byte	0x2a2
 3865 04a7 B2040000 		.4byte	0x4b2
 3866 04ab 11       		.uleb128 0x11
 3867 04ac 01       		.uleb128 0x1
 3868 04ad 50       		.byte	0x50
 3869 04ae 02       		.uleb128 0x2
 3870 04af 75       		.byte	0x75
 3871 04b0 00       		.sleb128 0
 3872 04b1 00       		.byte	0
 3873 04b2 12       		.uleb128 0x12
 3874 04b3 14000000 		.4byte	.LVL55
 3875 04b7 80010000 		.4byte	0x180
 3876 04bb 11       		.uleb128 0x11
 3877 04bc 01       		.uleb128 0x1
 3878 04bd 50       		.byte	0x50
 3879 04be 02       		.uleb128 0x2
 3880 04bf 75       		.byte	0x75
 3881 04c0 00       		.sleb128 0
 3882 04c1 11       		.uleb128 0x11
 3883 04c2 01       		.uleb128 0x1
 3884 04c3 51       		.byte	0x51
 3885 04c4 02       		.uleb128 0x2
 3886 04c5 74       		.byte	0x74
 3887 04c6 00       		.sleb128 0
 3888 04c7 00       		.byte	0
 3889 04c8 00       		.byte	0
 3890 04c9 0D       		.uleb128 0xd
 3891 04ca 27070000 		.4byte	.LASF38
 3892 04ce 01       		.byte	0x1
 3893 04cf 62       		.byte	0x62
 3894 04d0 00000000 		.4byte	.LFB38
 3895 04d4 16000000 		.4byte	.LFE38-.LFB38
 3896 04d8 01       		.uleb128 0x1
 3897 04d9 9C       		.byte	0x9c
 3898 04da 30050000 		.4byte	0x530
 3899 04de 17       		.uleb128 0x17
 3900 04df 72656700 		.ascii	"reg\000"
 3901 04e3 01       		.byte	0x1
 3902 04e4 62       		.byte	0x62
 3903 04e5 42000000 		.4byte	0x42
 3904 04e9 5D020000 		.4byte	.LLST17
 3905 04ed 0E       		.uleb128 0xe
 3906 04ee BD040000 		.4byte	.LASF36
 3907 04f2 01       		.byte	0x1
 3908 04f3 63       		.byte	0x63
 3909 04f4 42000000 		.4byte	0x42
 3910 04f8 7E020000 		.4byte	.LLST18
 3911 04fc 18       		.uleb128 0x18
ARM GAS  C:\Users\ABAD_S~1\AppData\Local\Temp\cckPFQC2.s 			page 90


 3912 04fd 746D7000 		.ascii	"tmp\000"
 3913 0501 01       		.byte	0x1
 3914 0502 65       		.byte	0x65
 3915 0503 42000000 		.4byte	0x42
 3916 0507 9F020000 		.4byte	.LLST19
 3917 050b 10       		.uleb128 0x10
 3918 050c 0A000000 		.4byte	.LVL57
 3919 0510 A2020000 		.4byte	0x2a2
 3920 0514 1F050000 		.4byte	0x51f
 3921 0518 11       		.uleb128 0x11
 3922 0519 01       		.uleb128 0x1
 3923 051a 50       		.byte	0x50
 3924 051b 02       		.uleb128 0x2
 3925 051c 74       		.byte	0x74
 3926 051d 00       		.sleb128 0
 3927 051e 00       		.byte	0
 3928 051f 12       		.uleb128 0x12
 3929 0520 14000000 		.4byte	.LVL59
 3930 0524 80010000 		.4byte	0x180
 3931 0528 11       		.uleb128 0x11
 3932 0529 01       		.uleb128 0x1
 3933 052a 50       		.byte	0x50
 3934 052b 02       		.uleb128 0x2
 3935 052c 74       		.byte	0x74
 3936 052d 00       		.sleb128 0
 3937 052e 00       		.byte	0
 3938 052f 00       		.byte	0
 3939 0530 15       		.uleb128 0x15
 3940 0531 2E050000 		.4byte	.LASF40
 3941 0535 01       		.byte	0x1
 3942 0536 6A       		.byte	0x6a
 3943 0537 42000000 		.4byte	0x42
 3944 053b 00000000 		.4byte	.LFB39
 3945 053f 6C000000 		.4byte	.LFE39-.LFB39
 3946 0543 01       		.uleb128 0x1
 3947 0544 9C       		.byte	0x9c
 3948 0545 74060000 		.4byte	0x674
 3949 0549 0E       		.uleb128 0xe
 3950 054a 5A030000 		.4byte	.LASF41
 3951 054e 01       		.byte	0x1
 3952 054f 6A       		.byte	0x6a
 3953 0550 02010000 		.4byte	0x102
 3954 0554 B2020000 		.4byte	.LLST20
 3955 0558 0E       		.uleb128 0xe
 3956 0559 70050000 		.4byte	.LASF42
 3957 055d 01       		.byte	0x1
 3958 055e 6B       		.byte	0x6b
 3959 055f 42000000 		.4byte	0x42
 3960 0563 DE020000 		.4byte	.LLST21
 3961 0567 0E       		.uleb128 0xe
 3962 0568 97010000 		.4byte	.LASF43
 3963 056c 01       		.byte	0x1
 3964 056d 6C       		.byte	0x6c
 3965 056e 02010000 		.4byte	0x102
 3966 0572 FF020000 		.4byte	.LLST22
 3967 0576 13       		.uleb128 0x13
 3968 0577 32000000 		.4byte	.LBB4
ARM GAS  C:\Users\ABAD_S~1\AppData\Local\Temp\cckPFQC2.s 			page 91


 3969 057b 32000000 		.4byte	.LBE4-.LBB4
 3970 057f F7050000 		.4byte	0x5f7
 3971 0583 18       		.uleb128 0x18
 3972 0584 6900     		.ascii	"i\000"
 3973 0586 01       		.byte	0x1
 3974 0587 78       		.byte	0x78
 3975 0588 AD000000 		.4byte	0xad
 3976 058c 2B030000 		.4byte	.LLST23
 3977 0590 19       		.uleb128 0x19
 3978 0591 36000000 		.4byte	.LBB5
 3979 0595 26000000 		.4byte	.LBE5-.LBB5
 3980 0599 18       		.uleb128 0x18
 3981 059a 6E00     		.ascii	"n\000"
 3982 059c 01       		.byte	0x1
 3983 059d 7A       		.byte	0x7a
 3984 059e 42000000 		.4byte	0x42
 3985 05a2 57030000 		.4byte	.LLST24
 3986 05a6 10       		.uleb128 0x10
 3987 05a7 3C000000 		.4byte	.LVL69
 3988 05ab A2020000 		.4byte	0x2a2
 3989 05af B9050000 		.4byte	0x5b9
 3990 05b3 11       		.uleb128 0x11
 3991 05b4 01       		.uleb128 0x1
 3992 05b5 50       		.byte	0x50
 3993 05b6 01       		.uleb128 0x1
 3994 05b7 35       		.byte	0x35
 3995 05b8 00       		.byte	0
 3996 05b9 10       		.uleb128 0x10
 3997 05ba 48000000 		.4byte	.LVL71
 3998 05be 80010000 		.4byte	0x180
 3999 05c2 D1050000 		.4byte	0x5d1
 4000 05c6 11       		.uleb128 0x11
 4001 05c7 01       		.uleb128 0x1
 4002 05c8 50       		.byte	0x50
 4003 05c9 01       		.uleb128 0x1
 4004 05ca 31       		.byte	0x31
 4005 05cb 11       		.uleb128 0x11
 4006 05cc 01       		.uleb128 0x1
 4007 05cd 51       		.byte	0x51
 4008 05ce 01       		.uleb128 0x1
 4009 05cf 30       		.byte	0x30
 4010 05d0 00       		.byte	0
 4011 05d1 10       		.uleb128 0x10
 4012 05d2 4E000000 		.4byte	.LVL72
 4013 05d6 A2020000 		.4byte	0x2a2
 4014 05da E5050000 		.4byte	0x5e5
 4015 05de 11       		.uleb128 0x11
 4016 05df 01       		.uleb128 0x1
 4017 05e0 50       		.byte	0x50
 4018 05e1 02       		.uleb128 0x2
 4019 05e2 08       		.byte	0x8
 4020 05e3 22       		.byte	0x22
 4021 05e4 00       		.byte	0
 4022 05e5 12       		.uleb128 0x12
 4023 05e6 56000000 		.4byte	.LVL73
 4024 05ea A2020000 		.4byte	0x2a2
 4025 05ee 11       		.uleb128 0x11
ARM GAS  C:\Users\ABAD_S~1\AppData\Local\Temp\cckPFQC2.s 			page 92


 4026 05ef 01       		.uleb128 0x1
 4027 05f0 50       		.byte	0x50
 4028 05f1 02       		.uleb128 0x2
 4029 05f2 08       		.byte	0x8
 4030 05f3 21       		.byte	0x21
 4031 05f4 00       		.byte	0
 4032 05f5 00       		.byte	0
 4033 05f6 00       		.byte	0
 4034 05f7 10       		.uleb128 0x10
 4035 05f8 10000000 		.4byte	.LVL63
 4036 05fc 80010000 		.4byte	0x180
 4037 0600 0F060000 		.4byte	0x60f
 4038 0604 11       		.uleb128 0x11
 4039 0605 01       		.uleb128 0x1
 4040 0606 50       		.byte	0x50
 4041 0607 01       		.uleb128 0x1
 4042 0608 31       		.byte	0x31
 4043 0609 11       		.uleb128 0x11
 4044 060a 01       		.uleb128 0x1
 4045 060b 51       		.byte	0x51
 4046 060c 01       		.uleb128 0x1
 4047 060d 30       		.byte	0x30
 4048 060e 00       		.byte	0
 4049 060f 10       		.uleb128 0x10
 4050 0610 18000000 		.4byte	.LVL64
 4051 0614 80010000 		.4byte	0x180
 4052 0618 27060000 		.4byte	0x627
 4053 061c 11       		.uleb128 0x11
 4054 061d 01       		.uleb128 0x1
 4055 061e 50       		.byte	0x50
 4056 061f 01       		.uleb128 0x1
 4057 0620 35       		.byte	0x35
 4058 0621 11       		.uleb128 0x11
 4059 0622 01       		.uleb128 0x1
 4060 0623 51       		.byte	0x51
 4061 0624 01       		.uleb128 0x1
 4062 0625 34       		.byte	0x34
 4063 0626 00       		.byte	0
 4064 0627 10       		.uleb128 0x10
 4065 0628 20000000 		.4byte	.LVL65
 4066 062c 80010000 		.4byte	0x180
 4067 0630 40060000 		.4byte	0x640
 4068 0634 11       		.uleb128 0x11
 4069 0635 01       		.uleb128 0x1
 4070 0636 50       		.byte	0x50
 4071 0637 01       		.uleb128 0x1
 4072 0638 3A       		.byte	0x3a
 4073 0639 11       		.uleb128 0x11
 4074 063a 01       		.uleb128 0x1
 4075 063b 51       		.byte	0x51
 4076 063c 02       		.uleb128 0x2
 4077 063d 09       		.byte	0x9
 4078 063e 80       		.byte	0x80
 4079 063f 00       		.byte	0
 4080 0640 10       		.uleb128 0x10
 4081 0641 2A000000 		.4byte	.LVL66
 4082 0645 14020000 		.4byte	0x214
ARM GAS  C:\Users\ABAD_S~1\AppData\Local\Temp\cckPFQC2.s 			page 93


 4083 0649 5F060000 		.4byte	0x65f
 4084 064d 11       		.uleb128 0x11
 4085 064e 01       		.uleb128 0x1
 4086 064f 50       		.byte	0x50
 4087 0650 01       		.uleb128 0x1
 4088 0651 39       		.byte	0x39
 4089 0652 11       		.uleb128 0x11
 4090 0653 01       		.uleb128 0x1
 4091 0654 51       		.byte	0x51
 4092 0655 02       		.uleb128 0x2
 4093 0656 74       		.byte	0x74
 4094 0657 00       		.sleb128 0
 4095 0658 11       		.uleb128 0x11
 4096 0659 01       		.uleb128 0x1
 4097 065a 52       		.byte	0x52
 4098 065b 02       		.uleb128 0x2
 4099 065c 76       		.byte	0x76
 4100 065d 00       		.sleb128 0
 4101 065e 00       		.byte	0
 4102 065f 12       		.uleb128 0x12
 4103 0660 32000000 		.4byte	.LVL67
 4104 0664 80010000 		.4byte	0x180
 4105 0668 11       		.uleb128 0x11
 4106 0669 01       		.uleb128 0x1
 4107 066a 50       		.byte	0x50
 4108 066b 01       		.uleb128 0x1
 4109 066c 31       		.byte	0x31
 4110 066d 11       		.uleb128 0x11
 4111 066e 01       		.uleb128 0x1
 4112 066f 51       		.byte	0x51
 4113 0670 01       		.uleb128 0x1
 4114 0671 33       		.byte	0x33
 4115 0672 00       		.byte	0
 4116 0673 00       		.byte	0
 4117 0674 0D       		.uleb128 0xd
 4118 0675 AA060000 		.4byte	.LASF44
 4119 0679 01       		.byte	0x1
 4120 067a AD       		.byte	0xad
 4121 067b 00000000 		.4byte	.LFB41
 4122 067f 26000000 		.4byte	.LFE41-.LFB41
 4123 0683 01       		.uleb128 0x1
 4124 0684 9C       		.byte	0x9c
 4125 0685 D4060000 		.4byte	0x6d4
 4126 0689 14       		.uleb128 0x14
 4127 068a 81010000 		.4byte	.LASF31
 4128 068e 01       		.byte	0x1
 4129 068f B2       		.byte	0xb2
 4130 0690 42000000 		.4byte	0x42
 4131 0694 75030000 		.4byte	.LLST25
 4132 0698 10       		.uleb128 0x10
 4133 0699 0A000000 		.4byte	.LVL80
 4134 069d 80010000 		.4byte	0x180
 4135 06a1 B0060000 		.4byte	0x6b0
 4136 06a5 11       		.uleb128 0x11
 4137 06a6 01       		.uleb128 0x1
 4138 06a7 50       		.byte	0x50
 4139 06a8 01       		.uleb128 0x1
ARM GAS  C:\Users\ABAD_S~1\AppData\Local\Temp\cckPFQC2.s 			page 94


 4140 06a9 31       		.byte	0x31
 4141 06aa 11       		.uleb128 0x11
 4142 06ab 01       		.uleb128 0x1
 4143 06ac 51       		.byte	0x51
 4144 06ad 01       		.uleb128 0x1
 4145 06ae 3F       		.byte	0x3f
 4146 06af 00       		.byte	0
 4147 06b0 10       		.uleb128 0x10
 4148 06b1 12000000 		.4byte	.LVL82
 4149 06b5 DF1C0000 		.4byte	0x1cdf
 4150 06b9 C4060000 		.4byte	0x6c4
 4151 06bd 11       		.uleb128 0x11
 4152 06be 01       		.uleb128 0x1
 4153 06bf 50       		.byte	0x50
 4154 06c0 02       		.uleb128 0x2
 4155 06c1 08       		.byte	0x8
 4156 06c2 32       		.byte	0x32
 4157 06c3 00       		.byte	0
 4158 06c4 12       		.uleb128 0x12
 4159 06c5 18000000 		.4byte	.LVL83
 4160 06c9 A2020000 		.4byte	0x2a2
 4161 06cd 11       		.uleb128 0x11
 4162 06ce 01       		.uleb128 0x1
 4163 06cf 50       		.byte	0x50
 4164 06d0 01       		.uleb128 0x1
 4165 06d1 31       		.byte	0x31
 4166 06d2 00       		.byte	0
 4167 06d3 00       		.byte	0
 4168 06d4 0D       		.uleb128 0xd
 4169 06d5 4A040000 		.4byte	.LASF45
 4170 06d9 01       		.byte	0x1
 4171 06da B9       		.byte	0xb9
 4172 06db 00000000 		.4byte	.LFB42
 4173 06df 16000000 		.4byte	.LFE42-.LFB42
 4174 06e3 01       		.uleb128 0x1
 4175 06e4 9C       		.byte	0x9c
 4176 06e5 1B070000 		.4byte	0x71b
 4177 06e9 14       		.uleb128 0x14
 4178 06ea 21020000 		.4byte	.LASF28
 4179 06ee 01       		.byte	0x1
 4180 06ef BA       		.byte	0xba
 4181 06f0 42000000 		.4byte	0x42
 4182 06f4 9F030000 		.4byte	.LLST26
 4183 06f8 10       		.uleb128 0x10
 4184 06f9 08000000 		.4byte	.LVL87
 4185 06fd A2020000 		.4byte	0x2a2
 4186 0701 0B070000 		.4byte	0x70b
 4187 0705 11       		.uleb128 0x11
 4188 0706 01       		.uleb128 0x1
 4189 0707 50       		.byte	0x50
 4190 0708 01       		.uleb128 0x1
 4191 0709 44       		.byte	0x44
 4192 070a 00       		.byte	0
 4193 070b 12       		.uleb128 0x12
 4194 070c 14000000 		.4byte	.LVL89
 4195 0710 80010000 		.4byte	0x180
 4196 0714 11       		.uleb128 0x11
ARM GAS  C:\Users\ABAD_S~1\AppData\Local\Temp\cckPFQC2.s 			page 95


 4197 0715 01       		.uleb128 0x1
 4198 0716 50       		.byte	0x50
 4199 0717 01       		.uleb128 0x1
 4200 0718 44       		.byte	0x44
 4201 0719 00       		.byte	0
 4202 071a 00       		.byte	0
 4203 071b 0D       		.uleb128 0xd
 4204 071c CA050000 		.4byte	.LASF46
 4205 0720 01       		.byte	0x1
 4206 0721 8B       		.byte	0x8b
 4207 0722 00000000 		.4byte	.LFB40
 4208 0726 72000000 		.4byte	.LFE40-.LFB40
 4209 072a 01       		.uleb128 0x1
 4210 072b 9C       		.byte	0x9c
 4211 072c 7E080000 		.4byte	0x87e
 4212 0730 1A       		.uleb128 0x1a
 4213 0731 C2020000 		.4byte	.LASF47
 4214 0735 01       		.byte	0x1
 4215 0736 8D       		.byte	0x8d
 4216 0737 7E080000 		.4byte	0x87e
 4217 073b 01       		.byte	0x1
 4218 073c 0F       		.uleb128 0xf
 4219 073d 06000000 		.4byte	.LVL90
 4220 0741 EA1C0000 		.4byte	0x1cea
 4221 0745 0F       		.uleb128 0xf
 4222 0746 0A000000 		.4byte	.LVL91
 4223 074a F51C0000 		.4byte	0x1cf5
 4224 074e 0F       		.uleb128 0xf
 4225 074f 12000000 		.4byte	.LVL92
 4226 0753 001D0000 		.4byte	0x1d00
 4227 0757 10       		.uleb128 0x10
 4228 0758 18000000 		.4byte	.LVL93
 4229 075c C91C0000 		.4byte	0x1cc9
 4230 0760 6A070000 		.4byte	0x76a
 4231 0764 11       		.uleb128 0x11
 4232 0765 01       		.uleb128 0x1
 4233 0766 50       		.byte	0x50
 4234 0767 01       		.uleb128 0x1
 4235 0768 44       		.byte	0x44
 4236 0769 00       		.byte	0
 4237 076a 10       		.uleb128 0x10
 4238 076b 1E000000 		.4byte	.LVL94
 4239 076f 001D0000 		.4byte	0x1d00
 4240 0773 7D070000 		.4byte	0x77d
 4241 0777 11       		.uleb128 0x11
 4242 0778 01       		.uleb128 0x1
 4243 0779 50       		.byte	0x50
 4244 077a 01       		.uleb128 0x1
 4245 077b 31       		.byte	0x31
 4246 077c 00       		.byte	0
 4247 077d 10       		.uleb128 0x10
 4248 077e 24000000 		.4byte	.LVL95
 4249 0782 DF1C0000 		.4byte	0x1cdf
 4250 0786 91070000 		.4byte	0x791
 4251 078a 11       		.uleb128 0x11
 4252 078b 01       		.uleb128 0x1
 4253 078c 50       		.byte	0x50
ARM GAS  C:\Users\ABAD_S~1\AppData\Local\Temp\cckPFQC2.s 			page 96


 4254 078d 02       		.uleb128 0x2
 4255 078e 08       		.byte	0x8
 4256 078f 32       		.byte	0x32
 4257 0790 00       		.byte	0
 4258 0791 10       		.uleb128 0x10
 4259 0792 2C000000 		.4byte	.LVL96
 4260 0796 80010000 		.4byte	0x180
 4261 079a A9070000 		.4byte	0x7a9
 4262 079e 11       		.uleb128 0x11
 4263 079f 01       		.uleb128 0x1
 4264 07a0 50       		.byte	0x50
 4265 07a1 01       		.uleb128 0x1
 4266 07a2 42       		.byte	0x42
 4267 07a3 11       		.uleb128 0x11
 4268 07a4 01       		.uleb128 0x1
 4269 07a5 51       		.byte	0x51
 4270 07a6 01       		.uleb128 0x1
 4271 07a7 30       		.byte	0x30
 4272 07a8 00       		.byte	0
 4273 07a9 10       		.uleb128 0x10
 4274 07aa 34000000 		.4byte	.LVL97
 4275 07ae 80010000 		.4byte	0x180
 4276 07b2 C1070000 		.4byte	0x7c1
 4277 07b6 11       		.uleb128 0x11
 4278 07b7 01       		.uleb128 0x1
 4279 07b8 50       		.byte	0x50
 4280 07b9 01       		.uleb128 0x1
 4281 07ba 43       		.byte	0x43
 4282 07bb 11       		.uleb128 0x11
 4283 07bc 01       		.uleb128 0x1
 4284 07bd 51       		.byte	0x51
 4285 07be 01       		.uleb128 0x1
 4286 07bf 30       		.byte	0x30
 4287 07c0 00       		.byte	0
 4288 07c1 10       		.uleb128 0x10
 4289 07c2 3C000000 		.4byte	.LVL98
 4290 07c6 80010000 		.4byte	0x180
 4291 07ca DB070000 		.4byte	0x7db
 4292 07ce 11       		.uleb128 0x11
 4293 07cf 01       		.uleb128 0x1
 4294 07d0 50       		.byte	0x50
 4295 07d1 02       		.uleb128 0x2
 4296 07d2 08       		.byte	0x8
 4297 07d3 24       		.byte	0x24
 4298 07d4 11       		.uleb128 0x11
 4299 07d5 01       		.uleb128 0x1
 4300 07d6 51       		.byte	0x51
 4301 07d7 02       		.uleb128 0x2
 4302 07d8 08       		.byte	0x8
 4303 07d9 26       		.byte	0x26
 4304 07da 00       		.byte	0
 4305 07db 10       		.uleb128 0x10
 4306 07dc 44000000 		.4byte	.LVL99
 4307 07e0 80010000 		.4byte	0x180
 4308 07e4 F5070000 		.4byte	0x7f5
 4309 07e8 11       		.uleb128 0x11
 4310 07e9 01       		.uleb128 0x1
ARM GAS  C:\Users\ABAD_S~1\AppData\Local\Temp\cckPFQC2.s 			page 97


 4311 07ea 50       		.byte	0x50
 4312 07eb 02       		.uleb128 0x2
 4313 07ec 08       		.byte	0x8
 4314 07ed 2A       		.byte	0x2a
 4315 07ee 11       		.uleb128 0x11
 4316 07ef 01       		.uleb128 0x1
 4317 07f0 51       		.byte	0x51
 4318 07f1 02       		.uleb128 0x2
 4319 07f2 09       		.byte	0x9
 4320 07f3 80       		.byte	0x80
 4321 07f4 00       		.byte	0
 4322 07f5 10       		.uleb128 0x10
 4323 07f6 4C000000 		.4byte	.LVL100
 4324 07fa 80010000 		.4byte	0x180
 4325 07fe 0F080000 		.4byte	0x80f
 4326 0802 11       		.uleb128 0x11
 4327 0803 01       		.uleb128 0x1
 4328 0804 50       		.byte	0x50
 4329 0805 02       		.uleb128 0x2
 4330 0806 08       		.byte	0x8
 4331 0807 2B       		.byte	0x2b
 4332 0808 11       		.uleb128 0x11
 4333 0809 01       		.uleb128 0x1
 4334 080a 51       		.byte	0x51
 4335 080b 02       		.uleb128 0x2
 4336 080c 09       		.byte	0x9
 4337 080d A9       		.byte	0xa9
 4338 080e 00       		.byte	0
 4339 080f 10       		.uleb128 0x10
 4340 0810 54000000 		.4byte	.LVL101
 4341 0814 80010000 		.4byte	0x180
 4342 0818 28080000 		.4byte	0x828
 4343 081c 11       		.uleb128 0x11
 4344 081d 01       		.uleb128 0x1
 4345 081e 50       		.byte	0x50
 4346 081f 02       		.uleb128 0x2
 4347 0820 08       		.byte	0x8
 4348 0821 2C       		.byte	0x2c
 4349 0822 11       		.uleb128 0x11
 4350 0823 01       		.uleb128 0x1
 4351 0824 51       		.byte	0x51
 4352 0825 01       		.uleb128 0x1
 4353 0826 33       		.byte	0x33
 4354 0827 00       		.byte	0
 4355 0828 10       		.uleb128 0x10
 4356 0829 5C000000 		.4byte	.LVL102
 4357 082d 80010000 		.4byte	0x180
 4358 0831 42080000 		.4byte	0x842
 4359 0835 11       		.uleb128 0x11
 4360 0836 01       		.uleb128 0x1
 4361 0837 50       		.byte	0x50
 4362 0838 02       		.uleb128 0x2
 4363 0839 08       		.byte	0x8
 4364 083a 2D       		.byte	0x2d
 4365 083b 11       		.uleb128 0x11
 4366 083c 01       		.uleb128 0x1
 4367 083d 51       		.byte	0x51
ARM GAS  C:\Users\ABAD_S~1\AppData\Local\Temp\cckPFQC2.s 			page 98


 4368 083e 02       		.uleb128 0x2
 4369 083f 09       		.byte	0x9
 4370 0840 E8       		.byte	0xe8
 4371 0841 00       		.byte	0
 4372 0842 10       		.uleb128 0x10
 4373 0843 64000000 		.4byte	.LVL103
 4374 0847 80010000 		.4byte	0x180
 4375 084b 5B080000 		.4byte	0x85b
 4376 084f 11       		.uleb128 0x11
 4377 0850 01       		.uleb128 0x1
 4378 0851 50       		.byte	0x50
 4379 0852 01       		.uleb128 0x1
 4380 0853 45       		.byte	0x45
 4381 0854 11       		.uleb128 0x11
 4382 0855 01       		.uleb128 0x1
 4383 0856 51       		.byte	0x51
 4384 0857 02       		.uleb128 0x2
 4385 0858 08       		.byte	0x8
 4386 0859 40       		.byte	0x40
 4387 085a 00       		.byte	0
 4388 085b 10       		.uleb128 0x10
 4389 085c 6C000000 		.4byte	.LVL104
 4390 0860 80010000 		.4byte	0x180
 4391 0864 74080000 		.4byte	0x874
 4392 0868 11       		.uleb128 0x11
 4393 0869 01       		.uleb128 0x1
 4394 086a 50       		.byte	0x50
 4395 086b 01       		.uleb128 0x1
 4396 086c 41       		.byte	0x41
 4397 086d 11       		.uleb128 0x11
 4398 086e 01       		.uleb128 0x1
 4399 086f 51       		.byte	0x51
 4400 0870 02       		.uleb128 0x2
 4401 0871 08       		.byte	0x8
 4402 0872 3D       		.byte	0x3d
 4403 0873 00       		.byte	0
 4404 0874 0F       		.uleb128 0xf
 4405 0875 70000000 		.4byte	.LVL105
 4406 0879 D4060000 		.4byte	0x6d4
 4407 087d 00       		.byte	0
 4408 087e 03       		.uleb128 0x3
 4409 087f 01       		.byte	0x1
 4410 0880 02       		.byte	0x2
 4411 0881 E6020000 		.4byte	.LASF48
 4412 0885 0D       		.uleb128 0xd
 4413 0886 07020000 		.4byte	.LASF49
 4414 088a 01       		.byte	0x1
 4415 088b C0       		.byte	0xc0
 4416 088c 00000000 		.4byte	.LFB43
 4417 0890 0C000000 		.4byte	.LFE43-.LFB43
 4418 0894 01       		.uleb128 0x1
 4419 0895 9C       		.byte	0x9c
 4420 0896 AF080000 		.4byte	0x8af
 4421 089a 12       		.uleb128 0x12
 4422 089b 0A000000 		.4byte	.LVL106
 4423 089f C9040000 		.4byte	0x4c9
 4424 08a3 11       		.uleb128 0x11
ARM GAS  C:\Users\ABAD_S~1\AppData\Local\Temp\cckPFQC2.s 			page 99


 4425 08a4 01       		.uleb128 0x1
 4426 08a5 50       		.byte	0x50
 4427 08a6 01       		.uleb128 0x1
 4428 08a7 44       		.byte	0x44
 4429 08a8 11       		.uleb128 0x11
 4430 08a9 01       		.uleb128 0x1
 4431 08aa 51       		.byte	0x51
 4432 08ab 01       		.uleb128 0x1
 4433 08ac 33       		.byte	0x33
 4434 08ad 00       		.byte	0
 4435 08ae 00       		.byte	0
 4436 08af 1B       		.uleb128 0x1b
 4437 08b0 9C000000 		.4byte	.LASF50
 4438 08b4 01       		.byte	0x1
 4439 08b5 C4       		.byte	0xc4
 4440 08b6 42000000 		.4byte	0x42
 4441 08ba 00000000 		.4byte	.LFB44
 4442 08be 0E000000 		.4byte	.LFE44-.LFB44
 4443 08c2 01       		.uleb128 0x1
 4444 08c3 9C       		.byte	0x9c
 4445 08c4 D9080000 		.4byte	0x8d9
 4446 08c8 12       		.uleb128 0x12
 4447 08c9 08000000 		.4byte	.LVL107
 4448 08cd A2020000 		.4byte	0x2a2
 4449 08d1 11       		.uleb128 0x11
 4450 08d2 01       		.uleb128 0x1
 4451 08d3 50       		.byte	0x50
 4452 08d4 02       		.uleb128 0x2
 4453 08d5 08       		.byte	0x8
 4454 08d6 26       		.byte	0x26
 4455 08d7 00       		.byte	0
 4456 08d8 00       		.byte	0
 4457 08d9 0D       		.uleb128 0xd
 4458 08da 32060000 		.4byte	.LASF51
 4459 08de 01       		.byte	0x1
 4460 08df C8       		.byte	0xc8
 4461 08e0 00000000 		.4byte	.LFB45
 4462 08e4 20000000 		.4byte	.LFE45-.LFB45
 4463 08e8 01       		.uleb128 0x1
 4464 08e9 9C       		.byte	0x9c
 4465 08ea 3A090000 		.4byte	0x93a
 4466 08ee 0E       		.uleb128 0xe
 4467 08ef BD040000 		.4byte	.LASF36
 4468 08f3 01       		.byte	0x1
 4469 08f4 C8       		.byte	0xc8
 4470 08f5 42000000 		.4byte	0x42
 4471 08f9 B2030000 		.4byte	.LLST27
 4472 08fd 0F       		.uleb128 0xf
 4473 08fe 08000000 		.4byte	.LVL109
 4474 0902 AF080000 		.4byte	0x8af
 4475 0906 10       		.uleb128 0x10
 4476 0907 14000000 		.4byte	.LVL110
 4477 090b C9040000 		.4byte	0x4c9
 4478 090f 20090000 		.4byte	0x920
 4479 0913 11       		.uleb128 0x11
 4480 0914 01       		.uleb128 0x1
 4481 0915 50       		.byte	0x50
ARM GAS  C:\Users\ABAD_S~1\AppData\Local\Temp\cckPFQC2.s 			page 100


 4482 0916 02       		.uleb128 0x2
 4483 0917 08       		.byte	0x8
 4484 0918 26       		.byte	0x26
 4485 0919 11       		.uleb128 0x11
 4486 091a 01       		.uleb128 0x1
 4487 091b 51       		.byte	0x51
 4488 091c 02       		.uleb128 0x2
 4489 091d 08       		.byte	0x8
 4490 091e 70       		.byte	0x70
 4491 091f 00       		.byte	0
 4492 0920 12       		.uleb128 0x12
 4493 0921 1E000000 		.4byte	.LVL111
 4494 0925 5C040000 		.4byte	0x45c
 4495 0929 11       		.uleb128 0x11
 4496 092a 01       		.uleb128 0x1
 4497 092b 50       		.byte	0x50
 4498 092c 02       		.uleb128 0x2
 4499 092d 08       		.byte	0x8
 4500 092e 26       		.byte	0x26
 4501 092f 11       		.uleb128 0x11
 4502 0930 01       		.uleb128 0x1
 4503 0931 51       		.byte	0x51
 4504 0932 05       		.uleb128 0x5
 4505 0933 74       		.byte	0x74
 4506 0934 00       		.sleb128 0
 4507 0935 08       		.byte	0x8
 4508 0936 70       		.byte	0x70
 4509 0937 1A       		.byte	0x1a
 4510 0938 00       		.byte	0
 4511 0939 00       		.byte	0
 4512 093a 15       		.uleb128 0x15
 4513 093b F5000000 		.4byte	.LASF52
 4514 093f 01       		.byte	0x1
 4515 0940 CF       		.byte	0xcf
 4516 0941 7E080000 		.4byte	0x87e
 4517 0945 00000000 		.4byte	.LFB46
 4518 0949 7C000000 		.4byte	.LFE46-.LFB46
 4519 094d 01       		.uleb128 0x1
 4520 094e 9C       		.byte	0x9c
 4521 094f B90A0000 		.4byte	0xab9
 4522 0953 16       		.uleb128 0x16
 4523 0954 6B010000 		.4byte	.LASF53
 4524 0958 01       		.byte	0x1
 4525 0959 D4       		.byte	0xd4
 4526 095a B90A0000 		.4byte	0xab9
 4527 095e 02       		.uleb128 0x2
 4528 095f 91       		.byte	0x91
 4529 0960 5C       		.sleb128 -36
 4530 0961 18       		.uleb128 0x18
 4531 0962 6E00     		.ascii	"n\000"
 4532 0964 01       		.byte	0x1
 4533 0965 E3       		.byte	0xe3
 4534 0966 42000000 		.4byte	0x42
 4535 096a D3030000 		.4byte	.LLST28
 4536 096e 16       		.uleb128 0x16
 4537 096f 97010000 		.4byte	.LASF43
 4538 0973 01       		.byte	0x1
ARM GAS  C:\Users\ABAD_S~1\AppData\Local\Temp\cckPFQC2.s 			page 101


 4539 0974 F4       		.byte	0xf4
 4540 0975 C90A0000 		.4byte	0xac9
 4541 0979 03       		.uleb128 0x3
 4542 097a 91       		.byte	0x91
 4543 097b 9C7F     		.sleb128 -100
 4544 097d 13       		.uleb128 0x13
 4545 097e 44000000 		.4byte	.LBB6
 4546 0982 16000000 		.4byte	.LBE6-.LBB6
 4547 0986 A7090000 		.4byte	0x9a7
 4548 098a 18       		.uleb128 0x18
 4549 098b 6900     		.ascii	"i\000"
 4550 098d 01       		.byte	0x1
 4551 098e E4       		.byte	0xe4
 4552 098f A2000000 		.4byte	0xa2
 4553 0993 E6030000 		.4byte	.LLST29
 4554 0997 12       		.uleb128 0x12
 4555 0998 4E000000 		.4byte	.LVL121
 4556 099c A2020000 		.4byte	0x2a2
 4557 09a0 11       		.uleb128 0x11
 4558 09a1 01       		.uleb128 0x1
 4559 09a2 50       		.byte	0x50
 4560 09a3 01       		.uleb128 0x1
 4561 09a4 3A       		.byte	0x3a
 4562 09a5 00       		.byte	0
 4563 09a6 00       		.byte	0
 4564 09a7 0F       		.uleb128 0xf
 4565 09a8 08000000 		.4byte	.LVL112
 4566 09ac 74060000 		.4byte	0x674
 4567 09b0 10       		.uleb128 0x10
 4568 09b1 12000000 		.4byte	.LVL113
 4569 09b5 0B1D0000 		.4byte	0x1d0b
 4570 09b9 CE090000 		.4byte	0x9ce
 4571 09bd 11       		.uleb128 0x11
 4572 09be 01       		.uleb128 0x1
 4573 09bf 50       		.byte	0x50
 4574 09c0 02       		.uleb128 0x2
 4575 09c1 91       		.byte	0x91
 4576 09c2 5C       		.sleb128 -36
 4577 09c3 11       		.uleb128 0x11
 4578 09c4 01       		.uleb128 0x1
 4579 09c5 51       		.byte	0x51
 4580 09c6 01       		.uleb128 0x1
 4581 09c7 30       		.byte	0x30
 4582 09c8 11       		.uleb128 0x11
 4583 09c9 01       		.uleb128 0x1
 4584 09ca 52       		.byte	0x52
 4585 09cb 01       		.uleb128 0x1
 4586 09cc 49       		.byte	0x49
 4587 09cd 00       		.byte	0
 4588 09ce 10       		.uleb128 0x10
 4589 09cf 1A000000 		.4byte	.LVL114
 4590 09d3 80010000 		.4byte	0x180
 4591 09d7 E7090000 		.4byte	0x9e7
 4592 09db 11       		.uleb128 0x11
 4593 09dc 01       		.uleb128 0x1
 4594 09dd 50       		.byte	0x50
 4595 09de 01       		.uleb128 0x1
ARM GAS  C:\Users\ABAD_S~1\AppData\Local\Temp\cckPFQC2.s 			page 102


 4596 09df 3A       		.byte	0x3a
 4597 09e0 11       		.uleb128 0x11
 4598 09e1 01       		.uleb128 0x1
 4599 09e2 51       		.byte	0x51
 4600 09e3 02       		.uleb128 0x2
 4601 09e4 09       		.byte	0x9
 4602 09e5 80       		.byte	0x80
 4603 09e6 00       		.byte	0
 4604 09e7 10       		.uleb128 0x10
 4605 09e8 24000000 		.4byte	.LVL115
 4606 09ec 14020000 		.4byte	0x214
 4607 09f0 050A0000 		.4byte	0xa05
 4608 09f4 11       		.uleb128 0x11
 4609 09f5 01       		.uleb128 0x1
 4610 09f6 50       		.byte	0x50
 4611 09f7 01       		.uleb128 0x1
 4612 09f8 39       		.byte	0x39
 4613 09f9 11       		.uleb128 0x11
 4614 09fa 01       		.uleb128 0x1
 4615 09fb 51       		.byte	0x51
 4616 09fc 01       		.uleb128 0x1
 4617 09fd 49       		.byte	0x49
 4618 09fe 11       		.uleb128 0x11
 4619 09ff 01       		.uleb128 0x1
 4620 0a00 52       		.byte	0x52
 4621 0a01 02       		.uleb128 0x2
 4622 0a02 91       		.byte	0x91
 4623 0a03 5C       		.sleb128 -36
 4624 0a04 00       		.byte	0
 4625 0a05 10       		.uleb128 0x10
 4626 0a06 2C000000 		.4byte	.LVL116
 4627 0a0a 80010000 		.4byte	0x180
 4628 0a0e 1D0A0000 		.4byte	0xa1d
 4629 0a12 11       		.uleb128 0x11
 4630 0a13 01       		.uleb128 0x1
 4631 0a14 50       		.byte	0x50
 4632 0a15 01       		.uleb128 0x1
 4633 0a16 31       		.byte	0x31
 4634 0a17 11       		.uleb128 0x11
 4635 0a18 01       		.uleb128 0x1
 4636 0a19 51       		.byte	0x51
 4637 0a1a 01       		.uleb128 0x1
 4638 0a1b 31       		.byte	0x31
 4639 0a1c 00       		.byte	0
 4640 0a1d 10       		.uleb128 0x10
 4641 0a1e 34000000 		.4byte	.LVL117
 4642 0a22 80010000 		.4byte	0x180
 4643 0a26 360A0000 		.4byte	0xa36
 4644 0a2a 11       		.uleb128 0x11
 4645 0a2b 01       		.uleb128 0x1
 4646 0a2c 50       		.byte	0x50
 4647 0a2d 02       		.uleb128 0x2
 4648 0a2e 08       		.byte	0x8
 4649 0a2f 36       		.byte	0x36
 4650 0a30 11       		.uleb128 0x11
 4651 0a31 01       		.uleb128 0x1
 4652 0a32 51       		.byte	0x51
ARM GAS  C:\Users\ABAD_S~1\AppData\Local\Temp\cckPFQC2.s 			page 103


 4653 0a33 01       		.uleb128 0x1
 4654 0a34 39       		.byte	0x39
 4655 0a35 00       		.byte	0
 4656 0a36 10       		.uleb128 0x10
 4657 0a37 3C000000 		.4byte	.LVL118
 4658 0a3b 80010000 		.4byte	0x180
 4659 0a3f 4E0A0000 		.4byte	0xa4e
 4660 0a43 11       		.uleb128 0x11
 4661 0a44 01       		.uleb128 0x1
 4662 0a45 50       		.byte	0x50
 4663 0a46 01       		.uleb128 0x1
 4664 0a47 39       		.byte	0x39
 4665 0a48 11       		.uleb128 0x11
 4666 0a49 01       		.uleb128 0x1
 4667 0a4a 51       		.byte	0x51
 4668 0a4b 01       		.uleb128 0x1
 4669 0a4c 30       		.byte	0x30
 4670 0a4d 00       		.byte	0
 4671 0a4e 10       		.uleb128 0x10
 4672 0a4f 44000000 		.4byte	.LVL119
 4673 0a53 80010000 		.4byte	0x180
 4674 0a57 660A0000 		.4byte	0xa66
 4675 0a5b 11       		.uleb128 0x11
 4676 0a5c 01       		.uleb128 0x1
 4677 0a5d 50       		.byte	0x50
 4678 0a5e 01       		.uleb128 0x1
 4679 0a5f 31       		.byte	0x31
 4680 0a60 11       		.uleb128 0x11
 4681 0a61 01       		.uleb128 0x1
 4682 0a62 51       		.byte	0x51
 4683 0a63 01       		.uleb128 0x1
 4684 0a64 33       		.byte	0x33
 4685 0a65 00       		.byte	0
 4686 0a66 10       		.uleb128 0x10
 4687 0a67 62000000 		.4byte	.LVL124
 4688 0a6b 80010000 		.4byte	0x180
 4689 0a6f 7E0A0000 		.4byte	0xa7e
 4690 0a73 11       		.uleb128 0x11
 4691 0a74 01       		.uleb128 0x1
 4692 0a75 50       		.byte	0x50
 4693 0a76 01       		.uleb128 0x1
 4694 0a77 31       		.byte	0x31
 4695 0a78 11       		.uleb128 0x11
 4696 0a79 01       		.uleb128 0x1
 4697 0a7a 51       		.byte	0x51
 4698 0a7b 01       		.uleb128 0x1
 4699 0a7c 30       		.byte	0x30
 4700 0a7d 00       		.byte	0
 4701 0a7e 10       		.uleb128 0x10
 4702 0a7f 6E000000 		.4byte	.LVL125
 4703 0a83 44030000 		.4byte	0x344
 4704 0a87 A30A0000 		.4byte	0xaa3
 4705 0a8b 11       		.uleb128 0x11
 4706 0a8c 01       		.uleb128 0x1
 4707 0a8d 50       		.byte	0x50
 4708 0a8e 01       		.uleb128 0x1
 4709 0a8f 39       		.byte	0x39
ARM GAS  C:\Users\ABAD_S~1\AppData\Local\Temp\cckPFQC2.s 			page 104


 4710 0a90 11       		.uleb128 0x11
 4711 0a91 01       		.uleb128 0x1
 4712 0a92 51       		.byte	0x51
 4713 0a93 02       		.uleb128 0x2
 4714 0a94 08       		.byte	0x8
 4715 0a95 40       		.byte	0x40
 4716 0a96 11       		.uleb128 0x11
 4717 0a97 01       		.uleb128 0x1
 4718 0a98 52       		.byte	0x52
 4719 0a99 03       		.uleb128 0x3
 4720 0a9a 91       		.byte	0x91
 4721 0a9b 9C7F     		.sleb128 -100
 4722 0a9d 11       		.uleb128 0x11
 4723 0a9e 01       		.uleb128 0x1
 4724 0a9f 53       		.byte	0x53
 4725 0aa0 01       		.uleb128 0x1
 4726 0aa1 30       		.byte	0x30
 4727 0aa2 00       		.byte	0
 4728 0aa3 12       		.uleb128 0x12
 4729 0aa4 76000000 		.4byte	.LVL126
 4730 0aa8 80010000 		.4byte	0x180
 4731 0aac 11       		.uleb128 0x11
 4732 0aad 01       		.uleb128 0x1
 4733 0aae 50       		.byte	0x50
 4734 0aaf 02       		.uleb128 0x2
 4735 0ab0 08       		.byte	0x8
 4736 0ab1 36       		.byte	0x36
 4737 0ab2 11       		.uleb128 0x11
 4738 0ab3 01       		.uleb128 0x1
 4739 0ab4 51       		.byte	0x51
 4740 0ab5 01       		.uleb128 0x1
 4741 0ab6 30       		.byte	0x30
 4742 0ab7 00       		.byte	0
 4743 0ab8 00       		.byte	0
 4744 0ab9 06       		.uleb128 0x6
 4745 0aba 42000000 		.4byte	0x42
 4746 0abe C90A0000 		.4byte	0xac9
 4747 0ac2 07       		.uleb128 0x7
 4748 0ac3 FB000000 		.4byte	0xfb
 4749 0ac7 18       		.byte	0x18
 4750 0ac8 00       		.byte	0
 4751 0ac9 06       		.uleb128 0x6
 4752 0aca 42000000 		.4byte	0x42
 4753 0ace D90A0000 		.4byte	0xad9
 4754 0ad2 07       		.uleb128 0x7
 4755 0ad3 FB000000 		.4byte	0xfb
 4756 0ad7 3F       		.byte	0x3f
 4757 0ad8 00       		.byte	0
 4758 0ad9 1C       		.uleb128 0x1c
 4759 0ada 87050000 		.4byte	.LASF54
 4760 0ade 01       		.byte	0x1
 4761 0adf 1801     		.2byte	0x118
 4762 0ae1 00000000 		.4byte	.LFB47
 4763 0ae5 16000000 		.4byte	.LFE47-.LFB47
 4764 0ae9 01       		.uleb128 0x1
 4765 0aea 9C       		.byte	0x9c
 4766 0aeb 220B0000 		.4byte	0xb22
ARM GAS  C:\Users\ABAD_S~1\AppData\Local\Temp\cckPFQC2.s 			page 105


 4767 0aef 1D       		.uleb128 0x1d
 4768 0af0 76616C00 		.ascii	"val\000"
 4769 0af4 01       		.byte	0x1
 4770 0af5 1901     		.2byte	0x119
 4771 0af7 42000000 		.4byte	0x42
 4772 0afb 10040000 		.4byte	.LLST30
 4773 0aff 10       		.uleb128 0x10
 4774 0b00 08000000 		.4byte	.LVL128
 4775 0b04 A2020000 		.4byte	0x2a2
 4776 0b08 120B0000 		.4byte	0xb12
 4777 0b0c 11       		.uleb128 0x11
 4778 0b0d 01       		.uleb128 0x1
 4779 0b0e 50       		.byte	0x50
 4780 0b0f 01       		.uleb128 0x1
 4781 0b10 31       		.byte	0x31
 4782 0b11 00       		.byte	0
 4783 0b12 12       		.uleb128 0x12
 4784 0b13 14000000 		.4byte	.LVL131
 4785 0b17 80010000 		.4byte	0x180
 4786 0b1b 11       		.uleb128 0x11
 4787 0b1c 01       		.uleb128 0x1
 4788 0b1d 50       		.byte	0x50
 4789 0b1e 01       		.uleb128 0x1
 4790 0b1f 31       		.byte	0x31
 4791 0b20 00       		.byte	0
 4792 0b21 00       		.byte	0
 4793 0b22 1C       		.uleb128 0x1c
 4794 0b23 99050000 		.4byte	.LASF55
 4795 0b27 01       		.byte	0x1
 4796 0b28 1E01     		.2byte	0x11e
 4797 0b2a 00000000 		.4byte	.LFB48
 4798 0b2e 36000000 		.4byte	.LFE48-.LFB48
 4799 0b32 01       		.uleb128 0x1
 4800 0b33 9C       		.byte	0x9c
 4801 0b34 9F0B0000 		.4byte	0xb9f
 4802 0b38 1D       		.uleb128 0x1d
 4803 0b39 76616C00 		.ascii	"val\000"
 4804 0b3d 01       		.byte	0x1
 4805 0b3e 1F01     		.2byte	0x11f
 4806 0b40 42000000 		.4byte	0x42
 4807 0b44 2E040000 		.4byte	.LLST31
 4808 0b48 1D       		.uleb128 0x1d
 4809 0b49 6900     		.ascii	"i\000"
 4810 0b4b 01       		.byte	0x1
 4811 0b4c 2301     		.2byte	0x123
 4812 0b4e AD000000 		.4byte	0xad
 4813 0b52 57040000 		.4byte	.LLST32
 4814 0b56 10       		.uleb128 0x10
 4815 0b57 08000000 		.4byte	.LVL132
 4816 0b5b A2020000 		.4byte	0x2a2
 4817 0b5f 690B0000 		.4byte	0xb69
 4818 0b63 11       		.uleb128 0x11
 4819 0b64 01       		.uleb128 0x1
 4820 0b65 50       		.byte	0x50
 4821 0b66 01       		.uleb128 0x1
 4822 0b67 31       		.byte	0x31
 4823 0b68 00       		.byte	0
ARM GAS  C:\Users\ABAD_S~1\AppData\Local\Temp\cckPFQC2.s 			page 106


 4824 0b69 10       		.uleb128 0x10
 4825 0b6a 14000000 		.4byte	.LVL135
 4826 0b6e 80010000 		.4byte	0x180
 4827 0b72 7C0B0000 		.4byte	0xb7c
 4828 0b76 11       		.uleb128 0x11
 4829 0b77 01       		.uleb128 0x1
 4830 0b78 50       		.byte	0x50
 4831 0b79 01       		.uleb128 0x1
 4832 0b7a 31       		.byte	0x31
 4833 0b7b 00       		.byte	0
 4834 0b7c 10       		.uleb128 0x10
 4835 0b7d 1E000000 		.4byte	.LVL137
 4836 0b81 A2020000 		.4byte	0x2a2
 4837 0b85 8F0B0000 		.4byte	0xb8f
 4838 0b89 11       		.uleb128 0x11
 4839 0b8a 01       		.uleb128 0x1
 4840 0b8b 50       		.byte	0x50
 4841 0b8c 01       		.uleb128 0x1
 4842 0b8d 31       		.byte	0x31
 4843 0b8e 00       		.byte	0
 4844 0b8f 12       		.uleb128 0x12
 4845 0b90 2C000000 		.4byte	.LVL141
 4846 0b94 DF1C0000 		.4byte	0x1cdf
 4847 0b98 11       		.uleb128 0x11
 4848 0b99 01       		.uleb128 0x1
 4849 0b9a 50       		.byte	0x50
 4850 0b9b 01       		.uleb128 0x1
 4851 0b9c 31       		.byte	0x31
 4852 0b9d 00       		.byte	0
 4853 0b9e 00       		.byte	0
 4854 0b9f 1E       		.uleb128 0x1e
 4855 0ba0 1A060000 		.4byte	.LASF56
 4856 0ba4 01       		.byte	0x1
 4857 0ba5 3A01     		.2byte	0x13a
 4858 0ba7 42000000 		.4byte	0x42
 4859 0bab 00000000 		.4byte	.LFB50
 4860 0baf 64010000 		.4byte	.LFE50-.LFB50
 4861 0bb3 01       		.uleb128 0x1
 4862 0bb4 9C       		.byte	0x9c
 4863 0bb5 1A0E0000 		.4byte	0xe1a
 4864 0bb9 1F       		.uleb128 0x1f
 4865 0bba B5040000 		.4byte	.LASF57
 4866 0bbe 01       		.byte	0x1
 4867 0bbf 3A01     		.2byte	0x13a
 4868 0bc1 42000000 		.4byte	0x42
 4869 0bc5 81040000 		.4byte	.LLST33
 4870 0bc9 1F       		.uleb128 0x1f
 4871 0bca CC020000 		.4byte	.LASF58
 4872 0bce 01       		.byte	0x1
 4873 0bcf 3B01     		.2byte	0x13b
 4874 0bd1 42000000 		.4byte	0x42
 4875 0bd5 A2040000 		.4byte	.LLST34
 4876 0bd9 1F       		.uleb128 0x1f
 4877 0bda 00000000 		.4byte	.LASF59
 4878 0bde 01       		.byte	0x1
 4879 0bdf 3C01     		.2byte	0x13c
 4880 0be1 02010000 		.4byte	0x102
ARM GAS  C:\Users\ABAD_S~1\AppData\Local\Temp\cckPFQC2.s 			page 107


 4881 0be5 C3040000 		.4byte	.LLST35
 4882 0be9 1F       		.uleb128 0x1f
 4883 0bea 50070000 		.4byte	.LASF60
 4884 0bee 01       		.byte	0x1
 4885 0bef 3D01     		.2byte	0x13d
 4886 0bf1 42000000 		.4byte	0x42
 4887 0bf5 05050000 		.4byte	.LLST36
 4888 0bf9 20       		.uleb128 0x20
 4889 0bfa 78010000 		.4byte	.LASF61
 4890 0bfe 01       		.byte	0x1
 4891 0bff 3E01     		.2byte	0x13e
 4892 0c01 02010000 		.4byte	0x102
 4893 0c05 02       		.uleb128 0x2
 4894 0c06 91       		.byte	0x91
 4895 0c07 00       		.sleb128 0
 4896 0c08 20       		.uleb128 0x20
 4897 0c09 29000000 		.4byte	.LASF62
 4898 0c0d 01       		.byte	0x1
 4899 0c0e 3F01     		.2byte	0x13f
 4900 0c10 02010000 		.4byte	0x102
 4901 0c14 02       		.uleb128 0x2
 4902 0c15 91       		.byte	0x91
 4903 0c16 04       		.sleb128 4
 4904 0c17 20       		.uleb128 0x20
 4905 0c18 23040000 		.4byte	.LASF63
 4906 0c1c 01       		.byte	0x1
 4907 0c1d 4001     		.2byte	0x140
 4908 0c1f 02010000 		.4byte	0x102
 4909 0c23 02       		.uleb128 0x2
 4910 0c24 91       		.byte	0x91
 4911 0c25 08       		.sleb128 8
 4912 0c26 1F       		.uleb128 0x1f
 4913 0c27 81060000 		.4byte	.LASF35
 4914 0c2b 01       		.byte	0x1
 4915 0c2c 4101     		.2byte	0x141
 4916 0c2e 42000000 		.4byte	0x42
 4917 0c32 26050000 		.4byte	.LLST37
 4918 0c36 1F       		.uleb128 0x1f
 4919 0c37 44010000 		.4byte	.LASF64
 4920 0c3b 01       		.byte	0x1
 4921 0c3c 4201     		.2byte	0x142
 4922 0c3e 7E080000 		.4byte	0x87e
 4923 0c42 52050000 		.4byte	.LLST38
 4924 0c46 21       		.uleb128 0x21
 4925 0c47 AA040000 		.4byte	.LASF65
 4926 0c4b 01       		.byte	0x1
 4927 0c4c 4501     		.2byte	0x145
 4928 0c4e 42000000 		.4byte	0x42
 4929 0c52 7E050000 		.4byte	.LLST39
 4930 0c56 21       		.uleb128 0x21
 4931 0c57 03060000 		.4byte	.LASF66
 4932 0c5b 01       		.byte	0x1
 4933 0c5c 4601     		.2byte	0x146
 4934 0c5e 42000000 		.4byte	0x42
 4935 0c62 91050000 		.4byte	.LLST40
 4936 0c66 1D       		.uleb128 0x1d
 4937 0c67 6900     		.ascii	"i\000"
ARM GAS  C:\Users\ABAD_S~1\AppData\Local\Temp\cckPFQC2.s 			page 108


 4938 0c69 01       		.byte	0x1
 4939 0c6a 5601     		.2byte	0x156
 4940 0c6c AD000000 		.4byte	0xad
 4941 0c70 A4050000 		.4byte	.LLST41
 4942 0c74 1D       		.uleb128 0x1d
 4943 0c75 6E00     		.ascii	"n\000"
 4944 0c77 01       		.byte	0x1
 4945 0c78 5701     		.2byte	0x157
 4946 0c7a 42000000 		.4byte	0x42
 4947 0c7e D8050000 		.4byte	.LLST42
 4948 0c82 21       		.uleb128 0x21
 4949 0c83 D4040000 		.4byte	.LASF67
 4950 0c87 01       		.byte	0x1
 4951 0c88 6701     		.2byte	0x167
 4952 0c8a 42000000 		.4byte	0x42
 4953 0c8e F6050000 		.4byte	.LLST43
 4954 0c92 21       		.uleb128 0x21
 4955 0c93 16020000 		.4byte	.LASF68
 4956 0c97 01       		.byte	0x1
 4957 0c98 6C01     		.2byte	0x16c
 4958 0c9a 42000000 		.4byte	0x42
 4959 0c9e 2A060000 		.4byte	.LLST44
 4960 0ca2 22       		.uleb128 0x22
 4961 0ca3 00000000 		.4byte	.Ldebug_ranges0+0
 4962 0ca7 FC0C0000 		.4byte	0xcfc
 4963 0cab 1D       		.uleb128 0x1d
 4964 0cac 6E00     		.ascii	"n\000"
 4965 0cae 01       		.byte	0x1
 4966 0caf 7001     		.2byte	0x170
 4967 0cb1 42000000 		.4byte	0x42
 4968 0cb5 82060000 		.4byte	.LLST45
 4969 0cb9 10       		.uleb128 0x10
 4970 0cba A2000000 		.4byte	.LVL168
 4971 0cbe A2020000 		.4byte	0x2a2
 4972 0cc2 CC0C0000 		.4byte	0xccc
 4973 0cc6 11       		.uleb128 0x11
 4974 0cc7 01       		.uleb128 0x1
 4975 0cc8 50       		.byte	0x50
 4976 0cc9 01       		.uleb128 0x1
 4977 0cca 3A       		.byte	0x3a
 4978 0ccb 00       		.byte	0
 4979 0ccc 10       		.uleb128 0x10
 4980 0ccd BA000000 		.4byte	.LVL170
 4981 0cd1 44030000 		.4byte	0x344
 4982 0cd5 EC0C0000 		.4byte	0xcec
 4983 0cd9 11       		.uleb128 0x11
 4984 0cda 01       		.uleb128 0x1
 4985 0cdb 50       		.byte	0x50
 4986 0cdc 01       		.uleb128 0x1
 4987 0cdd 39       		.byte	0x39
 4988 0cde 11       		.uleb128 0x11
 4989 0cdf 01       		.uleb128 0x1
 4990 0ce0 52       		.byte	0x52
 4991 0ce1 03       		.uleb128 0x3
 4992 0ce2 91       		.byte	0x91
 4993 0ce3 00       		.sleb128 0
 4994 0ce4 06       		.byte	0x6
ARM GAS  C:\Users\ABAD_S~1\AppData\Local\Temp\cckPFQC2.s 			page 109


 4995 0ce5 11       		.uleb128 0x11
 4996 0ce6 01       		.uleb128 0x1
 4997 0ce7 53       		.byte	0x53
 4998 0ce8 02       		.uleb128 0x2
 4999 0ce9 75       		.byte	0x75
 5000 0cea 00       		.sleb128 0
 5001 0ceb 00       		.byte	0
 5002 0cec 12       		.uleb128 0x12
 5003 0ced C0000000 		.4byte	.LVL171
 5004 0cf1 A2020000 		.4byte	0x2a2
 5005 0cf5 11       		.uleb128 0x11
 5006 0cf6 01       		.uleb128 0x1
 5007 0cf7 50       		.byte	0x50
 5008 0cf8 01       		.uleb128 0x1
 5009 0cf9 3C       		.byte	0x3c
 5010 0cfa 00       		.byte	0
 5011 0cfb 00       		.byte	0
 5012 0cfc 13       		.uleb128 0x13
 5013 0cfd EA000000 		.4byte	.LBB8
 5014 0d01 62000000 		.4byte	.LBE8-.LBB8
 5015 0d05 400D0000 		.4byte	0xd40
 5016 0d09 23       		.uleb128 0x23
 5017 0d0a 09010000 		.4byte	.LASF69
 5018 0d0e 01       		.byte	0x1
 5019 0d0f 8C01     		.2byte	0x18c
 5020 0d11 1A0E0000 		.4byte	0xe1a
 5021 0d15 02       		.uleb128 0x2
 5022 0d16 91       		.byte	0x91
 5023 0d17 64       		.sleb128 -28
 5024 0d18 21       		.uleb128 0x21
 5025 0d19 7A030000 		.4byte	.LASF70
 5026 0d1d 01       		.byte	0x1
 5027 0d1e 8D01     		.2byte	0x18d
 5028 0d20 42000000 		.4byte	0x42
 5029 0d24 AD060000 		.4byte	.LLST46
 5030 0d28 12       		.uleb128 0x12
 5031 0d29 08010000 		.4byte	.LVL178
 5032 0d2d 30050000 		.4byte	0x530
 5033 0d31 11       		.uleb128 0x11
 5034 0d32 01       		.uleb128 0x1
 5035 0d33 50       		.byte	0x50
 5036 0d34 03       		.uleb128 0x3
 5037 0d35 91       		.byte	0x91
 5038 0d36 00       		.sleb128 0
 5039 0d37 06       		.byte	0x6
 5040 0d38 11       		.uleb128 0x11
 5041 0d39 01       		.uleb128 0x1
 5042 0d3a 52       		.byte	0x52
 5043 0d3b 02       		.uleb128 0x2
 5044 0d3c 91       		.byte	0x91
 5045 0d3d 64       		.sleb128 -28
 5046 0d3e 00       		.byte	0
 5047 0d3f 00       		.byte	0
 5048 0d40 10       		.uleb128 0x10
 5049 0d41 2C000000 		.4byte	.LVL153
 5050 0d45 80010000 		.4byte	0x180
 5051 0d49 580D0000 		.4byte	0xd58
ARM GAS  C:\Users\ABAD_S~1\AppData\Local\Temp\cckPFQC2.s 			page 110


 5052 0d4d 11       		.uleb128 0x11
 5053 0d4e 01       		.uleb128 0x1
 5054 0d4f 50       		.byte	0x50
 5055 0d50 01       		.uleb128 0x1
 5056 0d51 31       		.byte	0x31
 5057 0d52 11       		.uleb128 0x11
 5058 0d53 01       		.uleb128 0x1
 5059 0d54 51       		.byte	0x51
 5060 0d55 01       		.uleb128 0x1
 5061 0d56 30       		.byte	0x30
 5062 0d57 00       		.byte	0
 5063 0d58 10       		.uleb128 0x10
 5064 0d59 34000000 		.4byte	.LVL154
 5065 0d5d 80010000 		.4byte	0x180
 5066 0d61 710D0000 		.4byte	0xd71
 5067 0d65 11       		.uleb128 0x11
 5068 0d66 01       		.uleb128 0x1
 5069 0d67 50       		.byte	0x50
 5070 0d68 01       		.uleb128 0x1
 5071 0d69 34       		.byte	0x34
 5072 0d6a 11       		.uleb128 0x11
 5073 0d6b 01       		.uleb128 0x1
 5074 0d6c 51       		.byte	0x51
 5075 0d6d 02       		.uleb128 0x2
 5076 0d6e 08       		.byte	0x8
 5077 0d6f 7F       		.byte	0x7f
 5078 0d70 00       		.byte	0
 5079 0d71 10       		.uleb128 0x10
 5080 0d72 3C000000 		.4byte	.LVL155
 5081 0d76 80010000 		.4byte	0x180
 5082 0d7a 8A0D0000 		.4byte	0xd8a
 5083 0d7e 11       		.uleb128 0x11
 5084 0d7f 01       		.uleb128 0x1
 5085 0d80 50       		.byte	0x50
 5086 0d81 01       		.uleb128 0x1
 5087 0d82 3A       		.byte	0x3a
 5088 0d83 11       		.uleb128 0x11
 5089 0d84 01       		.uleb128 0x1
 5090 0d85 51       		.byte	0x51
 5091 0d86 02       		.uleb128 0x2
 5092 0d87 09       		.byte	0x9
 5093 0d88 80       		.byte	0x80
 5094 0d89 00       		.byte	0
 5095 0d8a 10       		.uleb128 0x10
 5096 0d8b 46000000 		.4byte	.LVL156
 5097 0d8f 14020000 		.4byte	0x214
 5098 0d93 AC0D0000 		.4byte	0xdac
 5099 0d97 11       		.uleb128 0x11
 5100 0d98 01       		.uleb128 0x1
 5101 0d99 50       		.byte	0x50
 5102 0d9a 01       		.uleb128 0x1
 5103 0d9b 39       		.byte	0x39
 5104 0d9c 11       		.uleb128 0x11
 5105 0d9d 01       		.uleb128 0x1
 5106 0d9e 51       		.byte	0x51
 5107 0d9f 04       		.uleb128 0x4
 5108 0da0 91       		.byte	0x91
ARM GAS  C:\Users\ABAD_S~1\AppData\Local\Temp\cckPFQC2.s 			page 111


 5109 0da1 5C       		.sleb128 -36
 5110 0da2 94       		.byte	0x94
 5111 0da3 01       		.byte	0x1
 5112 0da4 11       		.uleb128 0x11
 5113 0da5 01       		.uleb128 0x1
 5114 0da6 52       		.byte	0x52
 5115 0da7 03       		.uleb128 0x3
 5116 0da8 7D       		.byte	0x7d
 5117 0da9 00       		.sleb128 0
 5118 0daa 06       		.byte	0x6
 5119 0dab 00       		.byte	0
 5120 0dac 10       		.uleb128 0x10
 5121 0dad 4E000000 		.4byte	.LVL157
 5122 0db1 80010000 		.4byte	0x180
 5123 0db5 C50D0000 		.4byte	0xdc5
 5124 0db9 11       		.uleb128 0x11
 5125 0dba 01       		.uleb128 0x1
 5126 0dbb 50       		.byte	0x50
 5127 0dbc 01       		.uleb128 0x1
 5128 0dbd 3D       		.byte	0x3d
 5129 0dbe 11       		.uleb128 0x11
 5130 0dbf 01       		.uleb128 0x1
 5131 0dc0 51       		.byte	0x51
 5132 0dc1 02       		.uleb128 0x2
 5133 0dc2 77       		.byte	0x77
 5134 0dc3 00       		.sleb128 0
 5135 0dc4 00       		.byte	0
 5136 0dc5 10       		.uleb128 0x10
 5137 0dc6 56000000 		.4byte	.LVL158
 5138 0dca 80010000 		.4byte	0x180
 5139 0dce DE0D0000 		.4byte	0xdde
 5140 0dd2 11       		.uleb128 0x11
 5141 0dd3 01       		.uleb128 0x1
 5142 0dd4 50       		.byte	0x50
 5143 0dd5 01       		.uleb128 0x1
 5144 0dd6 31       		.byte	0x31
 5145 0dd7 11       		.uleb128 0x11
 5146 0dd8 01       		.uleb128 0x1
 5147 0dd9 51       		.byte	0x51
 5148 0dda 02       		.uleb128 0x2
 5149 0ddb 74       		.byte	0x74
 5150 0ddc 00       		.sleb128 0
 5151 0ddd 00       		.byte	0
 5152 0dde 10       		.uleb128 0x10
 5153 0ddf 62000000 		.4byte	.LVL159
 5154 0de3 5C040000 		.4byte	0x45c
 5155 0de7 F70D0000 		.4byte	0xdf7
 5156 0deb 11       		.uleb128 0x11
 5157 0dec 01       		.uleb128 0x1
 5158 0ded 50       		.byte	0x50
 5159 0dee 01       		.uleb128 0x1
 5160 0def 3D       		.byte	0x3d
 5161 0df0 11       		.uleb128 0x11
 5162 0df1 01       		.uleb128 0x1
 5163 0df2 51       		.byte	0x51
 5164 0df3 02       		.uleb128 0x2
 5165 0df4 09       		.byte	0x9
ARM GAS  C:\Users\ABAD_S~1\AppData\Local\Temp\cckPFQC2.s 			page 112


 5166 0df5 80       		.byte	0x80
 5167 0df6 00       		.byte	0
 5168 0df7 10       		.uleb128 0x10
 5169 0df8 6E000000 		.4byte	.LVL161
 5170 0dfc A2020000 		.4byte	0x2a2
 5171 0e00 0A0E0000 		.4byte	0xe0a
 5172 0e04 11       		.uleb128 0x11
 5173 0e05 01       		.uleb128 0x1
 5174 0e06 50       		.byte	0x50
 5175 0e07 01       		.uleb128 0x1
 5176 0e08 34       		.byte	0x34
 5177 0e09 00       		.byte	0
 5178 0e0a 12       		.uleb128 0x12
 5179 0e0b 88000000 		.4byte	.LVL164
 5180 0e0f A2020000 		.4byte	0x2a2
 5181 0e13 11       		.uleb128 0x11
 5182 0e14 01       		.uleb128 0x1
 5183 0e15 50       		.byte	0x50
 5184 0e16 01       		.uleb128 0x1
 5185 0e17 36       		.byte	0x36
 5186 0e18 00       		.byte	0
 5187 0e19 00       		.byte	0
 5188 0e1a 06       		.uleb128 0x6
 5189 0e1b 42000000 		.4byte	0x42
 5190 0e1f 2A0E0000 		.4byte	0xe2a
 5191 0e23 07       		.uleb128 0x7
 5192 0e24 FB000000 		.4byte	0xfb
 5193 0e28 01       		.byte	0x1
 5194 0e29 00       		.byte	0
 5195 0e2a 1E       		.uleb128 0x1e
 5196 0e2b 3F050000 		.4byte	.LASF71
 5197 0e2f 01       		.byte	0x1
 5198 0e30 2E01     		.2byte	0x12e
 5199 0e32 42000000 		.4byte	0x42
 5200 0e36 00000000 		.4byte	.LFB49
 5201 0e3a 28000000 		.4byte	.LFE49-.LFB49
 5202 0e3e 01       		.uleb128 0x1
 5203 0e3f 9C       		.byte	0x9c
 5204 0e40 030F0000 		.4byte	0xf03
 5205 0e44 1F       		.uleb128 0x1f
 5206 0e45 00000000 		.4byte	.LASF59
 5207 0e49 01       		.byte	0x1
 5208 0e4a 2E01     		.2byte	0x12e
 5209 0e4c 02010000 		.4byte	0x102
 5210 0e50 CB060000 		.4byte	.LLST47
 5211 0e54 1F       		.uleb128 0x1f
 5212 0e55 50070000 		.4byte	.LASF60
 5213 0e59 01       		.byte	0x1
 5214 0e5a 2F01     		.2byte	0x12f
 5215 0e5c 42000000 		.4byte	0x42
 5216 0e60 F7060000 		.4byte	.LLST48
 5217 0e64 1F       		.uleb128 0x1f
 5218 0e65 78010000 		.4byte	.LASF61
 5219 0e69 01       		.byte	0x1
 5220 0e6a 3001     		.2byte	0x130
 5221 0e6c 02010000 		.4byte	0x102
 5222 0e70 18070000 		.4byte	.LLST49
ARM GAS  C:\Users\ABAD_S~1\AppData\Local\Temp\cckPFQC2.s 			page 113


 5223 0e74 1F       		.uleb128 0x1f
 5224 0e75 29000000 		.4byte	.LASF62
 5225 0e79 01       		.byte	0x1
 5226 0e7a 3101     		.2byte	0x131
 5227 0e7c 02010000 		.4byte	0x102
 5228 0e80 45070000 		.4byte	.LLST50
 5229 0e84 1F       		.uleb128 0x1f
 5230 0e85 23040000 		.4byte	.LASF63
 5231 0e89 01       		.byte	0x1
 5232 0e8a 3201     		.2byte	0x132
 5233 0e8c 02010000 		.4byte	0x102
 5234 0e90 72070000 		.4byte	.LLST51
 5235 0e94 1F       		.uleb128 0x1f
 5236 0e95 81060000 		.4byte	.LASF35
 5237 0e99 01       		.byte	0x1
 5238 0e9a 3301     		.2byte	0x133
 5239 0e9c 42000000 		.4byte	0x42
 5240 0ea0 AA070000 		.4byte	.LLST52
 5241 0ea4 1F       		.uleb128 0x1f
 5242 0ea5 44010000 		.4byte	.LASF64
 5243 0ea9 01       		.byte	0x1
 5244 0eaa 3401     		.2byte	0x134
 5245 0eac 7E080000 		.4byte	0x87e
 5246 0eb0 E2070000 		.4byte	.LLST53
 5247 0eb4 24       		.uleb128 0x24
 5248 0eb5 CC020000 		.4byte	.LASF58
 5249 0eb9 01       		.byte	0x1
 5250 0eba 3601     		.2byte	0x136
 5251 0ebc 42000000 		.4byte	0x42
 5252 0ec0 30       		.byte	0x30
 5253 0ec1 12       		.uleb128 0x12
 5254 0ec2 24000000 		.4byte	.LVL201
 5255 0ec6 9F0B0000 		.4byte	0xb9f
 5256 0eca 11       		.uleb128 0x11
 5257 0ecb 01       		.uleb128 0x1
 5258 0ecc 50       		.byte	0x50
 5259 0ecd 01       		.uleb128 0x1
 5260 0ece 3C       		.byte	0x3c
 5261 0ecf 11       		.uleb128 0x11
 5262 0ed0 01       		.uleb128 0x1
 5263 0ed1 51       		.byte	0x51
 5264 0ed2 02       		.uleb128 0x2
 5265 0ed3 08       		.byte	0x8
 5266 0ed4 30       		.byte	0x30
 5267 0ed5 11       		.uleb128 0x11
 5268 0ed6 01       		.uleb128 0x1
 5269 0ed7 52       		.byte	0x52
 5270 0ed8 03       		.uleb128 0x3
 5271 0ed9 F3       		.byte	0xf3
 5272 0eda 01       		.uleb128 0x1
 5273 0edb 50       		.byte	0x50
 5274 0edc 11       		.uleb128 0x11
 5275 0edd 02       		.uleb128 0x2
 5276 0ede 7D       		.byte	0x7d
 5277 0edf 00       		.sleb128 0
 5278 0ee0 03       		.uleb128 0x3
 5279 0ee1 F3       		.byte	0xf3
ARM GAS  C:\Users\ABAD_S~1\AppData\Local\Temp\cckPFQC2.s 			page 114


 5280 0ee2 01       		.uleb128 0x1
 5281 0ee3 52       		.byte	0x52
 5282 0ee4 11       		.uleb128 0x11
 5283 0ee5 02       		.uleb128 0x2
 5284 0ee6 7D       		.byte	0x7d
 5285 0ee7 04       		.sleb128 4
 5286 0ee8 03       		.uleb128 0x3
 5287 0ee9 F3       		.byte	0xf3
 5288 0eea 01       		.uleb128 0x1
 5289 0eeb 53       		.byte	0x53
 5290 0eec 11       		.uleb128 0x11
 5291 0eed 02       		.uleb128 0x2
 5292 0eee 7D       		.byte	0x7d
 5293 0eef 08       		.sleb128 8
 5294 0ef0 02       		.uleb128 0x2
 5295 0ef1 75       		.byte	0x75
 5296 0ef2 00       		.sleb128 0
 5297 0ef3 11       		.uleb128 0x11
 5298 0ef4 02       		.uleb128 0x2
 5299 0ef5 7D       		.byte	0x7d
 5300 0ef6 0C       		.sleb128 12
 5301 0ef7 02       		.uleb128 0x2
 5302 0ef8 74       		.byte	0x74
 5303 0ef9 00       		.sleb128 0
 5304 0efa 11       		.uleb128 0x11
 5305 0efb 02       		.uleb128 0x2
 5306 0efc 7D       		.byte	0x7d
 5307 0efd 10       		.sleb128 16
 5308 0efe 02       		.uleb128 0x2
 5309 0eff 76       		.byte	0x76
 5310 0f00 00       		.sleb128 0
 5311 0f01 00       		.byte	0
 5312 0f02 00       		.byte	0
 5313 0f03 1E       		.uleb128 0x1e
 5314 0f04 D4020000 		.4byte	.LASF72
 5315 0f08 01       		.byte	0x1
 5316 0f09 A601     		.2byte	0x1a6
 5317 0f0b 42000000 		.4byte	0x42
 5318 0f0f 00000000 		.4byte	.LFB53
 5319 0f13 64000000 		.4byte	.LFE53-.LFB53
 5320 0f17 01       		.uleb128 0x1
 5321 0f18 9C       		.byte	0x9c
 5322 0f19 BA0F0000 		.4byte	0xfba
 5323 0f1d 1F       		.uleb128 0x1f
 5324 0f1e B5040000 		.4byte	.LASF57
 5325 0f22 01       		.byte	0x1
 5326 0f23 A601     		.2byte	0x1a6
 5327 0f25 42000000 		.4byte	0x42
 5328 0f29 32080000 		.4byte	.LLST54
 5329 0f2d 1F       		.uleb128 0x1f
 5330 0f2e C9040000 		.4byte	.LASF73
 5331 0f32 01       		.byte	0x1
 5332 0f33 A701     		.2byte	0x1a7
 5333 0f35 02010000 		.4byte	0x102
 5334 0f39 A9080000 		.4byte	.LLST55
 5335 0f3d 1F       		.uleb128 0x1f
 5336 0f3e 5F000000 		.4byte	.LASF74
ARM GAS  C:\Users\ABAD_S~1\AppData\Local\Temp\cckPFQC2.s 			page 115


 5337 0f42 01       		.byte	0x1
 5338 0f43 A801     		.2byte	0x1a8
 5339 0f45 02010000 		.4byte	0x102
 5340 0f49 EB080000 		.4byte	.LLST56
 5341 0f4d 23       		.uleb128 0x23
 5342 0f4e 23040000 		.4byte	.LASF63
 5343 0f52 01       		.byte	0x1
 5344 0f53 AA01     		.2byte	0x1aa
 5345 0f55 42000000 		.4byte	0x42
 5346 0f59 02       		.uleb128 0x2
 5347 0f5a 91       		.byte	0x91
 5348 0f5b 6F       		.sleb128 -17
 5349 0f5c 21       		.uleb128 0x21
 5350 0f5d 7A030000 		.4byte	.LASF70
 5351 0f61 01       		.byte	0x1
 5352 0f62 AB01     		.2byte	0x1ab
 5353 0f64 42000000 		.4byte	0x42
 5354 0f68 2D090000 		.4byte	.LLST57
 5355 0f6c 10       		.uleb128 0x10
 5356 0f6d 20000000 		.4byte	.LVL205
 5357 0f71 C9040000 		.4byte	0x4c9
 5358 0f75 850F0000 		.4byte	0xf85
 5359 0f79 11       		.uleb128 0x11
 5360 0f7a 01       		.uleb128 0x1
 5361 0f7b 50       		.byte	0x50
 5362 0f7c 01       		.uleb128 0x1
 5363 0f7d 3E       		.byte	0x3e
 5364 0f7e 11       		.uleb128 0x11
 5365 0f7f 01       		.uleb128 0x1
 5366 0f80 51       		.byte	0x51
 5367 0f81 02       		.uleb128 0x2
 5368 0f82 09       		.byte	0x9
 5369 0f83 80       		.byte	0x80
 5370 0f84 00       		.byte	0
 5371 0f85 12       		.uleb128 0x12
 5372 0f86 3E000000 		.4byte	.LVL208
 5373 0f8a 2A0E0000 		.4byte	0xe2a
 5374 0f8e 11       		.uleb128 0x11
 5375 0f8f 01       		.uleb128 0x1
 5376 0f90 50       		.byte	0x50
 5377 0f91 02       		.uleb128 0x2
 5378 0f92 91       		.byte	0x91
 5379 0f93 67       		.sleb128 -25
 5380 0f94 11       		.uleb128 0x11
 5381 0f95 01       		.uleb128 0x1
 5382 0f96 51       		.byte	0x51
 5383 0f97 01       		.uleb128 0x1
 5384 0f98 31       		.byte	0x31
 5385 0f99 11       		.uleb128 0x11
 5386 0f9a 01       		.uleb128 0x1
 5387 0f9b 52       		.byte	0x52
 5388 0f9c 02       		.uleb128 0x2
 5389 0f9d 74       		.byte	0x74
 5390 0f9e 00       		.sleb128 0
 5391 0f9f 11       		.uleb128 0x11
 5392 0fa0 01       		.uleb128 0x1
 5393 0fa1 53       		.byte	0x53
ARM GAS  C:\Users\ABAD_S~1\AppData\Local\Temp\cckPFQC2.s 			page 116


 5394 0fa2 02       		.uleb128 0x2
 5395 0fa3 75       		.byte	0x75
 5396 0fa4 00       		.sleb128 0
 5397 0fa5 11       		.uleb128 0x11
 5398 0fa6 02       		.uleb128 0x2
 5399 0fa7 7D       		.byte	0x7d
 5400 0fa8 00       		.sleb128 0
 5401 0fa9 02       		.uleb128 0x2
 5402 0faa 91       		.byte	0x91
 5403 0fab 6F       		.sleb128 -17
 5404 0fac 11       		.uleb128 0x11
 5405 0fad 02       		.uleb128 0x2
 5406 0fae 7D       		.byte	0x7d
 5407 0faf 04       		.sleb128 4
 5408 0fb0 01       		.uleb128 0x1
 5409 0fb1 30       		.byte	0x30
 5410 0fb2 11       		.uleb128 0x11
 5411 0fb3 02       		.uleb128 0x2
 5412 0fb4 7D       		.byte	0x7d
 5413 0fb5 08       		.sleb128 8
 5414 0fb6 01       		.uleb128 0x1
 5415 0fb7 30       		.byte	0x30
 5416 0fb8 00       		.byte	0
 5417 0fb9 00       		.byte	0
 5418 0fba 1E       		.uleb128 0x1e
 5419 0fbb 92030000 		.4byte	.LASF75
 5420 0fbf 01       		.byte	0x1
 5421 0fc0 9A01     		.2byte	0x19a
 5422 0fc2 42000000 		.4byte	0x42
 5423 0fc6 00000000 		.4byte	.LFB51
 5424 0fca 0E000000 		.4byte	.LFE51-.LFB51
 5425 0fce 01       		.uleb128 0x1
 5426 0fcf 9C       		.byte	0x9c
 5427 0fd0 13100000 		.4byte	0x1013
 5428 0fd4 1F       		.uleb128 0x1f
 5429 0fd5 C9040000 		.4byte	.LASF73
 5430 0fd9 01       		.byte	0x1
 5431 0fda 9A01     		.2byte	0x19a
 5432 0fdc 02010000 		.4byte	0x102
 5433 0fe0 4B090000 		.4byte	.LLST58
 5434 0fe4 1F       		.uleb128 0x1f
 5435 0fe5 5F000000 		.4byte	.LASF74
 5436 0fe9 01       		.byte	0x1
 5437 0fea 9B01     		.2byte	0x19b
 5438 0fec 02010000 		.4byte	0x102
 5439 0ff0 77090000 		.4byte	.LLST59
 5440 0ff4 12       		.uleb128 0x12
 5441 0ff5 0C000000 		.4byte	.LVL221
 5442 0ff9 030F0000 		.4byte	0xf03
 5443 0ffd 11       		.uleb128 0x11
 5444 0ffe 01       		.uleb128 0x1
 5445 0fff 50       		.byte	0x50
 5446 1000 02       		.uleb128 0x2
 5447 1001 08       		.byte	0x8
 5448 1002 26       		.byte	0x26
 5449 1003 11       		.uleb128 0x11
 5450 1004 01       		.uleb128 0x1
ARM GAS  C:\Users\ABAD_S~1\AppData\Local\Temp\cckPFQC2.s 			page 117


 5451 1005 51       		.byte	0x51
 5452 1006 03       		.uleb128 0x3
 5453 1007 F3       		.byte	0xf3
 5454 1008 01       		.uleb128 0x1
 5455 1009 50       		.byte	0x50
 5456 100a 11       		.uleb128 0x11
 5457 100b 01       		.uleb128 0x1
 5458 100c 52       		.byte	0x52
 5459 100d 03       		.uleb128 0x3
 5460 100e F3       		.byte	0xf3
 5461 100f 01       		.uleb128 0x1
 5462 1010 51       		.byte	0x51
 5463 1011 00       		.byte	0
 5464 1012 00       		.byte	0
 5465 1013 1E       		.uleb128 0x1e
 5466 1014 27020000 		.4byte	.LASF76
 5467 1018 01       		.byte	0x1
 5468 1019 A001     		.2byte	0x1a0
 5469 101b 42000000 		.4byte	0x42
 5470 101f 00000000 		.4byte	.LFB52
 5471 1023 0E000000 		.4byte	.LFE52-.LFB52
 5472 1027 01       		.uleb128 0x1
 5473 1028 9C       		.byte	0x9c
 5474 1029 6C100000 		.4byte	0x106c
 5475 102d 1F       		.uleb128 0x1f
 5476 102e C9040000 		.4byte	.LASF73
 5477 1032 01       		.byte	0x1
 5478 1033 A001     		.2byte	0x1a0
 5479 1035 02010000 		.4byte	0x102
 5480 1039 A3090000 		.4byte	.LLST60
 5481 103d 1F       		.uleb128 0x1f
 5482 103e 5F000000 		.4byte	.LASF74
 5483 1042 01       		.byte	0x1
 5484 1043 A101     		.2byte	0x1a1
 5485 1045 02010000 		.4byte	0x102
 5486 1049 CF090000 		.4byte	.LLST61
 5487 104d 12       		.uleb128 0x12
 5488 104e 0C000000 		.4byte	.LVL225
 5489 1052 030F0000 		.4byte	0xf03
 5490 1056 11       		.uleb128 0x11
 5491 1057 01       		.uleb128 0x1
 5492 1058 50       		.byte	0x50
 5493 1059 02       		.uleb128 0x2
 5494 105a 08       		.byte	0x8
 5495 105b 52       		.byte	0x52
 5496 105c 11       		.uleb128 0x11
 5497 105d 01       		.uleb128 0x1
 5498 105e 51       		.byte	0x51
 5499 105f 03       		.uleb128 0x3
 5500 1060 F3       		.byte	0xf3
 5501 1061 01       		.uleb128 0x1
 5502 1062 50       		.byte	0x50
 5503 1063 11       		.uleb128 0x11
 5504 1064 01       		.uleb128 0x1
 5505 1065 52       		.byte	0x52
 5506 1066 03       		.uleb128 0x3
 5507 1067 F3       		.byte	0xf3
ARM GAS  C:\Users\ABAD_S~1\AppData\Local\Temp\cckPFQC2.s 			page 118


 5508 1068 01       		.uleb128 0x1
 5509 1069 51       		.byte	0x51
 5510 106a 00       		.byte	0
 5511 106b 00       		.byte	0
 5512 106c 1E       		.uleb128 0x1e
 5513 106d 99060000 		.4byte	.LASF77
 5514 1071 01       		.byte	0x1
 5515 1072 BE01     		.2byte	0x1be
 5516 1074 42000000 		.4byte	0x42
 5517 1078 00000000 		.4byte	.LFB54
 5518 107c 24030000 		.4byte	.LFE54-.LFB54
 5519 1080 01       		.uleb128 0x1
 5520 1081 9C       		.byte	0x9c
 5521 1082 B2120000 		.4byte	0x12b2
 5522 1086 25       		.uleb128 0x25
 5523 1087 75696400 		.ascii	"uid\000"
 5524 108b 01       		.byte	0x1
 5525 108c BE01     		.2byte	0x1be
 5526 108e B2120000 		.4byte	0x12b2
 5527 1092 FB090000 		.4byte	.LLST62
 5528 1096 1F       		.uleb128 0x1f
 5529 1097 23040000 		.4byte	.LASF63
 5530 109b 01       		.byte	0x1
 5531 109c BF01     		.2byte	0x1bf
 5532 109e 42000000 		.4byte	0x42
 5533 10a2 690A0000 		.4byte	.LLST63
 5534 10a6 21       		.uleb128 0x21
 5535 10a7 FF020000 		.4byte	.LASF78
 5536 10ab 01       		.byte	0x1
 5537 10ac C101     		.2byte	0x1c1
 5538 10ae 7E080000 		.4byte	0x87e
 5539 10b2 A30A0000 		.4byte	.LLST64
 5540 10b6 21       		.uleb128 0x21
 5541 10b7 91000000 		.4byte	.LASF79
 5542 10bb 01       		.byte	0x1
 5543 10bc C201     		.2byte	0x1c2
 5544 10be 7E080000 		.4byte	0x87e
 5545 10c2 E70A0000 		.4byte	.LLST65
 5546 10c6 21       		.uleb128 0x21
 5547 10c7 12050000 		.4byte	.LASF80
 5548 10cb 01       		.byte	0x1
 5549 10cc C301     		.2byte	0x1c3
 5550 10ce 7E080000 		.4byte	0x87e
 5551 10d2 100B0000 		.4byte	.LLST66
 5552 10d6 21       		.uleb128 0x21
 5553 10d7 5E010000 		.4byte	.LASF81
 5554 10db 01       		.byte	0x1
 5555 10dc C401     		.2byte	0x1c4
 5556 10de 42000000 		.4byte	0x42
 5557 10e2 450B0000 		.4byte	.LLST67
 5558 10e6 21       		.uleb128 0x21
 5559 10e7 97010000 		.4byte	.LASF43
 5560 10eb 01       		.byte	0x1
 5561 10ec C501     		.2byte	0x1c5
 5562 10ee 42000000 		.4byte	0x42
 5563 10f2 7D0B0000 		.4byte	.LLST68
 5564 10f6 21       		.uleb128 0x21
ARM GAS  C:\Users\ABAD_S~1\AppData\Local\Temp\cckPFQC2.s 			page 119


 5565 10f7 81010000 		.4byte	.LASF31
 5566 10fb 01       		.byte	0x1
 5567 10fc C601     		.2byte	0x1c6
 5568 10fe 42000000 		.4byte	0x42
 5569 1102 D40B0000 		.4byte	.LLST69
 5570 1106 21       		.uleb128 0x21
 5571 1107 09000000 		.4byte	.LASF82
 5572 110b 01       		.byte	0x1
 5573 110c C701     		.2byte	0x1c7
 5574 110e 42000000 		.4byte	0x42
 5575 1112 8F0C0000 		.4byte	.LLST70
 5576 1116 21       		.uleb128 0x21
 5577 1117 87010000 		.4byte	.LASF33
 5578 111b 01       		.byte	0x1
 5579 111c C801     		.2byte	0x1c8
 5580 111e 42000000 		.4byte	0x42
 5581 1122 E10C0000 		.4byte	.LLST71
 5582 1126 21       		.uleb128 0x21
 5583 1127 C2000000 		.4byte	.LASF83
 5584 112b 01       		.byte	0x1
 5585 112c C901     		.2byte	0x1c9
 5586 112e 42000000 		.4byte	0x42
 5587 1132 8B0D0000 		.4byte	.LLST72
 5588 1136 21       		.uleb128 0x21
 5589 1137 EC060000 		.4byte	.LASF84
 5590 113b 01       		.byte	0x1
 5591 113c CA01     		.2byte	0x1ca
 5592 113e 97000000 		.4byte	0x97
 5593 1142 C20D0000 		.4byte	.LLST73
 5594 1146 23       		.uleb128 0x23
 5595 1147 AF000000 		.4byte	.LASF85
 5596 114b 01       		.byte	0x1
 5597 114c CB01     		.2byte	0x1cb
 5598 114e B8120000 		.4byte	0x12b8
 5599 1152 02       		.uleb128 0x2
 5600 1153 91       		.byte	0x91
 5601 1154 4C       		.sleb128 -52
 5602 1155 21       		.uleb128 0x21
 5603 1156 D3050000 		.4byte	.LASF86
 5604 115a 01       		.byte	0x1
 5605 115b CC01     		.2byte	0x1cc
 5606 115d 42000000 		.4byte	0x42
 5607 1161 010E0000 		.4byte	.LLST74
 5608 1165 21       		.uleb128 0x21
 5609 1166 81060000 		.4byte	.LASF35
 5610 116a 01       		.byte	0x1
 5611 116b CD01     		.2byte	0x1cd
 5612 116d 42000000 		.4byte	0x42
 5613 1171 2B0E0000 		.4byte	.LLST75
 5614 1175 23       		.uleb128 0x23
 5615 1176 AA040000 		.4byte	.LASF65
 5616 117a 01       		.byte	0x1
 5617 117b CE01     		.2byte	0x1ce
 5618 117d 42000000 		.4byte	0x42
 5619 1181 02       		.uleb128 0x2
 5620 1182 91       		.byte	0x91
 5621 1183 4B       		.sleb128 -53
ARM GAS  C:\Users\ABAD_S~1\AppData\Local\Temp\cckPFQC2.s 			page 120


 5622 1184 21       		.uleb128 0x21
 5623 1185 2B030000 		.4byte	.LASF87
 5624 1189 01       		.byte	0x1
 5625 118a CF01     		.2byte	0x1cf
 5626 118c 02010000 		.4byte	0x102
 5627 1190 490E0000 		.4byte	.LLST76
 5628 1194 23       		.uleb128 0x23
 5629 1195 50000000 		.4byte	.LASF88
 5630 1199 01       		.byte	0x1
 5631 119a D001     		.2byte	0x1d0
 5632 119c 42000000 		.4byte	0x42
 5633 11a0 02       		.uleb128 0x2
 5634 11a1 91       		.byte	0x91
 5635 11a2 4A       		.sleb128 -54
 5636 11a3 22       		.uleb128 0x22
 5637 11a4 18000000 		.4byte	.Ldebug_ranges0+0x18
 5638 11a8 9C120000 		.4byte	0x129c
 5639 11ac 21       		.uleb128 0x21
 5640 11ad B4060000 		.4byte	.LASF89
 5641 11b1 01       		.byte	0x1
 5642 11b2 1602     		.2byte	0x216
 5643 11b4 42000000 		.4byte	0x42
 5644 11b8 CC0E0000 		.4byte	.LLST77
 5645 11bc 22       		.uleb128 0x22
 5646 11bd 30000000 		.4byte	.Ldebug_ranges0+0x30
 5647 11c1 D6110000 		.4byte	0x11d6
 5648 11c5 21       		.uleb128 0x21
 5649 11c6 EC020000 		.4byte	.LASF90
 5650 11ca 01       		.byte	0x1
 5651 11cb 1802     		.2byte	0x218
 5652 11cd 42000000 		.4byte	0x42
 5653 11d1 000F0000 		.4byte	.LLST78
 5654 11d5 00       		.byte	0
 5655 11d6 22       		.uleb128 0x22
 5656 11d7 48000000 		.4byte	.Ldebug_ranges0+0x48
 5657 11db 09120000 		.4byte	0x1209
 5658 11df 21       		.uleb128 0x21
 5659 11e0 12000000 		.4byte	.LASF91
 5660 11e4 01       		.byte	0x1
 5661 11e5 4C02     		.2byte	0x24c
 5662 11e7 42000000 		.4byte	0x42
 5663 11eb 130F0000 		.4byte	.LLST79
 5664 11ef 21       		.uleb128 0x21
 5665 11f0 58070000 		.4byte	.LASF92
 5666 11f4 01       		.byte	0x1
 5667 11f5 5002     		.2byte	0x250
 5668 11f7 42000000 		.4byte	0x42
 5669 11fb 310F0000 		.4byte	.LLST80
 5670 11ff 0F       		.uleb128 0xf
 5671 1200 F4010000 		.4byte	.LVL277
 5672 1204 A2020000 		.4byte	0x2a2
 5673 1208 00       		.byte	0
 5674 1209 10       		.uleb128 0x10
 5675 120a 50010000 		.4byte	.LVL261
 5676 120e 30050000 		.4byte	0x530
 5677 1212 28120000 		.4byte	0x1228
 5678 1216 11       		.uleb128 0x11
ARM GAS  C:\Users\ABAD_S~1\AppData\Local\Temp\cckPFQC2.s 			page 121


 5679 1217 01       		.uleb128 0x1
 5680 1218 50       		.byte	0x50
 5681 1219 02       		.uleb128 0x2
 5682 121a 91       		.byte	0x91
 5683 121b 4C       		.sleb128 -52
 5684 121c 11       		.uleb128 0x11
 5685 121d 01       		.uleb128 0x1
 5686 121e 51       		.byte	0x51
 5687 121f 01       		.uleb128 0x1
 5688 1220 37       		.byte	0x37
 5689 1221 11       		.uleb128 0x11
 5690 1222 01       		.uleb128 0x1
 5691 1223 52       		.byte	0x52
 5692 1224 02       		.uleb128 0x2
 5693 1225 91       		.byte	0x91
 5694 1226 53       		.sleb128 -45
 5695 1227 00       		.byte	0
 5696 1228 10       		.uleb128 0x10
 5697 1229 D0010000 		.4byte	.LVL274
 5698 122d 80010000 		.4byte	0x180
 5699 1231 46120000 		.4byte	0x1246
 5700 1235 11       		.uleb128 0x11
 5701 1236 01       		.uleb128 0x1
 5702 1237 50       		.byte	0x50
 5703 1238 01       		.uleb128 0x1
 5704 1239 3D       		.byte	0x3d
 5705 123a 11       		.uleb128 0x11
 5706 123b 01       		.uleb128 0x1
 5707 123c 51       		.byte	0x51
 5708 123d 07       		.uleb128 0x7
 5709 123e 76       		.byte	0x76
 5710 123f 00       		.sleb128 0
 5711 1240 34       		.byte	0x34
 5712 1241 24       		.byte	0x24
 5713 1242 76       		.byte	0x76
 5714 1243 00       		.sleb128 0
 5715 1244 22       		.byte	0x22
 5716 1245 00       		.byte	0
 5717 1246 10       		.uleb128 0x10
 5718 1247 EA010000 		.4byte	.LVL275
 5719 124b 2A0E0000 		.4byte	0xe2a
 5720 124f 80120000 		.4byte	0x1280
 5721 1253 11       		.uleb128 0x11
 5722 1254 01       		.uleb128 0x1
 5723 1255 50       		.byte	0x50
 5724 1256 02       		.uleb128 0x2
 5725 1257 91       		.byte	0x91
 5726 1258 4C       		.sleb128 -52
 5727 1259 11       		.uleb128 0x11
 5728 125a 01       		.uleb128 0x1
 5729 125b 51       		.byte	0x51
 5730 125c 02       		.uleb128 0x2
 5731 125d 79       		.byte	0x79
 5732 125e 00       		.sleb128 0
 5733 125f 11       		.uleb128 0x11
 5734 1260 01       		.uleb128 0x1
 5735 1261 52       		.byte	0x52
ARM GAS  C:\Users\ABAD_S~1\AppData\Local\Temp\cckPFQC2.s 			page 122


 5736 1262 02       		.uleb128 0x2
 5737 1263 78       		.byte	0x78
 5738 1264 00       		.sleb128 0
 5739 1265 11       		.uleb128 0x11
 5740 1266 01       		.uleb128 0x1
 5741 1267 53       		.byte	0x53
 5742 1268 02       		.uleb128 0x2
 5743 1269 91       		.byte	0x91
 5744 126a 4A       		.sleb128 -54
 5745 126b 11       		.uleb128 0x11
 5746 126c 02       		.uleb128 0x2
 5747 126d 7D       		.byte	0x7d
 5748 126e 00       		.sleb128 0
 5749 126f 02       		.uleb128 0x2
 5750 1270 74       		.byte	0x74
 5751 1271 00       		.sleb128 0
 5752 1272 11       		.uleb128 0x11
 5753 1273 02       		.uleb128 0x2
 5754 1274 7D       		.byte	0x7d
 5755 1275 04       		.sleb128 4
 5756 1276 02       		.uleb128 0x2
 5757 1277 76       		.byte	0x76
 5758 1278 00       		.sleb128 0
 5759 1279 11       		.uleb128 0x11
 5760 127a 02       		.uleb128 0x2
 5761 127b 7D       		.byte	0x7d
 5762 127c 08       		.sleb128 8
 5763 127d 01       		.uleb128 0x1
 5764 127e 30       		.byte	0x30
 5765 127f 00       		.byte	0
 5766 1280 12       		.uleb128 0x12
 5767 1281 AE020000 		.4byte	.LVL306
 5768 1285 30050000 		.4byte	0x530
 5769 1289 11       		.uleb128 0x11
 5770 128a 01       		.uleb128 0x1
 5771 128b 50       		.byte	0x50
 5772 128c 02       		.uleb128 0x2
 5773 128d 76       		.byte	0x76
 5774 128e 00       		.sleb128 0
 5775 128f 11       		.uleb128 0x11
 5776 1290 01       		.uleb128 0x1
 5777 1291 51       		.byte	0x51
 5778 1292 01       		.uleb128 0x1
 5779 1293 31       		.byte	0x31
 5780 1294 11       		.uleb128 0x11
 5781 1295 01       		.uleb128 0x1
 5782 1296 52       		.byte	0x52
 5783 1297 02       		.uleb128 0x2
 5784 1298 91       		.byte	0x91
 5785 1299 4E       		.sleb128 -50
 5786 129a 00       		.byte	0
 5787 129b 00       		.byte	0
 5788 129c 12       		.uleb128 0x12
 5789 129d 20000000 		.4byte	.LVL230
 5790 12a1 C9040000 		.4byte	0x4c9
 5791 12a5 11       		.uleb128 0x11
 5792 12a6 01       		.uleb128 0x1
ARM GAS  C:\Users\ABAD_S~1\AppData\Local\Temp\cckPFQC2.s 			page 123


 5793 12a7 50       		.byte	0x50
 5794 12a8 01       		.uleb128 0x1
 5795 12a9 3E       		.byte	0x3e
 5796 12aa 11       		.uleb128 0x11
 5797 12ab 01       		.uleb128 0x1
 5798 12ac 51       		.byte	0x51
 5799 12ad 02       		.uleb128 0x2
 5800 12ae 09       		.byte	0x9
 5801 12af 80       		.byte	0x80
 5802 12b0 00       		.byte	0
 5803 12b1 00       		.byte	0
 5804 12b2 08       		.uleb128 0x8
 5805 12b3 04       		.byte	0x4
 5806 12b4 45010000 		.4byte	0x145
 5807 12b8 06       		.uleb128 0x6
 5808 12b9 42000000 		.4byte	0x42
 5809 12bd C8120000 		.4byte	0x12c8
 5810 12c1 07       		.uleb128 0x7
 5811 12c2 FB000000 		.4byte	0xfb
 5812 12c6 08       		.byte	0x8
 5813 12c7 00       		.byte	0
 5814 12c8 1E       		.uleb128 0x1e
 5815 12c9 45060000 		.4byte	.LASF93
 5816 12cd 01       		.byte	0x1
 5817 12ce 9202     		.2byte	0x292
 5818 12d0 42000000 		.4byte	0x42
 5819 12d4 00000000 		.4byte	.LFB55
 5820 12d8 40000000 		.4byte	.LFE55-.LFB55
 5821 12dc 01       		.uleb128 0x1
 5822 12dd 9C       		.byte	0x9c
 5823 12de 52130000 		.4byte	0x1352
 5824 12e2 21       		.uleb128 0x21
 5825 12e3 97010000 		.4byte	.LASF43
 5826 12e7 01       		.byte	0x1
 5827 12e8 9302     		.2byte	0x293
 5828 12ea 42000000 		.4byte	0x42
 5829 12ee 5A0F0000 		.4byte	.LLST81
 5830 12f2 23       		.uleb128 0x23
 5831 12f3 AF000000 		.4byte	.LASF85
 5832 12f7 01       		.byte	0x1
 5833 12f8 9402     		.2byte	0x294
 5834 12fa EB000000 		.4byte	0xeb
 5835 12fe 02       		.uleb128 0x2
 5836 12ff 91       		.byte	0x91
 5837 1300 74       		.sleb128 -12
 5838 1301 10       		.uleb128 0x10
 5839 1302 18000000 		.4byte	.LVL323
 5840 1306 30050000 		.4byte	0x530
 5841 130a 20130000 		.4byte	0x1320
 5842 130e 11       		.uleb128 0x11
 5843 130f 01       		.uleb128 0x1
 5844 1310 50       		.byte	0x50
 5845 1311 02       		.uleb128 0x2
 5846 1312 91       		.byte	0x91
 5847 1313 74       		.sleb128 -12
 5848 1314 11       		.uleb128 0x11
 5849 1315 01       		.uleb128 0x1
ARM GAS  C:\Users\ABAD_S~1\AppData\Local\Temp\cckPFQC2.s 			page 124


 5850 1316 51       		.byte	0x51
 5851 1317 01       		.uleb128 0x1
 5852 1318 32       		.byte	0x32
 5853 1319 11       		.uleb128 0x11
 5854 131a 01       		.uleb128 0x1
 5855 131b 52       		.byte	0x52
 5856 131c 02       		.uleb128 0x2
 5857 131d 91       		.byte	0x91
 5858 131e 76       		.sleb128 -10
 5859 131f 00       		.byte	0
 5860 1320 12       		.uleb128 0x12
 5861 1321 2E000000 		.4byte	.LVL325
 5862 1325 2A0E0000 		.4byte	0xe2a
 5863 1329 11       		.uleb128 0x11
 5864 132a 01       		.uleb128 0x1
 5865 132b 50       		.byte	0x50
 5866 132c 02       		.uleb128 0x2
 5867 132d 91       		.byte	0x91
 5868 132e 74       		.sleb128 -12
 5869 132f 11       		.uleb128 0x11
 5870 1330 01       		.uleb128 0x1
 5871 1331 51       		.byte	0x51
 5872 1332 01       		.uleb128 0x1
 5873 1333 34       		.byte	0x34
 5874 1334 11       		.uleb128 0x11
 5875 1335 01       		.uleb128 0x1
 5876 1336 52       		.byte	0x52
 5877 1337 01       		.uleb128 0x1
 5878 1338 30       		.byte	0x30
 5879 1339 11       		.uleb128 0x11
 5880 133a 01       		.uleb128 0x1
 5881 133b 53       		.byte	0x53
 5882 133c 01       		.uleb128 0x1
 5883 133d 30       		.byte	0x30
 5884 133e 11       		.uleb128 0x11
 5885 133f 02       		.uleb128 0x2
 5886 1340 7D       		.byte	0x7d
 5887 1341 00       		.sleb128 0
 5888 1342 01       		.uleb128 0x1
 5889 1343 30       		.byte	0x30
 5890 1344 11       		.uleb128 0x11
 5891 1345 02       		.uleb128 0x2
 5892 1346 7D       		.byte	0x7d
 5893 1347 04       		.sleb128 4
 5894 1348 01       		.uleb128 0x1
 5895 1349 30       		.byte	0x30
 5896 134a 11       		.uleb128 0x11
 5897 134b 02       		.uleb128 0x2
 5898 134c 7D       		.byte	0x7d
 5899 134d 08       		.sleb128 8
 5900 134e 01       		.uleb128 0x1
 5901 134f 30       		.byte	0x30
 5902 1350 00       		.byte	0
 5903 1351 00       		.byte	0
 5904 1352 1E       		.uleb128 0x1e
 5905 1353 A0030000 		.4byte	.LASF94
 5906 1357 01       		.byte	0x1
ARM GAS  C:\Users\ABAD_S~1\AppData\Local\Temp\cckPFQC2.s 			page 125


 5907 1358 AE02     		.2byte	0x2ae
 5908 135a 42000000 		.4byte	0x42
 5909 135e 00000000 		.4byte	.LFB56
 5910 1362 58000000 		.4byte	.LFE56-.LFB56
 5911 1366 01       		.uleb128 0x1
 5912 1367 9C       		.byte	0x9c
 5913 1368 3E140000 		.4byte	0x143e
 5914 136c 1F       		.uleb128 0x1f
 5915 136d B5040000 		.4byte	.LASF57
 5916 1371 01       		.byte	0x1
 5917 1372 AE02     		.2byte	0x2ae
 5918 1374 42000000 		.4byte	0x42
 5919 1378 830F0000 		.4byte	.LLST82
 5920 137c 1F       		.uleb128 0x1f
 5921 137d DE050000 		.4byte	.LASF95
 5922 1381 01       		.byte	0x1
 5923 1382 AF02     		.2byte	0x2af
 5924 1384 42000000 		.4byte	0x42
 5925 1388 A40F0000 		.4byte	.LLST83
 5926 138c 25       		.uleb128 0x25
 5927 138d 6B657900 		.ascii	"key\000"
 5928 1391 01       		.byte	0x1
 5929 1392 B002     		.2byte	0x2b0
 5930 1394 3E140000 		.4byte	0x143e
 5931 1398 D10F0000 		.4byte	.LLST84
 5932 139c 25       		.uleb128 0x25
 5933 139d 75696400 		.ascii	"uid\000"
 5934 13a1 01       		.byte	0x1
 5935 13a2 B102     		.2byte	0x2b1
 5936 13a4 B2120000 		.4byte	0x12b2
 5937 13a8 F20F0000 		.4byte	.LLST85
 5938 13ac 24       		.uleb128 0x24
 5939 13ad CC020000 		.4byte	.LASF58
 5940 13b1 01       		.byte	0x1
 5941 13b2 B302     		.2byte	0x2b3
 5942 13b4 42000000 		.4byte	0x42
 5943 13b8 10       		.byte	0x10
 5944 13b9 23       		.uleb128 0x23
 5945 13ba 00000000 		.4byte	.LASF59
 5946 13be 01       		.byte	0x1
 5947 13bf B602     		.2byte	0x2b6
 5948 13c1 44140000 		.4byte	0x1444
 5949 13c5 02       		.uleb128 0x2
 5950 13c6 91       		.byte	0x91
 5951 13c7 64       		.sleb128 -28
 5952 13c8 13       		.uleb128 0x13
 5953 13c9 0A000000 		.4byte	.LBB16
 5954 13cd 18000000 		.4byte	.LBE16-.LBB16
 5955 13d1 E4130000 		.4byte	0x13e4
 5956 13d5 1D       		.uleb128 0x1d
 5957 13d6 6900     		.ascii	"i\000"
 5958 13d8 01       		.byte	0x1
 5959 13d9 B902     		.2byte	0x2b9
 5960 13db 42000000 		.4byte	0x42
 5961 13df 13100000 		.4byte	.LLST86
 5962 13e3 00       		.byte	0
 5963 13e4 13       		.uleb128 0x13
ARM GAS  C:\Users\ABAD_S~1\AppData\Local\Temp\cckPFQC2.s 			page 126


 5964 13e5 22000000 		.4byte	.LBB17
 5965 13e9 1A000000 		.4byte	.LBE17-.LBB17
 5966 13ed 00140000 		.4byte	0x1400
 5967 13f1 1D       		.uleb128 0x1d
 5968 13f2 6900     		.ascii	"i\000"
 5969 13f4 01       		.byte	0x1
 5970 13f5 C002     		.2byte	0x2c0
 5971 13f7 42000000 		.4byte	0x42
 5972 13fb 3D100000 		.4byte	.LLST87
 5973 13ff 00       		.byte	0
 5974 1400 12       		.uleb128 0x12
 5975 1401 54000000 		.4byte	.LVL342
 5976 1405 9F0B0000 		.4byte	0xb9f
 5977 1409 11       		.uleb128 0x11
 5978 140a 01       		.uleb128 0x1
 5979 140b 50       		.byte	0x50
 5980 140c 01       		.uleb128 0x1
 5981 140d 3E       		.byte	0x3e
 5982 140e 11       		.uleb128 0x11
 5983 140f 01       		.uleb128 0x1
 5984 1410 51       		.byte	0x51
 5985 1411 01       		.uleb128 0x1
 5986 1412 40       		.byte	0x40
 5987 1413 11       		.uleb128 0x11
 5988 1414 01       		.uleb128 0x1
 5989 1415 52       		.byte	0x52
 5990 1416 02       		.uleb128 0x2
 5991 1417 91       		.byte	0x91
 5992 1418 64       		.sleb128 -28
 5993 1419 11       		.uleb128 0x11
 5994 141a 01       		.uleb128 0x1
 5995 141b 53       		.byte	0x53
 5996 141c 01       		.uleb128 0x1
 5997 141d 3C       		.byte	0x3c
 5998 141e 11       		.uleb128 0x11
 5999 141f 02       		.uleb128 0x2
 6000 1420 7D       		.byte	0x7d
 6001 1421 00       		.sleb128 0
 6002 1422 01       		.uleb128 0x1
 6003 1423 30       		.byte	0x30
 6004 1424 11       		.uleb128 0x11
 6005 1425 02       		.uleb128 0x2
 6006 1426 7D       		.byte	0x7d
 6007 1427 04       		.sleb128 4
 6008 1428 01       		.uleb128 0x1
 6009 1429 30       		.byte	0x30
 6010 142a 11       		.uleb128 0x11
 6011 142b 02       		.uleb128 0x2
 6012 142c 7D       		.byte	0x7d
 6013 142d 08       		.sleb128 8
 6014 142e 01       		.uleb128 0x1
 6015 142f 30       		.byte	0x30
 6016 1430 11       		.uleb128 0x11
 6017 1431 02       		.uleb128 0x2
 6018 1432 7D       		.byte	0x7d
 6019 1433 0C       		.sleb128 12
 6020 1434 01       		.uleb128 0x1
ARM GAS  C:\Users\ABAD_S~1\AppData\Local\Temp\cckPFQC2.s 			page 127


 6021 1435 30       		.byte	0x30
 6022 1436 11       		.uleb128 0x11
 6023 1437 02       		.uleb128 0x2
 6024 1438 7D       		.byte	0x7d
 6025 1439 10       		.sleb128 16
 6026 143a 01       		.uleb128 0x1
 6027 143b 30       		.byte	0x30
 6028 143c 00       		.byte	0
 6029 143d 00       		.byte	0
 6030 143e 08       		.uleb128 0x8
 6031 143f 04       		.byte	0x4
 6032 1440 75010000 		.4byte	0x175
 6033 1444 06       		.uleb128 0x6
 6034 1445 42000000 		.4byte	0x42
 6035 1449 54140000 		.4byte	0x1454
 6036 144d 07       		.uleb128 0x7
 6037 144e FB000000 		.4byte	0xfb
 6038 1452 0B       		.byte	0xb
 6039 1453 00       		.byte	0
 6040 1454 1C       		.uleb128 0x1c
 6041 1455 77050000 		.4byte	.LASF96
 6042 1459 01       		.byte	0x1
 6043 145a C902     		.2byte	0x2c9
 6044 145c 00000000 		.4byte	.LFB57
 6045 1460 0C000000 		.4byte	.LFE57-.LFB57
 6046 1464 01       		.uleb128 0x1
 6047 1465 9C       		.byte	0x9c
 6048 1466 7F140000 		.4byte	0x147f
 6049 146a 12       		.uleb128 0x12
 6050 146b 0A000000 		.4byte	.LVL343
 6051 146f C9040000 		.4byte	0x4c9
 6052 1473 11       		.uleb128 0x11
 6053 1474 01       		.uleb128 0x1
 6054 1475 50       		.byte	0x50
 6055 1476 01       		.uleb128 0x1
 6056 1477 38       		.byte	0x38
 6057 1478 11       		.uleb128 0x11
 6058 1479 01       		.uleb128 0x1
 6059 147a 51       		.byte	0x51
 6060 147b 01       		.uleb128 0x1
 6061 147c 38       		.byte	0x38
 6062 147d 00       		.byte	0
 6063 147e 00       		.byte	0
 6064 147f 1E       		.uleb128 0x1e
 6065 1480 0E060000 		.4byte	.LASF97
 6066 1484 01       		.byte	0x1
 6067 1485 CF02     		.2byte	0x2cf
 6068 1487 42000000 		.4byte	0x42
 6069 148b 00000000 		.4byte	.LFB58
 6070 148f 48000000 		.4byte	.LFE58-.LFB58
 6071 1493 01       		.uleb128 0x1
 6072 1494 9C       		.byte	0x9c
 6073 1495 2C150000 		.4byte	0x152c
 6074 1499 1F       		.uleb128 0x1f
 6075 149a DE050000 		.4byte	.LASF95
 6076 149e 01       		.byte	0x1
 6077 149f CF02     		.2byte	0x2cf
ARM GAS  C:\Users\ABAD_S~1\AppData\Local\Temp\cckPFQC2.s 			page 128


 6078 14a1 42000000 		.4byte	0x42
 6079 14a5 5B100000 		.4byte	.LLST88
 6080 14a9 1F       		.uleb128 0x1f
 6081 14aa AF000000 		.4byte	.LASF85
 6082 14ae 01       		.byte	0x1
 6083 14af D002     		.2byte	0x2d0
 6084 14b1 02010000 		.4byte	0x102
 6085 14b5 BA100000 		.4byte	.LLST89
 6086 14b9 1F       		.uleb128 0x1f
 6087 14ba 5F000000 		.4byte	.LASF74
 6088 14be 01       		.byte	0x1
 6089 14bf D102     		.2byte	0x2d1
 6090 14c1 02010000 		.4byte	0x102
 6091 14c5 FC100000 		.4byte	.LLST90
 6092 14c9 21       		.uleb128 0x21
 6093 14ca 97010000 		.4byte	.LASF43
 6094 14ce 01       		.byte	0x1
 6095 14cf D302     		.2byte	0x2d3
 6096 14d1 42000000 		.4byte	0x42
 6097 14d5 3E110000 		.4byte	.LLST91
 6098 14d9 10       		.uleb128 0x10
 6099 14da 22000000 		.4byte	.LVL348
 6100 14de 30050000 		.4byte	0x530
 6101 14e2 F8140000 		.4byte	0x14f8
 6102 14e6 11       		.uleb128 0x11
 6103 14e7 01       		.uleb128 0x1
 6104 14e8 50       		.byte	0x50
 6105 14e9 02       		.uleb128 0x2
 6106 14ea 74       		.byte	0x74
 6107 14eb 00       		.sleb128 0
 6108 14ec 11       		.uleb128 0x11
 6109 14ed 01       		.uleb128 0x1
 6110 14ee 51       		.byte	0x51
 6111 14ef 01       		.uleb128 0x1
 6112 14f0 32       		.byte	0x32
 6113 14f1 11       		.uleb128 0x11
 6114 14f2 01       		.uleb128 0x1
 6115 14f3 52       		.byte	0x52
 6116 14f4 02       		.uleb128 0x2
 6117 14f5 74       		.byte	0x74
 6118 14f6 02       		.sleb128 2
 6119 14f7 00       		.byte	0
 6120 14f8 12       		.uleb128 0x12
 6121 14f9 3C000000 		.4byte	.LVL350
 6122 14fd 2A0E0000 		.4byte	0xe2a
 6123 1501 11       		.uleb128 0x11
 6124 1502 01       		.uleb128 0x1
 6125 1503 50       		.byte	0x50
 6126 1504 02       		.uleb128 0x2
 6127 1505 74       		.byte	0x74
 6128 1506 00       		.sleb128 0
 6129 1507 11       		.uleb128 0x11
 6130 1508 01       		.uleb128 0x1
 6131 1509 51       		.byte	0x51
 6132 150a 01       		.uleb128 0x1
 6133 150b 34       		.byte	0x34
 6134 150c 11       		.uleb128 0x11
ARM GAS  C:\Users\ABAD_S~1\AppData\Local\Temp\cckPFQC2.s 			page 129


 6135 150d 01       		.uleb128 0x1
 6136 150e 52       		.byte	0x52
 6137 150f 02       		.uleb128 0x2
 6138 1510 74       		.byte	0x74
 6139 1511 00       		.sleb128 0
 6140 1512 11       		.uleb128 0x11
 6141 1513 01       		.uleb128 0x1
 6142 1514 53       		.byte	0x53
 6143 1515 02       		.uleb128 0x2
 6144 1516 75       		.byte	0x75
 6145 1517 00       		.sleb128 0
 6146 1518 11       		.uleb128 0x11
 6147 1519 02       		.uleb128 0x2
 6148 151a 7D       		.byte	0x7d
 6149 151b 00       		.sleb128 0
 6150 151c 01       		.uleb128 0x1
 6151 151d 30       		.byte	0x30
 6152 151e 11       		.uleb128 0x11
 6153 151f 02       		.uleb128 0x2
 6154 1520 7D       		.byte	0x7d
 6155 1521 04       		.sleb128 4
 6156 1522 01       		.uleb128 0x1
 6157 1523 30       		.byte	0x30
 6158 1524 11       		.uleb128 0x11
 6159 1525 02       		.uleb128 0x2
 6160 1526 7D       		.byte	0x7d
 6161 1527 08       		.sleb128 8
 6162 1528 01       		.uleb128 0x1
 6163 1529 31       		.byte	0x31
 6164 152a 00       		.byte	0
 6165 152b 00       		.byte	0
 6166 152c 1E       		.uleb128 0x1e
 6167 152d 89060000 		.4byte	.LASF98
 6168 1531 01       		.byte	0x1
 6169 1532 5D03     		.2byte	0x35d
 6170 1534 42000000 		.4byte	0x42
 6171 1538 00000000 		.4byte	.LFB66
 6172 153c 34000000 		.4byte	.LFE66-.LFB66
 6173 1540 01       		.uleb128 0x1
 6174 1541 9C       		.byte	0x9c
 6175 1542 C7150000 		.4byte	0x15c7
 6176 1546 1F       		.uleb128 0x1f
 6177 1547 DE050000 		.4byte	.LASF95
 6178 154b 01       		.byte	0x1
 6179 154c 5D03     		.2byte	0x35d
 6180 154e 42000000 		.4byte	0x42
 6181 1552 51110000 		.4byte	.LLST92
 6182 1556 1F       		.uleb128 0x1f
 6183 1557 21020000 		.4byte	.LASF28
 6184 155b 01       		.byte	0x1
 6185 155c 5D03     		.2byte	0x35d
 6186 155e C7150000 		.4byte	0x15c7
 6187 1562 72110000 		.4byte	.LLST93
 6188 1566 23       		.uleb128 0x23
 6189 1567 7A030000 		.4byte	.LASF70
 6190 156b 01       		.byte	0x1
 6191 156c 5E03     		.2byte	0x35e
ARM GAS  C:\Users\ABAD_S~1\AppData\Local\Temp\cckPFQC2.s 			page 130


 6192 156e 42000000 		.4byte	0x42
 6193 1572 01       		.uleb128 0x1
 6194 1573 50       		.byte	0x50
 6195 1574 23       		.uleb128 0x23
 6196 1575 AF000000 		.4byte	.LASF85
 6197 1579 01       		.byte	0x1
 6198 157a 5F03     		.2byte	0x35f
 6199 157c CD150000 		.4byte	0x15cd
 6200 1580 02       		.uleb128 0x2
 6201 1581 91       		.byte	0x91
 6202 1582 64       		.sleb128 -28
 6203 1583 23       		.uleb128 0x23
 6204 1584 A5040000 		.4byte	.LASF23
 6205 1588 01       		.byte	0x1
 6206 1589 6003     		.2byte	0x360
 6207 158b 42000000 		.4byte	0x42
 6208 158f 02       		.uleb128 0x2
 6209 1590 91       		.byte	0x91
 6210 1591 63       		.sleb128 -29
 6211 1592 13       		.uleb128 0x13
 6212 1593 18000000 		.4byte	.LBB18
 6213 1597 18000000 		.4byte	.LBE18-.LBB18
 6214 159b B0150000 		.4byte	0x15b0
 6215 159f 1D       		.uleb128 0x1d
 6216 15a0 61757800 		.ascii	"aux\000"
 6217 15a4 01       		.byte	0x1
 6218 15a5 6603     		.2byte	0x366
 6219 15a7 B8000000 		.4byte	0xb8
 6220 15ab 9E110000 		.4byte	.LLST94
 6221 15af 00       		.byte	0
 6222 15b0 12       		.uleb128 0x12
 6223 15b1 14000000 		.4byte	.LVL359
 6224 15b5 7F140000 		.4byte	0x147f
 6225 15b9 11       		.uleb128 0x11
 6226 15ba 01       		.uleb128 0x1
 6227 15bb 51       		.byte	0x51
 6228 15bc 02       		.uleb128 0x2
 6229 15bd 91       		.byte	0x91
 6230 15be 64       		.sleb128 -28
 6231 15bf 11       		.uleb128 0x11
 6232 15c0 01       		.uleb128 0x1
 6233 15c1 52       		.byte	0x52
 6234 15c2 02       		.uleb128 0x2
 6235 15c3 7D       		.byte	0x7d
 6236 15c4 03       		.sleb128 3
 6237 15c5 00       		.byte	0
 6238 15c6 00       		.byte	0
 6239 15c7 08       		.uleb128 0x8
 6240 15c8 04       		.byte	0x4
 6241 15c9 B8000000 		.4byte	0xb8
 6242 15cd 06       		.uleb128 0x6
 6243 15ce 42000000 		.4byte	0x42
 6244 15d2 DD150000 		.4byte	0x15dd
 6245 15d6 07       		.uleb128 0x7
 6246 15d7 FB000000 		.4byte	0xfb
 6247 15db 11       		.byte	0x11
 6248 15dc 00       		.byte	0
ARM GAS  C:\Users\ABAD_S~1\AppData\Local\Temp\cckPFQC2.s 			page 131


 6249 15dd 1E       		.uleb128 0x1e
 6250 15de 4D010000 		.4byte	.LASF99
 6251 15e2 01       		.byte	0x1
 6252 15e3 8403     		.2byte	0x384
 6253 15e5 42000000 		.4byte	0x42
 6254 15e9 00000000 		.4byte	.LFB68
 6255 15ed 62000000 		.4byte	.LFE68-.LFB68
 6256 15f1 01       		.uleb128 0x1
 6257 15f2 9C       		.byte	0x9c
 6258 15f3 DC160000 		.4byte	0x16dc
 6259 15f7 1F       		.uleb128 0x1f
 6260 15f8 75040000 		.4byte	.LASF100
 6261 15fc 01       		.byte	0x1
 6262 15fd 8403     		.2byte	0x384
 6263 15ff 02010000 		.4byte	0x102
 6264 1603 1C120000 		.4byte	.LLST95
 6265 1607 1F       		.uleb128 0x1f
 6266 1608 48030000 		.4byte	.LASF101
 6267 160c 01       		.byte	0x1
 6268 160d 8403     		.2byte	0x384
 6269 160f 02010000 		.4byte	0x102
 6270 1613 3D120000 		.4byte	.LLST96
 6271 1617 21       		.uleb128 0x21
 6272 1618 97010000 		.4byte	.LASF43
 6273 161c 01       		.byte	0x1
 6274 161d 8903     		.2byte	0x389
 6275 161f 42000000 		.4byte	0x42
 6276 1623 69120000 		.4byte	.LLST97
 6277 1627 23       		.uleb128 0x23
 6278 1628 75000000 		.4byte	.LASF102
 6279 162c 01       		.byte	0x1
 6280 162d 8A03     		.2byte	0x38a
 6281 162f CD150000 		.4byte	0x15cd
 6282 1633 02       		.uleb128 0x2
 6283 1634 91       		.byte	0x91
 6284 1635 5C       		.sleb128 -36
 6285 1636 21       		.uleb128 0x21
 6286 1637 CC020000 		.4byte	.LASF58
 6287 163b 01       		.byte	0x1
 6288 163c 9703     		.2byte	0x397
 6289 163e 42000000 		.4byte	0x42
 6290 1642 87120000 		.4byte	.LLST98
 6291 1646 23       		.uleb128 0x23
 6292 1647 23040000 		.4byte	.LASF63
 6293 164b 01       		.byte	0x1
 6294 164c 9903     		.2byte	0x399
 6295 164e 42000000 		.4byte	0x42
 6296 1652 02       		.uleb128 0x2
 6297 1653 91       		.byte	0x91
 6298 1654 5B       		.sleb128 -37
 6299 1655 23       		.uleb128 0x23
 6300 1656 47000000 		.4byte	.LASF103
 6301 165a 01       		.byte	0x1
 6302 165b 9A03     		.2byte	0x39a
 6303 165d 42000000 		.4byte	0x42
 6304 1661 02       		.uleb128 0x2
 6305 1662 91       		.byte	0x91
ARM GAS  C:\Users\ABAD_S~1\AppData\Local\Temp\cckPFQC2.s 			page 132


 6306 1663 5A       		.sleb128 -38
 6307 1664 13       		.uleb128 0x13
 6308 1665 0C000000 		.4byte	.LBB19
 6309 1669 12000000 		.4byte	.LBE19-.LBB19
 6310 166d 80160000 		.4byte	0x1680
 6311 1671 1D       		.uleb128 0x1d
 6312 1672 6900     		.ascii	"i\000"
 6313 1674 01       		.byte	0x1
 6314 1675 8E03     		.2byte	0x38e
 6315 1677 42000000 		.4byte	0x42
 6316 167b 9C120000 		.4byte	.LLST99
 6317 167f 00       		.byte	0
 6318 1680 10       		.uleb128 0x10
 6319 1681 2A000000 		.4byte	.LVL374
 6320 1685 30050000 		.4byte	0x530
 6321 1689 9F160000 		.4byte	0x169f
 6322 168d 11       		.uleb128 0x11
 6323 168e 01       		.uleb128 0x1
 6324 168f 50       		.byte	0x50
 6325 1690 02       		.uleb128 0x2
 6326 1691 91       		.byte	0x91
 6327 1692 5C       		.sleb128 -36
 6328 1693 11       		.uleb128 0x11
 6329 1694 01       		.uleb128 0x1
 6330 1695 51       		.byte	0x51
 6331 1696 01       		.uleb128 0x1
 6332 1697 35       		.byte	0x35
 6333 1698 11       		.uleb128 0x11
 6334 1699 01       		.uleb128 0x1
 6335 169a 52       		.byte	0x52
 6336 169b 02       		.uleb128 0x2
 6337 169c 91       		.byte	0x91
 6338 169d 61       		.sleb128 -31
 6339 169e 00       		.byte	0
 6340 169f 12       		.uleb128 0x12
 6341 16a0 56000000 		.4byte	.LVL377
 6342 16a4 9F0B0000 		.4byte	0xb9f
 6343 16a8 11       		.uleb128 0x11
 6344 16a9 01       		.uleb128 0x1
 6345 16aa 51       		.byte	0x51
 6346 16ab 02       		.uleb128 0x2
 6347 16ac 08       		.byte	0x8
 6348 16ad 30       		.byte	0x30
 6349 16ae 11       		.uleb128 0x11
 6350 16af 01       		.uleb128 0x1
 6351 16b0 52       		.byte	0x52
 6352 16b1 02       		.uleb128 0x2
 6353 16b2 75       		.byte	0x75
 6354 16b3 00       		.sleb128 0
 6355 16b4 11       		.uleb128 0x11
 6356 16b5 01       		.uleb128 0x1
 6357 16b6 53       		.byte	0x53
 6358 16b7 01       		.uleb128 0x1
 6359 16b8 37       		.byte	0x37
 6360 16b9 11       		.uleb128 0x11
 6361 16ba 02       		.uleb128 0x2
 6362 16bb 7D       		.byte	0x7d
ARM GAS  C:\Users\ABAD_S~1\AppData\Local\Temp\cckPFQC2.s 			page 133


 6363 16bc 00       		.sleb128 0
 6364 16bd 02       		.uleb128 0x2
 6365 16be 75       		.byte	0x75
 6366 16bf 00       		.sleb128 0
 6367 16c0 11       		.uleb128 0x11
 6368 16c1 02       		.uleb128 0x2
 6369 16c2 7D       		.byte	0x7d
 6370 16c3 04       		.sleb128 4
 6371 16c4 02       		.uleb128 0x2
 6372 16c5 91       		.byte	0x91
 6373 16c6 5A       		.sleb128 -38
 6374 16c7 11       		.uleb128 0x11
 6375 16c8 02       		.uleb128 0x2
 6376 16c9 7D       		.byte	0x7d
 6377 16ca 08       		.sleb128 8
 6378 16cb 02       		.uleb128 0x2
 6379 16cc 91       		.byte	0x91
 6380 16cd 5B       		.sleb128 -37
 6381 16ce 11       		.uleb128 0x11
 6382 16cf 02       		.uleb128 0x2
 6383 16d0 7D       		.byte	0x7d
 6384 16d1 0C       		.sleb128 12
 6385 16d2 01       		.uleb128 0x1
 6386 16d3 30       		.byte	0x30
 6387 16d4 11       		.uleb128 0x11
 6388 16d5 02       		.uleb128 0x2
 6389 16d6 7D       		.byte	0x7d
 6390 16d7 10       		.sleb128 16
 6391 16d8 01       		.uleb128 0x1
 6392 16d9 30       		.byte	0x30
 6393 16da 00       		.byte	0
 6394 16db 00       		.byte	0
 6395 16dc 1E       		.uleb128 0x1e
 6396 16dd 7E040000 		.4byte	.LASF104
 6397 16e1 01       		.byte	0x1
 6398 16e2 A703     		.2byte	0x3a7
 6399 16e4 42000000 		.4byte	0x42
 6400 16e8 00000000 		.4byte	.LFB69
 6401 16ec 96000000 		.4byte	.LFE69-.LFB69
 6402 16f0 01       		.uleb128 0x1
 6403 16f1 9C       		.byte	0x9c
 6404 16f2 F0170000 		.4byte	0x17f0
 6405 16f6 1F       		.uleb128 0x1f
 6406 16f7 00000000 		.4byte	.LASF59
 6407 16fb 01       		.byte	0x1
 6408 16fc A703     		.2byte	0x3a7
 6409 16fe 02010000 		.4byte	0x102
 6410 1702 C6120000 		.4byte	.LLST100
 6411 1706 1F       		.uleb128 0x1f
 6412 1707 50070000 		.4byte	.LASF60
 6413 170b 01       		.byte	0x1
 6414 170c A803     		.2byte	0x3a8
 6415 170e 42000000 		.4byte	0x42
 6416 1712 24130000 		.4byte	.LLST101
 6417 1716 1F       		.uleb128 0x1f
 6418 1717 20050000 		.4byte	.LASF105
 6419 171b 01       		.byte	0x1
ARM GAS  C:\Users\ABAD_S~1\AppData\Local\Temp\cckPFQC2.s 			page 134


 6420 171c A903     		.2byte	0x3a9
 6421 171e 7E080000 		.4byte	0x87e
 6422 1722 5B130000 		.4byte	.LLST102
 6423 1726 21       		.uleb128 0x21
 6424 1727 97010000 		.4byte	.LASF43
 6425 172b 01       		.byte	0x1
 6426 172c AB03     		.2byte	0x3ab
 6427 172e 42000000 		.4byte	0x42
 6428 1732 95130000 		.4byte	.LLST103
 6429 1736 23       		.uleb128 0x23
 6430 1737 75000000 		.4byte	.LASF102
 6431 173b 01       		.byte	0x1
 6432 173c AC03     		.2byte	0x3ac
 6433 173e CD150000 		.4byte	0x15cd
 6434 1742 02       		.uleb128 0x2
 6435 1743 91       		.byte	0x91
 6436 1744 5C       		.sleb128 -36
 6437 1745 21       		.uleb128 0x21
 6438 1746 CC020000 		.4byte	.LASF58
 6439 174a 01       		.byte	0x1
 6440 174b BC03     		.2byte	0x3bc
 6441 174d 42000000 		.4byte	0x42
 6442 1751 BE130000 		.4byte	.LLST104
 6443 1755 23       		.uleb128 0x23
 6444 1756 1D030000 		.4byte	.LASF106
 6445 175a 01       		.byte	0x1
 6446 175b BD03     		.2byte	0x3bd
 6447 175d 42000000 		.4byte	0x42
 6448 1761 02       		.uleb128 0x2
 6449 1762 91       		.byte	0x91
 6450 1763 5B       		.sleb128 -37
 6451 1764 23       		.uleb128 0x23
 6452 1765 23040000 		.4byte	.LASF63
 6453 1769 01       		.byte	0x1
 6454 176a BE03     		.2byte	0x3be
 6455 176c 42000000 		.4byte	0x42
 6456 1770 02       		.uleb128 0x2
 6457 1771 91       		.byte	0x91
 6458 1772 5A       		.sleb128 -38
 6459 1773 10       		.uleb128 0x10
 6460 1774 1A000000 		.4byte	.LVL384
 6461 1778 141D0000 		.4byte	0x1d14
 6462 177c 94170000 		.4byte	0x1794
 6463 1780 11       		.uleb128 0x11
 6464 1781 01       		.uleb128 0x1
 6465 1782 50       		.byte	0x50
 6466 1783 02       		.uleb128 0x2
 6467 1784 91       		.byte	0x91
 6468 1785 5C       		.sleb128 -36
 6469 1786 11       		.uleb128 0x11
 6470 1787 01       		.uleb128 0x1
 6471 1788 51       		.byte	0x51
 6472 1789 03       		.uleb128 0x3
 6473 178a F3       		.byte	0xf3
 6474 178b 01       		.uleb128 0x1
 6475 178c 50       		.byte	0x50
 6476 178d 11       		.uleb128 0x11
ARM GAS  C:\Users\ABAD_S~1\AppData\Local\Temp\cckPFQC2.s 			page 135


 6477 178e 01       		.uleb128 0x1
 6478 178f 52       		.byte	0x52
 6479 1790 02       		.uleb128 0x2
 6480 1791 74       		.byte	0x74
 6481 1792 00       		.sleb128 0
 6482 1793 00       		.byte	0
 6483 1794 10       		.uleb128 0x10
 6484 1795 26000000 		.4byte	.LVL385
 6485 1799 30050000 		.4byte	0x530
 6486 179d BA170000 		.4byte	0x17ba
 6487 17a1 11       		.uleb128 0x11
 6488 17a2 01       		.uleb128 0x1
 6489 17a3 50       		.byte	0x50
 6490 17a4 02       		.uleb128 0x2
 6491 17a5 91       		.byte	0x91
 6492 17a6 5C       		.sleb128 -36
 6493 17a7 11       		.uleb128 0x11
 6494 17a8 01       		.uleb128 0x1
 6495 17a9 51       		.byte	0x51
 6496 17aa 02       		.uleb128 0x2
 6497 17ab 74       		.byte	0x74
 6498 17ac 00       		.sleb128 0
 6499 17ad 11       		.uleb128 0x11
 6500 17ae 01       		.uleb128 0x1
 6501 17af 52       		.byte	0x52
 6502 17b0 08       		.uleb128 0x8
 6503 17b1 91       		.byte	0x91
 6504 17b2 00       		.sleb128 0
 6505 17b3 74       		.byte	0x74
 6506 17b4 00       		.sleb128 0
 6507 17b5 22       		.byte	0x22
 6508 17b6 08       		.byte	0x8
 6509 17b7 24       		.byte	0x24
 6510 17b8 1C       		.byte	0x1c
 6511 17b9 00       		.byte	0
 6512 17ba 12       		.uleb128 0x12
 6513 17bb 52000000 		.4byte	.LVL388
 6514 17bf 9F0B0000 		.4byte	0xb9f
 6515 17c3 11       		.uleb128 0x11
 6516 17c4 01       		.uleb128 0x1
 6517 17c5 50       		.byte	0x50
 6518 17c6 01       		.uleb128 0x1
 6519 17c7 3C       		.byte	0x3c
 6520 17c8 11       		.uleb128 0x11
 6521 17c9 01       		.uleb128 0x1
 6522 17ca 51       		.byte	0x51
 6523 17cb 02       		.uleb128 0x2
 6524 17cc 08       		.byte	0x8
 6525 17cd 30       		.byte	0x30
 6526 17ce 11       		.uleb128 0x11
 6527 17cf 01       		.uleb128 0x1
 6528 17d0 52       		.byte	0x52
 6529 17d1 02       		.uleb128 0x2
 6530 17d2 91       		.byte	0x91
 6531 17d3 5C       		.sleb128 -36
 6532 17d4 11       		.uleb128 0x11
 6533 17d5 02       		.uleb128 0x2
ARM GAS  C:\Users\ABAD_S~1\AppData\Local\Temp\cckPFQC2.s 			page 136


 6534 17d6 7D       		.byte	0x7d
 6535 17d7 00       		.sleb128 0
 6536 17d8 02       		.uleb128 0x2
 6537 17d9 91       		.byte	0x91
 6538 17da 5C       		.sleb128 -36
 6539 17db 11       		.uleb128 0x11
 6540 17dc 02       		.uleb128 0x2
 6541 17dd 7D       		.byte	0x7d
 6542 17de 08       		.sleb128 8
 6543 17df 02       		.uleb128 0x2
 6544 17e0 74       		.byte	0x74
 6545 17e1 00       		.sleb128 0
 6546 17e2 11       		.uleb128 0x11
 6547 17e3 02       		.uleb128 0x2
 6548 17e4 7D       		.byte	0x7d
 6549 17e5 0C       		.sleb128 12
 6550 17e6 01       		.uleb128 0x1
 6551 17e7 30       		.byte	0x30
 6552 17e8 11       		.uleb128 0x11
 6553 17e9 02       		.uleb128 0x2
 6554 17ea 7D       		.byte	0x7d
 6555 17eb 10       		.sleb128 16
 6556 17ec 01       		.uleb128 0x1
 6557 17ed 30       		.byte	0x30
 6558 17ee 00       		.byte	0
 6559 17ef 00       		.byte	0
 6560 17f0 1E       		.uleb128 0x1e
 6561 17f1 4D030000 		.4byte	.LASF107
 6562 17f5 01       		.byte	0x1
 6563 17f6 E802     		.2byte	0x2e8
 6564 17f8 42000000 		.4byte	0x42
 6565 17fc 00000000 		.4byte	.LFB59
 6566 1800 3C000000 		.4byte	.LFE59-.LFB59
 6567 1804 01       		.uleb128 0x1
 6568 1805 9C       		.byte	0x9c
 6569 1806 93180000 		.4byte	0x1893
 6570 180a 1F       		.uleb128 0x1f
 6571 180b DE050000 		.4byte	.LASF95
 6572 180f 01       		.byte	0x1
 6573 1810 E802     		.2byte	0x2e8
 6574 1812 42000000 		.4byte	0x42
 6575 1816 E0130000 		.4byte	.LLST105
 6576 181a 1F       		.uleb128 0x1f
 6577 181b AF000000 		.4byte	.LASF85
 6578 181f 01       		.byte	0x1
 6579 1820 E902     		.2byte	0x2e9
 6580 1822 02010000 		.4byte	0x102
 6581 1826 3F140000 		.4byte	.LLST106
 6582 182a 1F       		.uleb128 0x1f
 6583 182b 5F000000 		.4byte	.LASF74
 6584 182f 01       		.byte	0x1
 6585 1830 EA02     		.2byte	0x2ea
 6586 1832 42000000 		.4byte	0x42
 6587 1836 81140000 		.4byte	.LLST107
 6588 183a 21       		.uleb128 0x21
 6589 183b 97010000 		.4byte	.LASF43
 6590 183f 01       		.byte	0x1
ARM GAS  C:\Users\ABAD_S~1\AppData\Local\Temp\cckPFQC2.s 			page 137


 6591 1840 EC02     		.2byte	0x2ec
 6592 1842 42000000 		.4byte	0x42
 6593 1846 BB140000 		.4byte	.LLST108
 6594 184a 23       		.uleb128 0x23
 6595 184b 75000000 		.4byte	.LASF102
 6596 184f 01       		.byte	0x1
 6597 1850 F602     		.2byte	0x2f6
 6598 1852 1A0E0000 		.4byte	0xe1a
 6599 1856 02       		.uleb128 0x2
 6600 1857 91       		.byte	0x91
 6601 1858 6C       		.sleb128 -20
 6602 1859 10       		.uleb128 0x10
 6603 185a 22000000 		.4byte	.LVL402
 6604 185e DC160000 		.4byte	0x16dc
 6605 1862 77180000 		.4byte	0x1877
 6606 1866 11       		.uleb128 0x11
 6607 1867 01       		.uleb128 0x1
 6608 1868 50       		.byte	0x50
 6609 1869 02       		.uleb128 0x2
 6610 186a 91       		.byte	0x91
 6611 186b 6C       		.sleb128 -20
 6612 186c 11       		.uleb128 0x11
 6613 186d 01       		.uleb128 0x1
 6614 186e 51       		.byte	0x51
 6615 186f 01       		.uleb128 0x1
 6616 1870 32       		.byte	0x32
 6617 1871 11       		.uleb128 0x11
 6618 1872 01       		.uleb128 0x1
 6619 1873 52       		.byte	0x52
 6620 1874 01       		.uleb128 0x1
 6621 1875 30       		.byte	0x30
 6622 1876 00       		.byte	0
 6623 1877 12       		.uleb128 0x12
 6624 1878 30000000 		.4byte	.LVL404
 6625 187c DC160000 		.4byte	0x16dc
 6626 1880 11       		.uleb128 0x11
 6627 1881 01       		.uleb128 0x1
 6628 1882 50       		.byte	0x50
 6629 1883 02       		.uleb128 0x2
 6630 1884 74       		.byte	0x74
 6631 1885 00       		.sleb128 0
 6632 1886 11       		.uleb128 0x11
 6633 1887 01       		.uleb128 0x1
 6634 1888 51       		.byte	0x51
 6635 1889 02       		.uleb128 0x2
 6636 188a 75       		.byte	0x75
 6637 188b 00       		.sleb128 0
 6638 188c 11       		.uleb128 0x11
 6639 188d 01       		.uleb128 0x1
 6640 188e 52       		.byte	0x52
 6641 188f 01       		.uleb128 0x1
 6642 1890 30       		.byte	0x30
 6643 1891 00       		.byte	0
 6644 1892 00       		.byte	0
 6645 1893 1E       		.uleb128 0x1e
 6646 1894 C7010000 		.4byte	.LASF108
 6647 1898 01       		.byte	0x1
ARM GAS  C:\Users\ABAD_S~1\AppData\Local\Temp\cckPFQC2.s 			page 138


 6648 1899 7003     		.2byte	0x370
 6649 189b 42000000 		.4byte	0x42
 6650 189f 00000000 		.4byte	.LFB67
 6651 18a3 4A000000 		.4byte	.LFE67-.LFB67
 6652 18a7 01       		.uleb128 0x1
 6653 18a8 9C       		.byte	0x9c
 6654 18a9 F2180000 		.4byte	0x18f2
 6655 18ad 1F       		.uleb128 0x1f
 6656 18ae DE050000 		.4byte	.LASF95
 6657 18b2 01       		.byte	0x1
 6658 18b3 7003     		.2byte	0x370
 6659 18b5 42000000 		.4byte	0x42
 6660 18b9 D9140000 		.4byte	.LLST109
 6661 18bd 1F       		.uleb128 0x1f
 6662 18be 21020000 		.4byte	.LASF28
 6663 18c2 01       		.byte	0x1
 6664 18c3 7003     		.2byte	0x370
 6665 18c5 B8000000 		.4byte	0xb8
 6666 18c9 FA140000 		.4byte	.LLST110
 6667 18cd 23       		.uleb128 0x23
 6668 18ce AF000000 		.4byte	.LASF85
 6669 18d2 01       		.byte	0x1
 6670 18d3 7103     		.2byte	0x371
 6671 18d5 CD150000 		.4byte	0x15cd
 6672 18d9 02       		.uleb128 0x2
 6673 18da 91       		.byte	0x91
 6674 18db 5C       		.sleb128 -36
 6675 18dc 12       		.uleb128 0x12
 6676 18dd 46000000 		.4byte	.LVL412
 6677 18e1 F0170000 		.4byte	0x17f0
 6678 18e5 11       		.uleb128 0x11
 6679 18e6 01       		.uleb128 0x1
 6680 18e7 51       		.byte	0x51
 6681 18e8 02       		.uleb128 0x2
 6682 18e9 91       		.byte	0x91
 6683 18ea 5C       		.sleb128 -36
 6684 18eb 11       		.uleb128 0x11
 6685 18ec 01       		.uleb128 0x1
 6686 18ed 52       		.byte	0x52
 6687 18ee 01       		.uleb128 0x1
 6688 18ef 40       		.byte	0x40
 6689 18f0 00       		.byte	0
 6690 18f1 00       		.byte	0
 6691 18f2 1E       		.uleb128 0x1e
 6692 18f3 50060000 		.4byte	.LASF109
 6693 18f7 01       		.byte	0x1
 6694 18f8 0803     		.2byte	0x308
 6695 18fa 42000000 		.4byte	0x42
 6696 18fe 00000000 		.4byte	.LFB60
 6697 1902 34000000 		.4byte	.LFE60-.LFB60
 6698 1906 01       		.uleb128 0x1
 6699 1907 9C       		.byte	0x9c
 6700 1908 96190000 		.4byte	0x1996
 6701 190c 1F       		.uleb128 0x1f
 6702 190d 69040000 		.4byte	.LASF110
 6703 1911 01       		.byte	0x1
 6704 1912 0803     		.2byte	0x308
ARM GAS  C:\Users\ABAD_S~1\AppData\Local\Temp\cckPFQC2.s 			page 139


 6705 1914 42000000 		.4byte	0x42
 6706 1918 1B150000 		.4byte	.LLST111
 6707 191c 1F       		.uleb128 0x1f
 6708 191d AF000000 		.4byte	.LASF85
 6709 1921 01       		.byte	0x1
 6710 1922 0903     		.2byte	0x309
 6711 1924 02010000 		.4byte	0x102
 6712 1928 7A150000 		.4byte	.LLST112
 6713 192c 1F       		.uleb128 0x1f
 6714 192d 5F000000 		.4byte	.LASF74
 6715 1931 01       		.byte	0x1
 6716 1932 0A03     		.2byte	0x30a
 6717 1934 42000000 		.4byte	0x42
 6718 1938 B4150000 		.4byte	.LLST113
 6719 193c 21       		.uleb128 0x21
 6720 193d 97010000 		.4byte	.LASF43
 6721 1941 01       		.byte	0x1
 6722 1942 0C03     		.2byte	0x30c
 6723 1944 42000000 		.4byte	0x42
 6724 1948 EE150000 		.4byte	.LLST114
 6725 194c 23       		.uleb128 0x23
 6726 194d 75000000 		.4byte	.LASF102
 6727 1951 01       		.byte	0x1
 6728 1952 1403     		.2byte	0x314
 6729 1954 65010000 		.4byte	0x165
 6730 1958 02       		.uleb128 0x2
 6731 1959 91       		.byte	0x91
 6732 195a 70       		.sleb128 -16
 6733 195b 10       		.uleb128 0x10
 6734 195c 1E000000 		.4byte	.LVL416
 6735 1960 141D0000 		.4byte	0x1d14
 6736 1964 7B190000 		.4byte	0x197b
 6737 1968 11       		.uleb128 0x11
 6738 1969 01       		.uleb128 0x1
 6739 196a 50       		.byte	0x50
 6740 196b 02       		.uleb128 0x2
 6741 196c 7D       		.byte	0x7d
 6742 196d 02       		.sleb128 2
 6743 196e 11       		.uleb128 0x11
 6744 196f 01       		.uleb128 0x1
 6745 1970 51       		.byte	0x51
 6746 1971 03       		.uleb128 0x3
 6747 1972 F3       		.byte	0xf3
 6748 1973 01       		.uleb128 0x1
 6749 1974 51       		.byte	0x51
 6750 1975 11       		.uleb128 0x11
 6751 1976 01       		.uleb128 0x1
 6752 1977 52       		.byte	0x52
 6753 1978 01       		.uleb128 0x1
 6754 1979 34       		.byte	0x34
 6755 197a 00       		.byte	0
 6756 197b 12       		.uleb128 0x12
 6757 197c 28000000 		.4byte	.LVL417
 6758 1980 DC160000 		.4byte	0x16dc
 6759 1984 11       		.uleb128 0x11
 6760 1985 01       		.uleb128 0x1
 6761 1986 50       		.byte	0x50
ARM GAS  C:\Users\ABAD_S~1\AppData\Local\Temp\cckPFQC2.s 			page 140


 6762 1987 02       		.uleb128 0x2
 6763 1988 7D       		.byte	0x7d
 6764 1989 00       		.sleb128 0
 6765 198a 11       		.uleb128 0x11
 6766 198b 01       		.uleb128 0x1
 6767 198c 51       		.byte	0x51
 6768 198d 01       		.uleb128 0x1
 6769 198e 36       		.byte	0x36
 6770 198f 11       		.uleb128 0x11
 6771 1990 01       		.uleb128 0x1
 6772 1991 52       		.byte	0x52
 6773 1992 01       		.uleb128 0x1
 6774 1993 30       		.byte	0x30
 6775 1994 00       		.byte	0
 6776 1995 00       		.byte	0
 6777 1996 1E       		.uleb128 0x1e
 6778 1997 D8000000 		.4byte	.LASF111
 6779 199b 01       		.byte	0x1
 6780 199c 3603     		.2byte	0x336
 6781 199e 42000000 		.4byte	0x42
 6782 19a2 00000000 		.4byte	.LFB64
 6783 19a6 28000000 		.4byte	.LFE64-.LFB64
 6784 19aa 01       		.uleb128 0x1
 6785 19ab 9C       		.byte	0x9c
 6786 19ac 381A0000 		.4byte	0x1a38
 6787 19b0 1F       		.uleb128 0x1f
 6788 19b1 B5040000 		.4byte	.LASF57
 6789 19b5 01       		.byte	0x1
 6790 19b6 3603     		.2byte	0x336
 6791 19b8 42000000 		.4byte	0x42
 6792 19bc 01160000 		.4byte	.LLST115
 6793 19c0 1F       		.uleb128 0x1f
 6794 19c1 DE050000 		.4byte	.LASF95
 6795 19c5 01       		.byte	0x1
 6796 19c6 3703     		.2byte	0x337
 6797 19c8 42000000 		.4byte	0x42
 6798 19cc 2E160000 		.4byte	.LLST116
 6799 19d0 1F       		.uleb128 0x1f
 6800 19d1 5A030000 		.4byte	.LASF41
 6801 19d5 01       		.byte	0x1
 6802 19d6 3803     		.2byte	0x338
 6803 19d8 B8000000 		.4byte	0xb8
 6804 19dc 5B160000 		.4byte	.LLST117
 6805 19e0 21       		.uleb128 0x21
 6806 19e1 97010000 		.4byte	.LASF43
 6807 19e5 01       		.byte	0x1
 6808 19e6 3A03     		.2byte	0x33a
 6809 19e8 42000000 		.4byte	0x42
 6810 19ec 92160000 		.4byte	.LLST118
 6811 19f0 23       		.uleb128 0x23
 6812 19f1 75000000 		.4byte	.LASF102
 6813 19f5 01       		.byte	0x1
 6814 19f6 3B03     		.2byte	0x33b
 6815 19f8 1A0E0000 		.4byte	0xe1a
 6816 19fc 02       		.uleb128 0x2
 6817 19fd 91       		.byte	0x91
 6818 19fe 74       		.sleb128 -12
ARM GAS  C:\Users\ABAD_S~1\AppData\Local\Temp\cckPFQC2.s 			page 141


 6819 19ff 10       		.uleb128 0x10
 6820 1a00 16000000 		.4byte	.LVL426
 6821 1a04 DC160000 		.4byte	0x16dc
 6822 1a08 1D1A0000 		.4byte	0x1a1d
 6823 1a0c 11       		.uleb128 0x11
 6824 1a0d 01       		.uleb128 0x1
 6825 1a0e 50       		.byte	0x50
 6826 1a0f 02       		.uleb128 0x2
 6827 1a10 91       		.byte	0x91
 6828 1a11 74       		.sleb128 -12
 6829 1a12 11       		.uleb128 0x11
 6830 1a13 01       		.uleb128 0x1
 6831 1a14 51       		.byte	0x51
 6832 1a15 01       		.uleb128 0x1
 6833 1a16 32       		.byte	0x32
 6834 1a17 11       		.uleb128 0x11
 6835 1a18 01       		.uleb128 0x1
 6836 1a19 52       		.byte	0x52
 6837 1a1a 01       		.uleb128 0x1
 6838 1a1b 30       		.byte	0x30
 6839 1a1c 00       		.byte	0
 6840 1a1d 12       		.uleb128 0x12
 6841 1a1e 24000000 		.4byte	.LVL428
 6842 1a22 DC160000 		.4byte	0x16dc
 6843 1a26 11       		.uleb128 0x11
 6844 1a27 01       		.uleb128 0x1
 6845 1a28 50       		.byte	0x50
 6846 1a29 02       		.uleb128 0x2
 6847 1a2a 91       		.byte	0x91
 6848 1a2b 6C       		.sleb128 -20
 6849 1a2c 11       		.uleb128 0x11
 6850 1a2d 01       		.uleb128 0x1
 6851 1a2e 51       		.byte	0x51
 6852 1a2f 01       		.uleb128 0x1
 6853 1a30 34       		.byte	0x34
 6854 1a31 11       		.uleb128 0x11
 6855 1a32 01       		.uleb128 0x1
 6856 1a33 52       		.byte	0x52
 6857 1a34 01       		.uleb128 0x1
 6858 1a35 31       		.byte	0x31
 6859 1a36 00       		.byte	0
 6860 1a37 00       		.byte	0
 6861 1a38 1E       		.uleb128 0x1e
 6862 1a39 94040000 		.4byte	.LASF112
 6863 1a3d 01       		.byte	0x1
 6864 1a3e 2103     		.2byte	0x321
 6865 1a40 42000000 		.4byte	0x42
 6866 1a44 00000000 		.4byte	.LFB61
 6867 1a48 0E000000 		.4byte	.LFE61-.LFB61
 6868 1a4c 01       		.uleb128 0x1
 6869 1a4d 9C       		.byte	0x9c
 6870 1a4e 8A1A0000 		.4byte	0x1a8a
 6871 1a52 1F       		.uleb128 0x1f
 6872 1a53 DE050000 		.4byte	.LASF95
 6873 1a57 01       		.byte	0x1
 6874 1a58 2103     		.2byte	0x321
 6875 1a5a 42000000 		.4byte	0x42
ARM GAS  C:\Users\ABAD_S~1\AppData\Local\Temp\cckPFQC2.s 			page 142


 6876 1a5e B0160000 		.4byte	.LLST119
 6877 1a62 1F       		.uleb128 0x1f
 6878 1a63 CC060000 		.4byte	.LASF113
 6879 1a67 01       		.byte	0x1
 6880 1a68 2203     		.2byte	0x322
 6881 1a6a B8000000 		.4byte	0xb8
 6882 1a6e D1160000 		.4byte	.LLST120
 6883 1a72 12       		.uleb128 0x12
 6884 1a73 0C000000 		.4byte	.LVL432
 6885 1a77 96190000 		.4byte	0x1996
 6886 1a7b 11       		.uleb128 0x11
 6887 1a7c 01       		.uleb128 0x1
 6888 1a7d 50       		.byte	0x50
 6889 1a7e 02       		.uleb128 0x2
 6890 1a7f 09       		.byte	0x9
 6891 1a80 C0       		.byte	0xc0
 6892 1a81 11       		.uleb128 0x11
 6893 1a82 01       		.uleb128 0x1
 6894 1a83 52       		.byte	0x52
 6895 1a84 03       		.uleb128 0x3
 6896 1a85 F3       		.byte	0xf3
 6897 1a86 01       		.uleb128 0x1
 6898 1a87 51       		.byte	0x51
 6899 1a88 00       		.byte	0
 6900 1a89 00       		.byte	0
 6901 1a8a 1E       		.uleb128 0x1e
 6902 1a8b EB010000 		.4byte	.LASF114
 6903 1a8f 01       		.byte	0x1
 6904 1a90 2703     		.2byte	0x327
 6905 1a92 42000000 		.4byte	0x42
 6906 1a96 00000000 		.4byte	.LFB62
 6907 1a9a 0E000000 		.4byte	.LFE62-.LFB62
 6908 1a9e 01       		.uleb128 0x1
 6909 1a9f 9C       		.byte	0x9c
 6910 1aa0 DC1A0000 		.4byte	0x1adc
 6911 1aa4 1F       		.uleb128 0x1f
 6912 1aa5 DE050000 		.4byte	.LASF95
 6913 1aa9 01       		.byte	0x1
 6914 1aaa 2703     		.2byte	0x327
 6915 1aac 42000000 		.4byte	0x42
 6916 1ab0 FD160000 		.4byte	.LLST121
 6917 1ab4 1F       		.uleb128 0x1f
 6918 1ab5 CC060000 		.4byte	.LASF113
 6919 1ab9 01       		.byte	0x1
 6920 1aba 2803     		.2byte	0x328
 6921 1abc B8000000 		.4byte	0xb8
 6922 1ac0 1E170000 		.4byte	.LLST122
 6923 1ac4 12       		.uleb128 0x12
 6924 1ac5 0C000000 		.4byte	.LVL436
 6925 1ac9 96190000 		.4byte	0x1996
 6926 1acd 11       		.uleb128 0x11
 6927 1ace 01       		.uleb128 0x1
 6928 1acf 50       		.byte	0x50
 6929 1ad0 02       		.uleb128 0x2
 6930 1ad1 09       		.byte	0x9
 6931 1ad2 C1       		.byte	0xc1
 6932 1ad3 11       		.uleb128 0x11
ARM GAS  C:\Users\ABAD_S~1\AppData\Local\Temp\cckPFQC2.s 			page 143


 6933 1ad4 01       		.uleb128 0x1
 6934 1ad5 52       		.byte	0x52
 6935 1ad6 03       		.uleb128 0x3
 6936 1ad7 F3       		.byte	0xf3
 6937 1ad8 01       		.uleb128 0x1
 6938 1ad9 51       		.byte	0x51
 6939 1ada 00       		.byte	0
 6940 1adb 00       		.byte	0
 6941 1adc 1E       		.uleb128 0x1e
 6942 1add 2D040000 		.4byte	.LASF115
 6943 1ae1 01       		.byte	0x1
 6944 1ae2 2E03     		.2byte	0x32e
 6945 1ae4 42000000 		.4byte	0x42
 6946 1ae8 00000000 		.4byte	.LFB63
 6947 1aec 0E000000 		.4byte	.LFE63-.LFB63
 6948 1af0 01       		.uleb128 0x1
 6949 1af1 9C       		.byte	0x9c
 6950 1af2 1C1B0000 		.4byte	0x1b1c
 6951 1af6 1F       		.uleb128 0x1f
 6952 1af7 DE050000 		.4byte	.LASF95
 6953 1afb 01       		.byte	0x1
 6954 1afc 2E03     		.2byte	0x32e
 6955 1afe 42000000 		.4byte	0x42
 6956 1b02 4A170000 		.4byte	.LLST123
 6957 1b06 12       		.uleb128 0x12
 6958 1b07 0C000000 		.4byte	.LVL439
 6959 1b0b 96190000 		.4byte	0x1996
 6960 1b0f 11       		.uleb128 0x11
 6961 1b10 01       		.uleb128 0x1
 6962 1b11 50       		.byte	0x50
 6963 1b12 02       		.uleb128 0x2
 6964 1b13 09       		.byte	0x9
 6965 1b14 C2       		.byte	0xc2
 6966 1b15 11       		.uleb128 0x11
 6967 1b16 01       		.uleb128 0x1
 6968 1b17 52       		.byte	0x52
 6969 1b18 01       		.uleb128 0x1
 6970 1b19 30       		.byte	0x30
 6971 1b1a 00       		.byte	0
 6972 1b1b 00       		.byte	0
 6973 1b1c 1E       		.uleb128 0x1e
 6974 1b1d 17070000 		.4byte	.LASF116
 6975 1b21 01       		.byte	0x1
 6976 1b22 4E03     		.2byte	0x34e
 6977 1b24 42000000 		.4byte	0x42
 6978 1b28 00000000 		.4byte	.LFB65
 6979 1b2c 1A000000 		.4byte	.LFE65-.LFB65
 6980 1b30 01       		.uleb128 0x1
 6981 1b31 9C       		.byte	0x9c
 6982 1b32 7E1B0000 		.4byte	0x1b7e
 6983 1b36 1F       		.uleb128 0x1f
 6984 1b37 DE050000 		.4byte	.LASF95
 6985 1b3b 01       		.byte	0x1
 6986 1b3c 4E03     		.2byte	0x34e
 6987 1b3e 42000000 		.4byte	0x42
 6988 1b42 6B170000 		.4byte	.LLST124
 6989 1b46 23       		.uleb128 0x23
ARM GAS  C:\Users\ABAD_S~1\AppData\Local\Temp\cckPFQC2.s 			page 144


 6990 1b47 97010000 		.4byte	.LASF43
 6991 1b4b 01       		.byte	0x1
 6992 1b4c 5003     		.2byte	0x350
 6993 1b4e 42000000 		.4byte	0x42
 6994 1b52 01       		.uleb128 0x1
 6995 1b53 50       		.byte	0x50
 6996 1b54 23       		.uleb128 0x23
 6997 1b55 75000000 		.4byte	.LASF102
 6998 1b59 01       		.byte	0x1
 6999 1b5a 5103     		.2byte	0x351
 7000 1b5c 1A0E0000 		.4byte	0xe1a
 7001 1b60 02       		.uleb128 0x2
 7002 1b61 91       		.byte	0x91
 7003 1b62 74       		.sleb128 -12
 7004 1b63 12       		.uleb128 0x12
 7005 1b64 16000000 		.4byte	.LVL442
 7006 1b68 DC160000 		.4byte	0x16dc
 7007 1b6c 11       		.uleb128 0x11
 7008 1b6d 01       		.uleb128 0x1
 7009 1b6e 50       		.byte	0x50
 7010 1b6f 02       		.uleb128 0x2
 7011 1b70 91       		.byte	0x91
 7012 1b71 74       		.sleb128 -12
 7013 1b72 11       		.uleb128 0x11
 7014 1b73 01       		.uleb128 0x1
 7015 1b74 51       		.byte	0x51
 7016 1b75 01       		.uleb128 0x1
 7017 1b76 32       		.byte	0x32
 7018 1b77 11       		.uleb128 0x11
 7019 1b78 01       		.uleb128 0x1
 7020 1b79 52       		.byte	0x52
 7021 1b7a 01       		.uleb128 0x1
 7022 1b7b 30       		.byte	0x30
 7023 1b7c 00       		.byte	0
 7024 1b7d 00       		.byte	0
 7025 1b7e 1E       		.uleb128 0x1e
 7026 1b7f 31000000 		.4byte	.LASF117
 7027 1b83 01       		.byte	0x1
 7028 1b84 D103     		.2byte	0x3d1
 7029 1b86 7E080000 		.4byte	0x87e
 7030 1b8a 00000000 		.4byte	.LFB70
 7031 1b8e 42000000 		.4byte	.LFE70-.LFB70
 7032 1b92 01       		.uleb128 0x1
 7033 1b93 9C       		.byte	0x9c
 7034 1b94 271C0000 		.4byte	0x1c27
 7035 1b98 23       		.uleb128 0x23
 7036 1b99 C9040000 		.4byte	.LASF73
 7037 1b9d 01       		.byte	0x1
 7038 1b9e D203     		.2byte	0x3d2
 7039 1ba0 1A0E0000 		.4byte	0xe1a
 7040 1ba4 02       		.uleb128 0x2
 7041 1ba5 91       		.byte	0x91
 7042 1ba6 74       		.sleb128 -12
 7043 1ba7 23       		.uleb128 0x23
 7044 1ba8 5F000000 		.4byte	.LASF74
 7045 1bac 01       		.byte	0x1
 7046 1bad D303     		.2byte	0x3d3
ARM GAS  C:\Users\ABAD_S~1\AppData\Local\Temp\cckPFQC2.s 			page 145


 7047 1baf 42000000 		.4byte	0x42
 7048 1bb3 02       		.uleb128 0x2
 7049 1bb4 91       		.byte	0x91
 7050 1bb5 73       		.sleb128 -13
 7051 1bb6 21       		.uleb128 0x21
 7052 1bb7 97010000 		.4byte	.LASF43
 7053 1bbb 01       		.byte	0x1
 7054 1bbc DA03     		.2byte	0x3da
 7055 1bbe 42000000 		.4byte	0x42
 7056 1bc2 98170000 		.4byte	.LLST125
 7057 1bc6 10       		.uleb128 0x10
 7058 1bc7 14000000 		.4byte	.LVL443
 7059 1bcb 80010000 		.4byte	0x180
 7060 1bcf DE1B0000 		.4byte	0x1bde
 7061 1bd3 11       		.uleb128 0x11
 7062 1bd4 01       		.uleb128 0x1
 7063 1bd5 50       		.byte	0x50
 7064 1bd6 01       		.uleb128 0x1
 7065 1bd7 42       		.byte	0x42
 7066 1bd8 11       		.uleb128 0x11
 7067 1bd9 01       		.uleb128 0x1
 7068 1bda 51       		.byte	0x51
 7069 1bdb 01       		.uleb128 0x1
 7070 1bdc 30       		.byte	0x30
 7071 1bdd 00       		.byte	0
 7072 1bde 10       		.uleb128 0x10
 7073 1bdf 1C000000 		.4byte	.LVL444
 7074 1be3 80010000 		.4byte	0x180
 7075 1be7 F61B0000 		.4byte	0x1bf6
 7076 1beb 11       		.uleb128 0x11
 7077 1bec 01       		.uleb128 0x1
 7078 1bed 50       		.byte	0x50
 7079 1bee 01       		.uleb128 0x1
 7080 1bef 43       		.byte	0x43
 7081 1bf0 11       		.uleb128 0x11
 7082 1bf1 01       		.uleb128 0x1
 7083 1bf2 51       		.byte	0x51
 7084 1bf3 01       		.uleb128 0x1
 7085 1bf4 30       		.byte	0x30
 7086 1bf5 00       		.byte	0
 7087 1bf6 10       		.uleb128 0x10
 7088 1bf7 24000000 		.4byte	.LVL445
 7089 1bfb 80010000 		.4byte	0x180
 7090 1bff 101C0000 		.4byte	0x1c10
 7091 1c03 11       		.uleb128 0x11
 7092 1c04 01       		.uleb128 0x1
 7093 1c05 50       		.byte	0x50
 7094 1c06 02       		.uleb128 0x2
 7095 1c07 08       		.byte	0x8
 7096 1c08 24       		.byte	0x24
 7097 1c09 11       		.uleb128 0x11
 7098 1c0a 01       		.uleb128 0x1
 7099 1c0b 51       		.byte	0x51
 7100 1c0c 02       		.uleb128 0x2
 7101 1c0d 08       		.byte	0x8
 7102 1c0e 26       		.byte	0x26
 7103 1c0f 00       		.byte	0
ARM GAS  C:\Users\ABAD_S~1\AppData\Local\Temp\cckPFQC2.s 			page 146


 7104 1c10 12       		.uleb128 0x12
 7105 1c11 2C000000 		.4byte	.LVL446
 7106 1c15 BA0F0000 		.4byte	0xfba
 7107 1c19 11       		.uleb128 0x11
 7108 1c1a 01       		.uleb128 0x1
 7109 1c1b 50       		.byte	0x50
 7110 1c1c 02       		.uleb128 0x2
 7111 1c1d 91       		.byte	0x91
 7112 1c1e 74       		.sleb128 -12
 7113 1c1f 11       		.uleb128 0x11
 7114 1c20 01       		.uleb128 0x1
 7115 1c21 51       		.byte	0x51
 7116 1c22 02       		.uleb128 0x2
 7117 1c23 74       		.byte	0x74
 7118 1c24 00       		.sleb128 0
 7119 1c25 00       		.byte	0
 7120 1c26 00       		.byte	0
 7121 1c27 1E       		.uleb128 0x1e
 7122 1c28 D7010000 		.4byte	.LASF118
 7123 1c2c 01       		.byte	0x1
 7124 1c2d E303     		.2byte	0x3e3
 7125 1c2f 7E080000 		.4byte	0x87e
 7126 1c33 00000000 		.4byte	.LFB71
 7127 1c37 18000000 		.4byte	.LFE71-.LFB71
 7128 1c3b 01       		.uleb128 0x1
 7129 1c3c 9C       		.byte	0x9c
 7130 1c3d 6A1C0000 		.4byte	0x1c6a
 7131 1c41 21       		.uleb128 0x21
 7132 1c42 97010000 		.4byte	.LASF43
 7133 1c46 01       		.byte	0x1
 7134 1c47 E403     		.2byte	0x3e4
 7135 1c49 42000000 		.4byte	0x42
 7136 1c4d CE170000 		.4byte	.LLST126
 7137 1c51 12       		.uleb128 0x12
 7138 1c52 0A000000 		.4byte	.LVL452
 7139 1c56 6C100000 		.4byte	0x106c
 7140 1c5a 11       		.uleb128 0x11
 7141 1c5b 01       		.uleb128 0x1
 7142 1c5c 50       		.byte	0x50
 7143 1c5d 05       		.uleb128 0x5
 7144 1c5e 03       		.byte	0x3
 7145 1c5f 00000000 		.4byte	uid
 7146 1c63 11       		.uleb128 0x11
 7147 1c64 01       		.uleb128 0x1
 7148 1c65 51       		.byte	0x51
 7149 1c66 01       		.uleb128 0x1
 7150 1c67 30       		.byte	0x30
 7151 1c68 00       		.byte	0
 7152 1c69 00       		.byte	0
 7153 1c6a 26       		.uleb128 0x26
 7154 1c6b 75696400 		.ascii	"uid\000"
 7155 1c6f 05       		.byte	0x5
 7156 1c70 40       		.byte	0x40
 7157 1c71 45010000 		.4byte	0x145
 7158 1c75 05       		.uleb128 0x5
 7159 1c76 03       		.byte	0x3
 7160 1c77 00000000 		.4byte	uid
ARM GAS  C:\Users\ABAD_S~1\AppData\Local\Temp\cckPFQC2.s 			page 147


 7161 1c7b 27       		.uleb128 0x27
 7162 1c7c 3F030000 		.4byte	.LASF119
 7163 1c80 01       		.byte	0x1
 7164 1c81 0D       		.byte	0xd
 7165 1c82 42000000 		.4byte	0x42
 7166 1c86 05       		.uleb128 0x5
 7167 1c87 03       		.byte	0x3
 7168 1c88 00000000 		.4byte	readData
 7169 1c8c 27       		.uleb128 0x27
 7170 1c8d F5020000 		.4byte	.LASF120
 7171 1c91 01       		.byte	0x1
 7172 1c92 0E       		.byte	0xe
 7173 1c93 42000000 		.4byte	0x42
 7174 1c97 05       		.uleb128 0x5
 7175 1c98 03       		.byte	0x3
 7176 1c99 00000000 		.4byte	readDummy
 7177 1c9d 28       		.uleb128 0x28
 7178 1c9e 17010000 		.4byte	.LASF121
 7179 1ca2 17010000 		.4byte	.LASF121
 7180 1ca6 06       		.byte	0x6
 7181 1ca7 66       		.byte	0x66
 7182 1ca8 28       		.uleb128 0x28
 7183 1ca9 EB040000 		.4byte	.LASF122
 7184 1cad EB040000 		.4byte	.LASF122
 7185 1cb1 06       		.byte	0x6
 7186 1cb2 64       		.byte	0x64
 7187 1cb3 28       		.uleb128 0x28
 7188 1cb4 81030000 		.4byte	.LASF123
 7189 1cb8 81030000 		.4byte	.LASF123
 7190 1cbc 06       		.byte	0x6
 7191 1cbd 5C       		.byte	0x5c
 7192 1cbe 28       		.uleb128 0x28
 7193 1cbf 40070000 		.4byte	.LASF124
 7194 1cc3 40070000 		.4byte	.LASF124
 7195 1cc7 06       		.byte	0x6
 7196 1cc8 5E       		.byte	0x5e
 7197 1cc9 28       		.uleb128 0x28
 7198 1cca 8D010000 		.4byte	.LASF125
 7199 1cce 8D010000 		.4byte	.LASF125
 7200 1cd2 07       		.byte	0x7
 7201 1cd3 DA       		.byte	0xda
 7202 1cd4 28       		.uleb128 0x28
 7203 1cd5 25010000 		.4byte	.LASF126
 7204 1cd9 25010000 		.4byte	.LASF126
 7205 1cdd 06       		.byte	0x6
 7206 1cde 60       		.byte	0x60
 7207 1cdf 28       		.uleb128 0x28
 7208 1ce0 21000000 		.4byte	.LASF127
 7209 1ce4 21000000 		.4byte	.LASF127
 7210 1ce8 07       		.byte	0x7
 7211 1ce9 D9       		.byte	0xd9
 7212 1cea 28       		.uleb128 0x28
 7213 1ceb 9E010000 		.4byte	.LASF128
 7214 1cef 9E010000 		.4byte	.LASF128
 7215 1cf3 06       		.byte	0x6
 7216 1cf4 4D       		.byte	0x4d
 7217 1cf5 28       		.uleb128 0x28
ARM GAS  C:\Users\ABAD_S~1\AppData\Local\Temp\cckPFQC2.s 			page 148


 7218 1cf6 5C050000 		.4byte	.LASF129
 7219 1cfa 5C050000 		.4byte	.LASF129
 7220 1cfe 08       		.byte	0x8
 7221 1cff 32       		.byte	0x32
 7222 1d00 28       		.uleb128 0x28
 7223 1d01 B6000000 		.4byte	.LASF130
 7224 1d05 B6000000 		.4byte	.LASF130
 7225 1d09 08       		.byte	0x8
 7226 1d0a 33       		.byte	0x33
 7227 1d0b 29       		.uleb128 0x29
 7228 1d0c 6E040000 		.4byte	.LASF131
 7229 1d10 6E040000 		.4byte	.LASF131
 7230 1d14 29       		.uleb128 0x29
 7231 1d15 E5060000 		.4byte	.LASF132
 7232 1d19 E5060000 		.4byte	.LASF132
 7233 1d1d 00       		.byte	0
 7234              		.section	.debug_abbrev,"",%progbits
 7235              	.Ldebug_abbrev0:
 7236 0000 01       		.uleb128 0x1
 7237 0001 11       		.uleb128 0x11
 7238 0002 01       		.byte	0x1
 7239 0003 25       		.uleb128 0x25
 7240 0004 0E       		.uleb128 0xe
 7241 0005 13       		.uleb128 0x13
 7242 0006 0B       		.uleb128 0xb
 7243 0007 03       		.uleb128 0x3
 7244 0008 0E       		.uleb128 0xe
 7245 0009 1B       		.uleb128 0x1b
 7246 000a 0E       		.uleb128 0xe
 7247 000b 55       		.uleb128 0x55
 7248 000c 17       		.uleb128 0x17
 7249 000d 11       		.uleb128 0x11
 7250 000e 01       		.uleb128 0x1
 7251 000f 10       		.uleb128 0x10
 7252 0010 17       		.uleb128 0x17
 7253 0011 00       		.byte	0
 7254 0012 00       		.byte	0
 7255 0013 02       		.uleb128 0x2
 7256 0014 16       		.uleb128 0x16
 7257 0015 00       		.byte	0
 7258 0016 03       		.uleb128 0x3
 7259 0017 0E       		.uleb128 0xe
 7260 0018 3A       		.uleb128 0x3a
 7261 0019 0B       		.uleb128 0xb
 7262 001a 3B       		.uleb128 0x3b
 7263 001b 0B       		.uleb128 0xb
 7264 001c 49       		.uleb128 0x49
 7265 001d 13       		.uleb128 0x13
 7266 001e 00       		.byte	0
 7267 001f 00       		.byte	0
 7268 0020 03       		.uleb128 0x3
 7269 0021 24       		.uleb128 0x24
 7270 0022 00       		.byte	0
 7271 0023 0B       		.uleb128 0xb
 7272 0024 0B       		.uleb128 0xb
 7273 0025 3E       		.uleb128 0x3e
 7274 0026 0B       		.uleb128 0xb
ARM GAS  C:\Users\ABAD_S~1\AppData\Local\Temp\cckPFQC2.s 			page 149


 7275 0027 03       		.uleb128 0x3
 7276 0028 0E       		.uleb128 0xe
 7277 0029 00       		.byte	0
 7278 002a 00       		.byte	0
 7279 002b 04       		.uleb128 0x4
 7280 002c 24       		.uleb128 0x24
 7281 002d 00       		.byte	0
 7282 002e 0B       		.uleb128 0xb
 7283 002f 0B       		.uleb128 0xb
 7284 0030 3E       		.uleb128 0x3e
 7285 0031 0B       		.uleb128 0xb
 7286 0032 03       		.uleb128 0x3
 7287 0033 08       		.uleb128 0x8
 7288 0034 00       		.byte	0
 7289 0035 00       		.byte	0
 7290 0036 05       		.uleb128 0x5
 7291 0037 16       		.uleb128 0x16
 7292 0038 00       		.byte	0
 7293 0039 03       		.uleb128 0x3
 7294 003a 0E       		.uleb128 0xe
 7295 003b 3A       		.uleb128 0x3a
 7296 003c 0B       		.uleb128 0xb
 7297 003d 3B       		.uleb128 0x3b
 7298 003e 05       		.uleb128 0x5
 7299 003f 49       		.uleb128 0x49
 7300 0040 13       		.uleb128 0x13
 7301 0041 00       		.byte	0
 7302 0042 00       		.byte	0
 7303 0043 06       		.uleb128 0x6
 7304 0044 01       		.uleb128 0x1
 7305 0045 01       		.byte	0x1
 7306 0046 49       		.uleb128 0x49
 7307 0047 13       		.uleb128 0x13
 7308 0048 01       		.uleb128 0x1
 7309 0049 13       		.uleb128 0x13
 7310 004a 00       		.byte	0
 7311 004b 00       		.byte	0
 7312 004c 07       		.uleb128 0x7
 7313 004d 21       		.uleb128 0x21
 7314 004e 00       		.byte	0
 7315 004f 49       		.uleb128 0x49
 7316 0050 13       		.uleb128 0x13
 7317 0051 2F       		.uleb128 0x2f
 7318 0052 0B       		.uleb128 0xb
 7319 0053 00       		.byte	0
 7320 0054 00       		.byte	0
 7321 0055 08       		.uleb128 0x8
 7322 0056 0F       		.uleb128 0xf
 7323 0057 00       		.byte	0
 7324 0058 0B       		.uleb128 0xb
 7325 0059 0B       		.uleb128 0xb
 7326 005a 49       		.uleb128 0x49
 7327 005b 13       		.uleb128 0x13
 7328 005c 00       		.byte	0
 7329 005d 00       		.byte	0
 7330 005e 09       		.uleb128 0x9
 7331 005f 13       		.uleb128 0x13
ARM GAS  C:\Users\ABAD_S~1\AppData\Local\Temp\cckPFQC2.s 			page 150


 7332 0060 01       		.byte	0x1
 7333 0061 0B       		.uleb128 0xb
 7334 0062 0B       		.uleb128 0xb
 7335 0063 3A       		.uleb128 0x3a
 7336 0064 0B       		.uleb128 0xb
 7337 0065 3B       		.uleb128 0x3b
 7338 0066 0B       		.uleb128 0xb
 7339 0067 01       		.uleb128 0x1
 7340 0068 13       		.uleb128 0x13
 7341 0069 00       		.byte	0
 7342 006a 00       		.byte	0
 7343 006b 0A       		.uleb128 0xa
 7344 006c 0D       		.uleb128 0xd
 7345 006d 00       		.byte	0
 7346 006e 03       		.uleb128 0x3
 7347 006f 0E       		.uleb128 0xe
 7348 0070 3A       		.uleb128 0x3a
 7349 0071 0B       		.uleb128 0xb
 7350 0072 3B       		.uleb128 0x3b
 7351 0073 0B       		.uleb128 0xb
 7352 0074 49       		.uleb128 0x49
 7353 0075 13       		.uleb128 0x13
 7354 0076 38       		.uleb128 0x38
 7355 0077 0B       		.uleb128 0xb
 7356 0078 00       		.byte	0
 7357 0079 00       		.byte	0
 7358 007a 0B       		.uleb128 0xb
 7359 007b 0D       		.uleb128 0xd
 7360 007c 00       		.byte	0
 7361 007d 03       		.uleb128 0x3
 7362 007e 08       		.uleb128 0x8
 7363 007f 3A       		.uleb128 0x3a
 7364 0080 0B       		.uleb128 0xb
 7365 0081 3B       		.uleb128 0x3b
 7366 0082 0B       		.uleb128 0xb
 7367 0083 49       		.uleb128 0x49
 7368 0084 13       		.uleb128 0x13
 7369 0085 38       		.uleb128 0x38
 7370 0086 0B       		.uleb128 0xb
 7371 0087 00       		.byte	0
 7372 0088 00       		.byte	0
 7373 0089 0C       		.uleb128 0xc
 7374 008a 16       		.uleb128 0x16
 7375 008b 00       		.byte	0
 7376 008c 03       		.uleb128 0x3
 7377 008d 08       		.uleb128 0x8
 7378 008e 3A       		.uleb128 0x3a
 7379 008f 0B       		.uleb128 0xb
 7380 0090 3B       		.uleb128 0x3b
 7381 0091 0B       		.uleb128 0xb
 7382 0092 49       		.uleb128 0x49
 7383 0093 13       		.uleb128 0x13
 7384 0094 00       		.byte	0
 7385 0095 00       		.byte	0
 7386 0096 0D       		.uleb128 0xd
 7387 0097 2E       		.uleb128 0x2e
 7388 0098 01       		.byte	0x1
ARM GAS  C:\Users\ABAD_S~1\AppData\Local\Temp\cckPFQC2.s 			page 151


 7389 0099 3F       		.uleb128 0x3f
 7390 009a 19       		.uleb128 0x19
 7391 009b 03       		.uleb128 0x3
 7392 009c 0E       		.uleb128 0xe
 7393 009d 3A       		.uleb128 0x3a
 7394 009e 0B       		.uleb128 0xb
 7395 009f 3B       		.uleb128 0x3b
 7396 00a0 0B       		.uleb128 0xb
 7397 00a1 27       		.uleb128 0x27
 7398 00a2 19       		.uleb128 0x19
 7399 00a3 11       		.uleb128 0x11
 7400 00a4 01       		.uleb128 0x1
 7401 00a5 12       		.uleb128 0x12
 7402 00a6 06       		.uleb128 0x6
 7403 00a7 40       		.uleb128 0x40
 7404 00a8 18       		.uleb128 0x18
 7405 00a9 9742     		.uleb128 0x2117
 7406 00ab 19       		.uleb128 0x19
 7407 00ac 01       		.uleb128 0x1
 7408 00ad 13       		.uleb128 0x13
 7409 00ae 00       		.byte	0
 7410 00af 00       		.byte	0
 7411 00b0 0E       		.uleb128 0xe
 7412 00b1 05       		.uleb128 0x5
 7413 00b2 00       		.byte	0
 7414 00b3 03       		.uleb128 0x3
 7415 00b4 0E       		.uleb128 0xe
 7416 00b5 3A       		.uleb128 0x3a
 7417 00b6 0B       		.uleb128 0xb
 7418 00b7 3B       		.uleb128 0x3b
 7419 00b8 0B       		.uleb128 0xb
 7420 00b9 49       		.uleb128 0x49
 7421 00ba 13       		.uleb128 0x13
 7422 00bb 02       		.uleb128 0x2
 7423 00bc 17       		.uleb128 0x17
 7424 00bd 00       		.byte	0
 7425 00be 00       		.byte	0
 7426 00bf 0F       		.uleb128 0xf
 7427 00c0 898201   		.uleb128 0x4109
 7428 00c3 00       		.byte	0
 7429 00c4 11       		.uleb128 0x11
 7430 00c5 01       		.uleb128 0x1
 7431 00c6 31       		.uleb128 0x31
 7432 00c7 13       		.uleb128 0x13
 7433 00c8 00       		.byte	0
 7434 00c9 00       		.byte	0
 7435 00ca 10       		.uleb128 0x10
 7436 00cb 898201   		.uleb128 0x4109
 7437 00ce 01       		.byte	0x1
 7438 00cf 11       		.uleb128 0x11
 7439 00d0 01       		.uleb128 0x1
 7440 00d1 31       		.uleb128 0x31
 7441 00d2 13       		.uleb128 0x13
 7442 00d3 01       		.uleb128 0x1
 7443 00d4 13       		.uleb128 0x13
 7444 00d5 00       		.byte	0
 7445 00d6 00       		.byte	0
ARM GAS  C:\Users\ABAD_S~1\AppData\Local\Temp\cckPFQC2.s 			page 152


 7446 00d7 11       		.uleb128 0x11
 7447 00d8 8A8201   		.uleb128 0x410a
 7448 00db 00       		.byte	0
 7449 00dc 02       		.uleb128 0x2
 7450 00dd 18       		.uleb128 0x18
 7451 00de 9142     		.uleb128 0x2111
 7452 00e0 18       		.uleb128 0x18
 7453 00e1 00       		.byte	0
 7454 00e2 00       		.byte	0
 7455 00e3 12       		.uleb128 0x12
 7456 00e4 898201   		.uleb128 0x4109
 7457 00e7 01       		.byte	0x1
 7458 00e8 11       		.uleb128 0x11
 7459 00e9 01       		.uleb128 0x1
 7460 00ea 31       		.uleb128 0x31
 7461 00eb 13       		.uleb128 0x13
 7462 00ec 00       		.byte	0
 7463 00ed 00       		.byte	0
 7464 00ee 13       		.uleb128 0x13
 7465 00ef 0B       		.uleb128 0xb
 7466 00f0 01       		.byte	0x1
 7467 00f1 11       		.uleb128 0x11
 7468 00f2 01       		.uleb128 0x1
 7469 00f3 12       		.uleb128 0x12
 7470 00f4 06       		.uleb128 0x6
 7471 00f5 01       		.uleb128 0x1
 7472 00f6 13       		.uleb128 0x13
 7473 00f7 00       		.byte	0
 7474 00f8 00       		.byte	0
 7475 00f9 14       		.uleb128 0x14
 7476 00fa 34       		.uleb128 0x34
 7477 00fb 00       		.byte	0
 7478 00fc 03       		.uleb128 0x3
 7479 00fd 0E       		.uleb128 0xe
 7480 00fe 3A       		.uleb128 0x3a
 7481 00ff 0B       		.uleb128 0xb
 7482 0100 3B       		.uleb128 0x3b
 7483 0101 0B       		.uleb128 0xb
 7484 0102 49       		.uleb128 0x49
 7485 0103 13       		.uleb128 0x13
 7486 0104 02       		.uleb128 0x2
 7487 0105 17       		.uleb128 0x17
 7488 0106 00       		.byte	0
 7489 0107 00       		.byte	0
 7490 0108 15       		.uleb128 0x15
 7491 0109 2E       		.uleb128 0x2e
 7492 010a 01       		.byte	0x1
 7493 010b 3F       		.uleb128 0x3f
 7494 010c 19       		.uleb128 0x19
 7495 010d 03       		.uleb128 0x3
 7496 010e 0E       		.uleb128 0xe
 7497 010f 3A       		.uleb128 0x3a
 7498 0110 0B       		.uleb128 0xb
 7499 0111 3B       		.uleb128 0x3b
 7500 0112 0B       		.uleb128 0xb
 7501 0113 27       		.uleb128 0x27
 7502 0114 19       		.uleb128 0x19
ARM GAS  C:\Users\ABAD_S~1\AppData\Local\Temp\cckPFQC2.s 			page 153


 7503 0115 49       		.uleb128 0x49
 7504 0116 13       		.uleb128 0x13
 7505 0117 11       		.uleb128 0x11
 7506 0118 01       		.uleb128 0x1
 7507 0119 12       		.uleb128 0x12
 7508 011a 06       		.uleb128 0x6
 7509 011b 40       		.uleb128 0x40
 7510 011c 18       		.uleb128 0x18
 7511 011d 9742     		.uleb128 0x2117
 7512 011f 19       		.uleb128 0x19
 7513 0120 01       		.uleb128 0x1
 7514 0121 13       		.uleb128 0x13
 7515 0122 00       		.byte	0
 7516 0123 00       		.byte	0
 7517 0124 16       		.uleb128 0x16
 7518 0125 34       		.uleb128 0x34
 7519 0126 00       		.byte	0
 7520 0127 03       		.uleb128 0x3
 7521 0128 0E       		.uleb128 0xe
 7522 0129 3A       		.uleb128 0x3a
 7523 012a 0B       		.uleb128 0xb
 7524 012b 3B       		.uleb128 0x3b
 7525 012c 0B       		.uleb128 0xb
 7526 012d 49       		.uleb128 0x49
 7527 012e 13       		.uleb128 0x13
 7528 012f 02       		.uleb128 0x2
 7529 0130 18       		.uleb128 0x18
 7530 0131 00       		.byte	0
 7531 0132 00       		.byte	0
 7532 0133 17       		.uleb128 0x17
 7533 0134 05       		.uleb128 0x5
 7534 0135 00       		.byte	0
 7535 0136 03       		.uleb128 0x3
 7536 0137 08       		.uleb128 0x8
 7537 0138 3A       		.uleb128 0x3a
 7538 0139 0B       		.uleb128 0xb
 7539 013a 3B       		.uleb128 0x3b
 7540 013b 0B       		.uleb128 0xb
 7541 013c 49       		.uleb128 0x49
 7542 013d 13       		.uleb128 0x13
 7543 013e 02       		.uleb128 0x2
 7544 013f 17       		.uleb128 0x17
 7545 0140 00       		.byte	0
 7546 0141 00       		.byte	0
 7547 0142 18       		.uleb128 0x18
 7548 0143 34       		.uleb128 0x34
 7549 0144 00       		.byte	0
 7550 0145 03       		.uleb128 0x3
 7551 0146 08       		.uleb128 0x8
 7552 0147 3A       		.uleb128 0x3a
 7553 0148 0B       		.uleb128 0xb
 7554 0149 3B       		.uleb128 0x3b
 7555 014a 0B       		.uleb128 0xb
 7556 014b 49       		.uleb128 0x49
 7557 014c 13       		.uleb128 0x13
 7558 014d 02       		.uleb128 0x2
 7559 014e 17       		.uleb128 0x17
ARM GAS  C:\Users\ABAD_S~1\AppData\Local\Temp\cckPFQC2.s 			page 154


 7560 014f 00       		.byte	0
 7561 0150 00       		.byte	0
 7562 0151 19       		.uleb128 0x19
 7563 0152 0B       		.uleb128 0xb
 7564 0153 01       		.byte	0x1
 7565 0154 11       		.uleb128 0x11
 7566 0155 01       		.uleb128 0x1
 7567 0156 12       		.uleb128 0x12
 7568 0157 06       		.uleb128 0x6
 7569 0158 00       		.byte	0
 7570 0159 00       		.byte	0
 7571 015a 1A       		.uleb128 0x1a
 7572 015b 34       		.uleb128 0x34
 7573 015c 00       		.byte	0
 7574 015d 03       		.uleb128 0x3
 7575 015e 0E       		.uleb128 0xe
 7576 015f 3A       		.uleb128 0x3a
 7577 0160 0B       		.uleb128 0xb
 7578 0161 3B       		.uleb128 0x3b
 7579 0162 0B       		.uleb128 0xb
 7580 0163 49       		.uleb128 0x49
 7581 0164 13       		.uleb128 0x13
 7582 0165 1C       		.uleb128 0x1c
 7583 0166 0B       		.uleb128 0xb
 7584 0167 00       		.byte	0
 7585 0168 00       		.byte	0
 7586 0169 1B       		.uleb128 0x1b
 7587 016a 2E       		.uleb128 0x2e
 7588 016b 01       		.byte	0x1
 7589 016c 3F       		.uleb128 0x3f
 7590 016d 19       		.uleb128 0x19
 7591 016e 03       		.uleb128 0x3
 7592 016f 0E       		.uleb128 0xe
 7593 0170 3A       		.uleb128 0x3a
 7594 0171 0B       		.uleb128 0xb
 7595 0172 3B       		.uleb128 0x3b
 7596 0173 0B       		.uleb128 0xb
 7597 0174 49       		.uleb128 0x49
 7598 0175 13       		.uleb128 0x13
 7599 0176 11       		.uleb128 0x11
 7600 0177 01       		.uleb128 0x1
 7601 0178 12       		.uleb128 0x12
 7602 0179 06       		.uleb128 0x6
 7603 017a 40       		.uleb128 0x40
 7604 017b 18       		.uleb128 0x18
 7605 017c 9742     		.uleb128 0x2117
 7606 017e 19       		.uleb128 0x19
 7607 017f 01       		.uleb128 0x1
 7608 0180 13       		.uleb128 0x13
 7609 0181 00       		.byte	0
 7610 0182 00       		.byte	0
 7611 0183 1C       		.uleb128 0x1c
 7612 0184 2E       		.uleb128 0x2e
 7613 0185 01       		.byte	0x1
 7614 0186 3F       		.uleb128 0x3f
 7615 0187 19       		.uleb128 0x19
 7616 0188 03       		.uleb128 0x3
ARM GAS  C:\Users\ABAD_S~1\AppData\Local\Temp\cckPFQC2.s 			page 155


 7617 0189 0E       		.uleb128 0xe
 7618 018a 3A       		.uleb128 0x3a
 7619 018b 0B       		.uleb128 0xb
 7620 018c 3B       		.uleb128 0x3b
 7621 018d 05       		.uleb128 0x5
 7622 018e 27       		.uleb128 0x27
 7623 018f 19       		.uleb128 0x19
 7624 0190 11       		.uleb128 0x11
 7625 0191 01       		.uleb128 0x1
 7626 0192 12       		.uleb128 0x12
 7627 0193 06       		.uleb128 0x6
 7628 0194 40       		.uleb128 0x40
 7629 0195 18       		.uleb128 0x18
 7630 0196 9742     		.uleb128 0x2117
 7631 0198 19       		.uleb128 0x19
 7632 0199 01       		.uleb128 0x1
 7633 019a 13       		.uleb128 0x13
 7634 019b 00       		.byte	0
 7635 019c 00       		.byte	0
 7636 019d 1D       		.uleb128 0x1d
 7637 019e 34       		.uleb128 0x34
 7638 019f 00       		.byte	0
 7639 01a0 03       		.uleb128 0x3
 7640 01a1 08       		.uleb128 0x8
 7641 01a2 3A       		.uleb128 0x3a
 7642 01a3 0B       		.uleb128 0xb
 7643 01a4 3B       		.uleb128 0x3b
 7644 01a5 05       		.uleb128 0x5
 7645 01a6 49       		.uleb128 0x49
 7646 01a7 13       		.uleb128 0x13
 7647 01a8 02       		.uleb128 0x2
 7648 01a9 17       		.uleb128 0x17
 7649 01aa 00       		.byte	0
 7650 01ab 00       		.byte	0
 7651 01ac 1E       		.uleb128 0x1e
 7652 01ad 2E       		.uleb128 0x2e
 7653 01ae 01       		.byte	0x1
 7654 01af 3F       		.uleb128 0x3f
 7655 01b0 19       		.uleb128 0x19
 7656 01b1 03       		.uleb128 0x3
 7657 01b2 0E       		.uleb128 0xe
 7658 01b3 3A       		.uleb128 0x3a
 7659 01b4 0B       		.uleb128 0xb
 7660 01b5 3B       		.uleb128 0x3b
 7661 01b6 05       		.uleb128 0x5
 7662 01b7 27       		.uleb128 0x27
 7663 01b8 19       		.uleb128 0x19
 7664 01b9 49       		.uleb128 0x49
 7665 01ba 13       		.uleb128 0x13
 7666 01bb 11       		.uleb128 0x11
 7667 01bc 01       		.uleb128 0x1
 7668 01bd 12       		.uleb128 0x12
 7669 01be 06       		.uleb128 0x6
 7670 01bf 40       		.uleb128 0x40
 7671 01c0 18       		.uleb128 0x18
 7672 01c1 9742     		.uleb128 0x2117
 7673 01c3 19       		.uleb128 0x19
ARM GAS  C:\Users\ABAD_S~1\AppData\Local\Temp\cckPFQC2.s 			page 156


 7674 01c4 01       		.uleb128 0x1
 7675 01c5 13       		.uleb128 0x13
 7676 01c6 00       		.byte	0
 7677 01c7 00       		.byte	0
 7678 01c8 1F       		.uleb128 0x1f
 7679 01c9 05       		.uleb128 0x5
 7680 01ca 00       		.byte	0
 7681 01cb 03       		.uleb128 0x3
 7682 01cc 0E       		.uleb128 0xe
 7683 01cd 3A       		.uleb128 0x3a
 7684 01ce 0B       		.uleb128 0xb
 7685 01cf 3B       		.uleb128 0x3b
 7686 01d0 05       		.uleb128 0x5
 7687 01d1 49       		.uleb128 0x49
 7688 01d2 13       		.uleb128 0x13
 7689 01d3 02       		.uleb128 0x2
 7690 01d4 17       		.uleb128 0x17
 7691 01d5 00       		.byte	0
 7692 01d6 00       		.byte	0
 7693 01d7 20       		.uleb128 0x20
 7694 01d8 05       		.uleb128 0x5
 7695 01d9 00       		.byte	0
 7696 01da 03       		.uleb128 0x3
 7697 01db 0E       		.uleb128 0xe
 7698 01dc 3A       		.uleb128 0x3a
 7699 01dd 0B       		.uleb128 0xb
 7700 01de 3B       		.uleb128 0x3b
 7701 01df 05       		.uleb128 0x5
 7702 01e0 49       		.uleb128 0x49
 7703 01e1 13       		.uleb128 0x13
 7704 01e2 02       		.uleb128 0x2
 7705 01e3 18       		.uleb128 0x18
 7706 01e4 00       		.byte	0
 7707 01e5 00       		.byte	0
 7708 01e6 21       		.uleb128 0x21
 7709 01e7 34       		.uleb128 0x34
 7710 01e8 00       		.byte	0
 7711 01e9 03       		.uleb128 0x3
 7712 01ea 0E       		.uleb128 0xe
 7713 01eb 3A       		.uleb128 0x3a
 7714 01ec 0B       		.uleb128 0xb
 7715 01ed 3B       		.uleb128 0x3b
 7716 01ee 05       		.uleb128 0x5
 7717 01ef 49       		.uleb128 0x49
 7718 01f0 13       		.uleb128 0x13
 7719 01f1 02       		.uleb128 0x2
 7720 01f2 17       		.uleb128 0x17
 7721 01f3 00       		.byte	0
 7722 01f4 00       		.byte	0
 7723 01f5 22       		.uleb128 0x22
 7724 01f6 0B       		.uleb128 0xb
 7725 01f7 01       		.byte	0x1
 7726 01f8 55       		.uleb128 0x55
 7727 01f9 17       		.uleb128 0x17
 7728 01fa 01       		.uleb128 0x1
 7729 01fb 13       		.uleb128 0x13
 7730 01fc 00       		.byte	0
ARM GAS  C:\Users\ABAD_S~1\AppData\Local\Temp\cckPFQC2.s 			page 157


 7731 01fd 00       		.byte	0
 7732 01fe 23       		.uleb128 0x23
 7733 01ff 34       		.uleb128 0x34
 7734 0200 00       		.byte	0
 7735 0201 03       		.uleb128 0x3
 7736 0202 0E       		.uleb128 0xe
 7737 0203 3A       		.uleb128 0x3a
 7738 0204 0B       		.uleb128 0xb
 7739 0205 3B       		.uleb128 0x3b
 7740 0206 05       		.uleb128 0x5
 7741 0207 49       		.uleb128 0x49
 7742 0208 13       		.uleb128 0x13
 7743 0209 02       		.uleb128 0x2
 7744 020a 18       		.uleb128 0x18
 7745 020b 00       		.byte	0
 7746 020c 00       		.byte	0
 7747 020d 24       		.uleb128 0x24
 7748 020e 34       		.uleb128 0x34
 7749 020f 00       		.byte	0
 7750 0210 03       		.uleb128 0x3
 7751 0211 0E       		.uleb128 0xe
 7752 0212 3A       		.uleb128 0x3a
 7753 0213 0B       		.uleb128 0xb
 7754 0214 3B       		.uleb128 0x3b
 7755 0215 05       		.uleb128 0x5
 7756 0216 49       		.uleb128 0x49
 7757 0217 13       		.uleb128 0x13
 7758 0218 1C       		.uleb128 0x1c
 7759 0219 0B       		.uleb128 0xb
 7760 021a 00       		.byte	0
 7761 021b 00       		.byte	0
 7762 021c 25       		.uleb128 0x25
 7763 021d 05       		.uleb128 0x5
 7764 021e 00       		.byte	0
 7765 021f 03       		.uleb128 0x3
 7766 0220 08       		.uleb128 0x8
 7767 0221 3A       		.uleb128 0x3a
 7768 0222 0B       		.uleb128 0xb
 7769 0223 3B       		.uleb128 0x3b
 7770 0224 05       		.uleb128 0x5
 7771 0225 49       		.uleb128 0x49
 7772 0226 13       		.uleb128 0x13
 7773 0227 02       		.uleb128 0x2
 7774 0228 17       		.uleb128 0x17
 7775 0229 00       		.byte	0
 7776 022a 00       		.byte	0
 7777 022b 26       		.uleb128 0x26
 7778 022c 34       		.uleb128 0x34
 7779 022d 00       		.byte	0
 7780 022e 03       		.uleb128 0x3
 7781 022f 08       		.uleb128 0x8
 7782 0230 3A       		.uleb128 0x3a
 7783 0231 0B       		.uleb128 0xb
 7784 0232 3B       		.uleb128 0x3b
 7785 0233 0B       		.uleb128 0xb
 7786 0234 49       		.uleb128 0x49
 7787 0235 13       		.uleb128 0x13
ARM GAS  C:\Users\ABAD_S~1\AppData\Local\Temp\cckPFQC2.s 			page 158


 7788 0236 3F       		.uleb128 0x3f
 7789 0237 19       		.uleb128 0x19
 7790 0238 02       		.uleb128 0x2
 7791 0239 18       		.uleb128 0x18
 7792 023a 00       		.byte	0
 7793 023b 00       		.byte	0
 7794 023c 27       		.uleb128 0x27
 7795 023d 34       		.uleb128 0x34
 7796 023e 00       		.byte	0
 7797 023f 03       		.uleb128 0x3
 7798 0240 0E       		.uleb128 0xe
 7799 0241 3A       		.uleb128 0x3a
 7800 0242 0B       		.uleb128 0xb
 7801 0243 3B       		.uleb128 0x3b
 7802 0244 0B       		.uleb128 0xb
 7803 0245 49       		.uleb128 0x49
 7804 0246 13       		.uleb128 0x13
 7805 0247 3F       		.uleb128 0x3f
 7806 0248 19       		.uleb128 0x19
 7807 0249 02       		.uleb128 0x2
 7808 024a 18       		.uleb128 0x18
 7809 024b 00       		.byte	0
 7810 024c 00       		.byte	0
 7811 024d 28       		.uleb128 0x28
 7812 024e 2E       		.uleb128 0x2e
 7813 024f 00       		.byte	0
 7814 0250 3F       		.uleb128 0x3f
 7815 0251 19       		.uleb128 0x19
 7816 0252 3C       		.uleb128 0x3c
 7817 0253 19       		.uleb128 0x19
 7818 0254 6E       		.uleb128 0x6e
 7819 0255 0E       		.uleb128 0xe
 7820 0256 03       		.uleb128 0x3
 7821 0257 0E       		.uleb128 0xe
 7822 0258 3A       		.uleb128 0x3a
 7823 0259 0B       		.uleb128 0xb
 7824 025a 3B       		.uleb128 0x3b
 7825 025b 0B       		.uleb128 0xb
 7826 025c 00       		.byte	0
 7827 025d 00       		.byte	0
 7828 025e 29       		.uleb128 0x29
 7829 025f 2E       		.uleb128 0x2e
 7830 0260 00       		.byte	0
 7831 0261 3F       		.uleb128 0x3f
 7832 0262 19       		.uleb128 0x19
 7833 0263 3C       		.uleb128 0x3c
 7834 0264 19       		.uleb128 0x19
 7835 0265 6E       		.uleb128 0x6e
 7836 0266 0E       		.uleb128 0xe
 7837 0267 03       		.uleb128 0x3
 7838 0268 0E       		.uleb128 0xe
 7839 0269 00       		.byte	0
 7840 026a 00       		.byte	0
 7841 026b 00       		.byte	0
 7842              		.section	.debug_loc,"",%progbits
 7843              	.Ldebug_loc0:
 7844              	.LLST0:
ARM GAS  C:\Users\ABAD_S~1\AppData\Local\Temp\cckPFQC2.s 			page 159


 7845 0000 00000000 		.4byte	.LVL0
 7846 0004 09000000 		.4byte	.LVL1-1
 7847 0008 0100     		.2byte	0x1
 7848 000a 50       		.byte	0x50
 7849 000b 09000000 		.4byte	.LVL1-1
 7850 000f 38000000 		.4byte	.LFE33
 7851 0013 0400     		.2byte	0x4
 7852 0015 F3       		.byte	0xf3
 7853 0016 01       		.uleb128 0x1
 7854 0017 50       		.byte	0x50
 7855 0018 9F       		.byte	0x9f
 7856 0019 00000000 		.4byte	0
 7857 001d 00000000 		.4byte	0
 7858              	.LLST1:
 7859 0021 00000000 		.4byte	.LVL0
 7860 0025 09000000 		.4byte	.LVL1-1
 7861 0029 0100     		.2byte	0x1
 7862 002b 51       		.byte	0x51
 7863 002c 09000000 		.4byte	.LVL1-1
 7864 0030 38000000 		.4byte	.LFE33
 7865 0034 0400     		.2byte	0x4
 7866 0036 F3       		.byte	0xf3
 7867 0037 01       		.uleb128 0x1
 7868 0038 51       		.byte	0x51
 7869 0039 9F       		.byte	0x9f
 7870 003a 00000000 		.4byte	0
 7871 003e 00000000 		.4byte	0
 7872              	.LLST2:
 7873 0042 00000000 		.4byte	.LVL8
 7874 0046 08000000 		.4byte	.LVL9
 7875 004a 0100     		.2byte	0x1
 7876 004c 50       		.byte	0x50
 7877 004d 08000000 		.4byte	.LVL9
 7878 0051 36000000 		.4byte	.LFE34
 7879 0055 0400     		.2byte	0x4
 7880 0057 F3       		.byte	0xf3
 7881 0058 01       		.uleb128 0x1
 7882 0059 50       		.byte	0x50
 7883 005a 9F       		.byte	0x9f
 7884 005b 00000000 		.4byte	0
 7885 005f 00000000 		.4byte	0
 7886              	.LLST3:
 7887 0063 00000000 		.4byte	.LVL8
 7888 0067 08000000 		.4byte	.LVL9
 7889 006b 0100     		.2byte	0x1
 7890 006d 51       		.byte	0x51
 7891 006e 08000000 		.4byte	.LVL9
 7892 0072 36000000 		.4byte	.LFE34
 7893 0076 0400     		.2byte	0x4
 7894 0078 F3       		.byte	0xf3
 7895 0079 01       		.uleb128 0x1
 7896 007a 51       		.byte	0x51
 7897 007b 9F       		.byte	0x9f
 7898 007c 00000000 		.4byte	0
 7899 0080 00000000 		.4byte	0
 7900              	.LLST4:
 7901 0084 00000000 		.4byte	.LVL8
ARM GAS  C:\Users\ABAD_S~1\AppData\Local\Temp\cckPFQC2.s 			page 160


 7902 0088 08000000 		.4byte	.LVL9
 7903 008c 0100     		.2byte	0x1
 7904 008e 52       		.byte	0x52
 7905 008f 08000000 		.4byte	.LVL9
 7906 0093 34000000 		.4byte	.LVL18
 7907 0097 0100     		.2byte	0x1
 7908 0099 56       		.byte	0x56
 7909 009a 34000000 		.4byte	.LVL18
 7910 009e 36000000 		.4byte	.LFE34
 7911 00a2 0400     		.2byte	0x4
 7912 00a4 F3       		.byte	0xf3
 7913 00a5 01       		.uleb128 0x1
 7914 00a6 52       		.byte	0x52
 7915 00a7 9F       		.byte	0x9f
 7916 00a8 00000000 		.4byte	0
 7917 00ac 00000000 		.4byte	0
 7918              	.LLST5:
 7919 00b0 1A000000 		.4byte	.LVL11
 7920 00b4 1E000000 		.4byte	.LVL12
 7921 00b8 0200     		.2byte	0x2
 7922 00ba 30       		.byte	0x30
 7923 00bb 9F       		.byte	0x9f
 7924 00bc 1E000000 		.4byte	.LVL12
 7925 00c0 2E000000 		.4byte	.LVL15
 7926 00c4 0100     		.2byte	0x1
 7927 00c6 54       		.byte	0x54
 7928 00c7 30000000 		.4byte	.LVL16
 7929 00cb 34000000 		.4byte	.LVL17
 7930 00cf 0100     		.2byte	0x1
 7931 00d1 54       		.byte	0x54
 7932 00d2 00000000 		.4byte	0
 7933 00d6 00000000 		.4byte	0
 7934              	.LLST6:
 7935 00da 00000000 		.4byte	.LVL19
 7936 00de 07000000 		.4byte	.LVL20-1
 7937 00e2 0100     		.2byte	0x1
 7938 00e4 50       		.byte	0x50
 7939 00e5 07000000 		.4byte	.LVL20-1
 7940 00e9 3C000000 		.4byte	.LFE35
 7941 00ed 0400     		.2byte	0x4
 7942 00ef F3       		.byte	0xf3
 7943 00f0 01       		.uleb128 0x1
 7944 00f1 50       		.byte	0x50
 7945 00f2 9F       		.byte	0x9f
 7946 00f3 00000000 		.4byte	0
 7947 00f7 00000000 		.4byte	0
 7948              	.LLST7:
 7949 00fb 00000000 		.4byte	.LVL28
 7950 00ff 12000000 		.4byte	.LVL31
 7951 0103 0100     		.2byte	0x1
 7952 0105 50       		.byte	0x50
 7953 0106 12000000 		.4byte	.LVL31
 7954 010a 8E000000 		.4byte	.LFE36
 7955 010e 0400     		.2byte	0x4
 7956 0110 F3       		.byte	0xf3
 7957 0111 01       		.uleb128 0x1
 7958 0112 50       		.byte	0x50
ARM GAS  C:\Users\ABAD_S~1\AppData\Local\Temp\cckPFQC2.s 			page 161


 7959 0113 9F       		.byte	0x9f
 7960 0114 00000000 		.4byte	0
 7961 0118 00000000 		.4byte	0
 7962              	.LLST8:
 7963 011c 00000000 		.4byte	.LVL28
 7964 0120 10000000 		.4byte	.LVL30
 7965 0124 0100     		.2byte	0x1
 7966 0126 51       		.byte	0x51
 7967 0127 10000000 		.4byte	.LVL30
 7968 012b 12000000 		.4byte	.LVL31
 7969 012f 0400     		.2byte	0x4
 7970 0131 F3       		.byte	0xf3
 7971 0132 01       		.uleb128 0x1
 7972 0133 51       		.byte	0x51
 7973 0134 9F       		.byte	0x9f
 7974 0135 12000000 		.4byte	.LVL31
 7975 0139 8A000000 		.4byte	.LVL50
 7976 013d 0100     		.2byte	0x1
 7977 013f 57       		.byte	0x57
 7978 0140 00000000 		.4byte	0
 7979 0144 00000000 		.4byte	0
 7980              	.LLST9:
 7981 0148 00000000 		.4byte	.LVL28
 7982 014c 12000000 		.4byte	.LVL31
 7983 0150 0100     		.2byte	0x1
 7984 0152 52       		.byte	0x52
 7985 0153 12000000 		.4byte	.LVL31
 7986 0157 8C000000 		.4byte	.LVL51
 7987 015b 0100     		.2byte	0x1
 7988 015d 55       		.byte	0x55
 7989 015e 8C000000 		.4byte	.LVL51
 7990 0162 8E000000 		.4byte	.LFE36
 7991 0166 0400     		.2byte	0x4
 7992 0168 F3       		.byte	0xf3
 7993 0169 01       		.uleb128 0x1
 7994 016a 52       		.byte	0x52
 7995 016b 9F       		.byte	0x9f
 7996 016c 00000000 		.4byte	0
 7997 0170 00000000 		.4byte	0
 7998              	.LLST10:
 7999 0174 00000000 		.4byte	.LVL28
 8000 0178 12000000 		.4byte	.LVL31
 8001 017c 0100     		.2byte	0x1
 8002 017e 53       		.byte	0x53
 8003 017f 12000000 		.4byte	.LVL31
 8004 0183 8E000000 		.4byte	.LFE36
 8005 0187 0400     		.2byte	0x4
 8006 0189 F3       		.byte	0xf3
 8007 018a 01       		.uleb128 0x1
 8008 018b 53       		.byte	0x53
 8009 018c 9F       		.byte	0x9f
 8010 018d 00000000 		.4byte	0
 8011 0191 00000000 		.4byte	0
 8012              	.LLST11:
 8013 0195 0E000000 		.4byte	.LVL29
 8014 0199 56000000 		.4byte	.LVL39
 8015 019d 0200     		.2byte	0x2
ARM GAS  C:\Users\ABAD_S~1\AppData\Local\Temp\cckPFQC2.s 			page 162


 8016 019f 30       		.byte	0x30
 8017 01a0 9F       		.byte	0x9f
 8018 01a1 56000000 		.4byte	.LVL39
 8019 01a5 5A000000 		.4byte	.LVL40
 8020 01a9 0200     		.2byte	0x2
 8021 01ab 31       		.byte	0x31
 8022 01ac 9F       		.byte	0x9f
 8023 01ad 5A000000 		.4byte	.LVL40
 8024 01b1 5E000000 		.4byte	.LVL41
 8025 01b5 0200     		.2byte	0x2
 8026 01b7 30       		.byte	0x30
 8027 01b8 9F       		.byte	0x9f
 8028 01b9 5E000000 		.4byte	.LVL41
 8029 01bd 76000000 		.4byte	.LVL45
 8030 01c1 0100     		.2byte	0x1
 8031 01c3 54       		.byte	0x54
 8032 01c4 78000000 		.4byte	.LVL46
 8033 01c8 84000000 		.4byte	.LVL48
 8034 01cc 0100     		.2byte	0x1
 8035 01ce 54       		.byte	0x54
 8036 01cf 00000000 		.4byte	0
 8037 01d3 00000000 		.4byte	0
 8038              	.LLST12:
 8039 01d7 3A000000 		.4byte	.LVL34
 8040 01db 52000000 		.4byte	.LVL38
 8041 01df 0100     		.2byte	0x1
 8042 01e1 54       		.byte	0x54
 8043 01e2 52000000 		.4byte	.LVL38
 8044 01e6 5A000000 		.4byte	.LVL40
 8045 01ea 0100     		.2byte	0x1
 8046 01ec 56       		.byte	0x56
 8047 01ed 00000000 		.4byte	0
 8048 01f1 00000000 		.4byte	0
 8049              	.LLST13:
 8050 01f5 4C000000 		.4byte	.LVL37
 8051 01f9 5A000000 		.4byte	.LVL40
 8052 01fd 0100     		.2byte	0x1
 8053 01ff 50       		.byte	0x50
 8054 0200 00000000 		.4byte	0
 8055 0204 00000000 		.4byte	0
 8056              	.LLST14:
 8057 0208 00000000 		.4byte	.LVL52
 8058 020c 09000000 		.4byte	.LVL53-1
 8059 0210 0100     		.2byte	0x1
 8060 0212 50       		.byte	0x50
 8061 0213 09000000 		.4byte	.LVL53-1
 8062 0217 16000000 		.4byte	.LFE37
 8063 021b 0400     		.2byte	0x4
 8064 021d F3       		.byte	0xf3
 8065 021e 01       		.uleb128 0x1
 8066 021f 50       		.byte	0x50
 8067 0220 9F       		.byte	0x9f
 8068 0221 00000000 		.4byte	0
 8069 0225 00000000 		.4byte	0
 8070              	.LLST15:
 8071 0229 00000000 		.4byte	.LVL52
 8072 022d 09000000 		.4byte	.LVL53-1
ARM GAS  C:\Users\ABAD_S~1\AppData\Local\Temp\cckPFQC2.s 			page 163


 8073 0231 0100     		.2byte	0x1
 8074 0233 51       		.byte	0x51
 8075 0234 09000000 		.4byte	.LVL53-1
 8076 0238 16000000 		.4byte	.LFE37
 8077 023c 0400     		.2byte	0x4
 8078 023e F3       		.byte	0xf3
 8079 023f 01       		.uleb128 0x1
 8080 0240 51       		.byte	0x51
 8081 0241 9F       		.byte	0x9f
 8082 0242 00000000 		.4byte	0
 8083 0246 00000000 		.4byte	0
 8084              	.LLST16:
 8085 024a 0A000000 		.4byte	.LVL53
 8086 024e 10000000 		.4byte	.LVL54
 8087 0252 0100     		.2byte	0x1
 8088 0254 50       		.byte	0x50
 8089 0255 00000000 		.4byte	0
 8090 0259 00000000 		.4byte	0
 8091              	.LLST17:
 8092 025d 00000000 		.4byte	.LVL56
 8093 0261 09000000 		.4byte	.LVL57-1
 8094 0265 0100     		.2byte	0x1
 8095 0267 50       		.byte	0x50
 8096 0268 09000000 		.4byte	.LVL57-1
 8097 026c 16000000 		.4byte	.LFE38
 8098 0270 0400     		.2byte	0x4
 8099 0272 F3       		.byte	0xf3
 8100 0273 01       		.uleb128 0x1
 8101 0274 50       		.byte	0x50
 8102 0275 9F       		.byte	0x9f
 8103 0276 00000000 		.4byte	0
 8104 027a 00000000 		.4byte	0
 8105              	.LLST18:
 8106 027e 00000000 		.4byte	.LVL56
 8107 0282 09000000 		.4byte	.LVL57-1
 8108 0286 0100     		.2byte	0x1
 8109 0288 51       		.byte	0x51
 8110 0289 09000000 		.4byte	.LVL57-1
 8111 028d 16000000 		.4byte	.LFE38
 8112 0291 0400     		.2byte	0x4
 8113 0293 F3       		.byte	0xf3
 8114 0294 01       		.uleb128 0x1
 8115 0295 51       		.byte	0x51
 8116 0296 9F       		.byte	0x9f
 8117 0297 00000000 		.4byte	0
 8118 029b 00000000 		.4byte	0
 8119              	.LLST19:
 8120 029f 0A000000 		.4byte	.LVL57
 8121 02a3 0C000000 		.4byte	.LVL58
 8122 02a7 0100     		.2byte	0x1
 8123 02a9 50       		.byte	0x50
 8124 02aa 00000000 		.4byte	0
 8125 02ae 00000000 		.4byte	0
 8126              	.LLST20:
 8127 02b2 00000000 		.4byte	.LVL60
 8128 02b6 0C000000 		.4byte	.LVL62
 8129 02ba 0100     		.2byte	0x1
ARM GAS  C:\Users\ABAD_S~1\AppData\Local\Temp\cckPFQC2.s 			page 164


 8130 02bc 50       		.byte	0x50
 8131 02bd 0C000000 		.4byte	.LVL62
 8132 02c1 66000000 		.4byte	.LVL79
 8133 02c5 0100     		.2byte	0x1
 8134 02c7 56       		.byte	0x56
 8135 02c8 66000000 		.4byte	.LVL79
 8136 02cc 6C000000 		.4byte	.LFE39
 8137 02d0 0400     		.2byte	0x4
 8138 02d2 F3       		.byte	0xf3
 8139 02d3 01       		.uleb128 0x1
 8140 02d4 50       		.byte	0x50
 8141 02d5 9F       		.byte	0x9f
 8142 02d6 00000000 		.4byte	0
 8143 02da 00000000 		.4byte	0
 8144              	.LLST21:
 8145 02de 00000000 		.4byte	.LVL60
 8146 02e2 0A000000 		.4byte	.LVL61
 8147 02e6 0100     		.2byte	0x1
 8148 02e8 51       		.byte	0x51
 8149 02e9 0A000000 		.4byte	.LVL61
 8150 02ed 6C000000 		.4byte	.LFE39
 8151 02f1 0400     		.2byte	0x4
 8152 02f3 F3       		.byte	0xf3
 8153 02f4 01       		.uleb128 0x1
 8154 02f5 51       		.byte	0x51
 8155 02f6 9F       		.byte	0x9f
 8156 02f7 00000000 		.4byte	0
 8157 02fb 00000000 		.4byte	0
 8158              	.LLST22:
 8159 02ff 00000000 		.4byte	.LVL60
 8160 0303 0F000000 		.4byte	.LVL63-1
 8161 0307 0100     		.2byte	0x1
 8162 0309 52       		.byte	0x52
 8163 030a 0F000000 		.4byte	.LVL63-1
 8164 030e 66000000 		.4byte	.LVL78
 8165 0312 0100     		.2byte	0x1
 8166 0314 55       		.byte	0x55
 8167 0315 66000000 		.4byte	.LVL78
 8168 0319 6C000000 		.4byte	.LFE39
 8169 031d 0400     		.2byte	0x4
 8170 031f F3       		.byte	0xf3
 8171 0320 01       		.uleb128 0x1
 8172 0321 52       		.byte	0x52
 8173 0322 9F       		.byte	0x9f
 8174 0323 00000000 		.4byte	0
 8175 0327 00000000 		.4byte	0
 8176              	.LLST23:
 8177 032b 32000000 		.4byte	.LVL67
 8178 032f 36000000 		.4byte	.LVL68
 8179 0333 0400     		.2byte	0x4
 8180 0335 0A       		.byte	0xa
 8181 0336 8813     		.2byte	0x1388
 8182 0338 9F       		.byte	0x9f
 8183 0339 36000000 		.4byte	.LVL68
 8184 033d 5E000000 		.4byte	.LVL75
 8185 0341 0100     		.2byte	0x1
 8186 0343 54       		.byte	0x54
ARM GAS  C:\Users\ABAD_S~1\AppData\Local\Temp\cckPFQC2.s 			page 165


 8187 0344 60000000 		.4byte	.LVL76
 8188 0348 66000000 		.4byte	.LVL77
 8189 034c 0100     		.2byte	0x1
 8190 034e 54       		.byte	0x54
 8191 034f 00000000 		.4byte	0
 8192 0353 00000000 		.4byte	0
 8193              	.LLST24:
 8194 0357 3C000000 		.4byte	.LVL69
 8195 035b 44000000 		.4byte	.LVL70
 8196 035f 0100     		.2byte	0x1
 8197 0361 50       		.byte	0x50
 8198 0362 5C000000 		.4byte	.LVL74
 8199 0366 60000000 		.4byte	.LVL76
 8200 036a 0100     		.2byte	0x1
 8201 036c 50       		.byte	0x50
 8202 036d 00000000 		.4byte	0
 8203 0371 00000000 		.4byte	0
 8204              	.LLST25:
 8205 0375 0A000000 		.4byte	.LVL80
 8206 0379 0C000000 		.4byte	.LVL81
 8207 037d 0200     		.2byte	0x2
 8208 037f 30       		.byte	0x30
 8209 0380 9F       		.byte	0x9f
 8210 0381 0C000000 		.4byte	.LVL81
 8211 0385 1E000000 		.4byte	.LVL84
 8212 0389 0100     		.2byte	0x1
 8213 038b 54       		.byte	0x54
 8214 038c 20000000 		.4byte	.LVL85
 8215 0390 24000000 		.4byte	.LVL86
 8216 0394 0100     		.2byte	0x1
 8217 0396 54       		.byte	0x54
 8218 0397 00000000 		.4byte	0
 8219 039b 00000000 		.4byte	0
 8220              	.LLST26:
 8221 039f 08000000 		.4byte	.LVL87
 8222 03a3 0C000000 		.4byte	.LVL88
 8223 03a7 0100     		.2byte	0x1
 8224 03a9 50       		.byte	0x50
 8225 03aa 00000000 		.4byte	0
 8226 03ae 00000000 		.4byte	0
 8227              	.LLST27:
 8228 03b2 00000000 		.4byte	.LVL108
 8229 03b6 07000000 		.4byte	.LVL109-1
 8230 03ba 0100     		.2byte	0x1
 8231 03bc 50       		.byte	0x50
 8232 03bd 07000000 		.4byte	.LVL109-1
 8233 03c1 20000000 		.4byte	.LFE45
 8234 03c5 0400     		.2byte	0x4
 8235 03c7 F3       		.byte	0xf3
 8236 03c8 01       		.uleb128 0x1
 8237 03c9 50       		.byte	0x50
 8238 03ca 9F       		.byte	0x9f
 8239 03cb 00000000 		.4byte	0
 8240 03cf 00000000 		.4byte	0
 8241              	.LLST28:
 8242 03d3 4E000000 		.4byte	.LVL121
 8243 03d7 56000000 		.4byte	.LVL123
ARM GAS  C:\Users\ABAD_S~1\AppData\Local\Temp\cckPFQC2.s 			page 166


 8244 03db 0100     		.2byte	0x1
 8245 03dd 50       		.byte	0x50
 8246 03de 00000000 		.4byte	0
 8247 03e2 00000000 		.4byte	0
 8248              	.LLST29:
 8249 03e6 44000000 		.4byte	.LVL119
 8250 03ea 48000000 		.4byte	.LVL120
 8251 03ee 0200     		.2byte	0x2
 8252 03f0 30       		.byte	0x30
 8253 03f1 9F       		.byte	0x9f
 8254 03f2 48000000 		.4byte	.LVL120
 8255 03f6 54000000 		.4byte	.LVL122
 8256 03fa 0100     		.2byte	0x1
 8257 03fc 54       		.byte	0x54
 8258 03fd 56000000 		.4byte	.LVL123
 8259 0401 7A000000 		.4byte	.LVL127
 8260 0405 0100     		.2byte	0x1
 8261 0407 54       		.byte	0x54
 8262 0408 00000000 		.4byte	0
 8263 040c 00000000 		.4byte	0
 8264              	.LLST30:
 8265 0410 08000000 		.4byte	.LVL128
 8266 0414 0C000000 		.4byte	.LVL129
 8267 0418 0100     		.2byte	0x1
 8268 041a 50       		.byte	0x50
 8269 041b 0E000000 		.4byte	.LVL130
 8270 041f 13000000 		.4byte	.LVL131-1
 8271 0423 0100     		.2byte	0x1
 8272 0425 51       		.byte	0x51
 8273 0426 00000000 		.4byte	0
 8274 042a 00000000 		.4byte	0
 8275              	.LLST31:
 8276 042e 08000000 		.4byte	.LVL132
 8277 0432 0C000000 		.4byte	.LVL133
 8278 0436 0100     		.2byte	0x1
 8279 0438 50       		.byte	0x50
 8280 0439 0E000000 		.4byte	.LVL134
 8281 043d 13000000 		.4byte	.LVL135-1
 8282 0441 0100     		.2byte	0x1
 8283 0443 51       		.byte	0x51
 8284 0444 1E000000 		.4byte	.LVL137
 8285 0448 28000000 		.4byte	.LVL140
 8286 044c 0100     		.2byte	0x1
 8287 044e 50       		.byte	0x50
 8288 044f 00000000 		.4byte	0
 8289 0453 00000000 		.4byte	0
 8290              	.LLST32:
 8291 0457 14000000 		.4byte	.LVL135
 8292 045b 18000000 		.4byte	.LVL136
 8293 045f 0200     		.2byte	0x2
 8294 0461 30       		.byte	0x30
 8295 0462 9F       		.byte	0x9f
 8296 0463 18000000 		.4byte	.LVL136
 8297 0467 24000000 		.4byte	.LVL138
 8298 046b 0100     		.2byte	0x1
 8299 046d 54       		.byte	0x54
 8300 046e 26000000 		.4byte	.LVL139
ARM GAS  C:\Users\ABAD_S~1\AppData\Local\Temp\cckPFQC2.s 			page 167


 8301 0472 34000000 		.4byte	.LVL142
 8302 0476 0100     		.2byte	0x1
 8303 0478 54       		.byte	0x54
 8304 0479 00000000 		.4byte	0
 8305 047d 00000000 		.4byte	0
 8306              	.LLST33:
 8307 0481 00000000 		.4byte	.LVL143
 8308 0485 28000000 		.4byte	.LVL152
 8309 0489 0100     		.2byte	0x1
 8310 048b 50       		.byte	0x50
 8311 048c 28000000 		.4byte	.LVL152
 8312 0490 64010000 		.4byte	.LFE50
 8313 0494 0400     		.2byte	0x4
 8314 0496 F3       		.byte	0xf3
 8315 0497 01       		.uleb128 0x1
 8316 0498 50       		.byte	0x50
 8317 0499 9F       		.byte	0x9f
 8318 049a 00000000 		.4byte	0
 8319 049e 00000000 		.4byte	0
 8320              	.LLST34:
 8321 04a2 00000000 		.4byte	.LVL143
 8322 04a6 26000000 		.4byte	.LVL151
 8323 04aa 0100     		.2byte	0x1
 8324 04ac 51       		.byte	0x51
 8325 04ad 26000000 		.4byte	.LVL151
 8326 04b1 64010000 		.4byte	.LFE50
 8327 04b5 0400     		.2byte	0x4
 8328 04b7 F3       		.byte	0xf3
 8329 04b8 01       		.uleb128 0x1
 8330 04b9 51       		.byte	0x51
 8331 04ba 9F       		.byte	0x9f
 8332 04bb 00000000 		.4byte	0
 8333 04bf 00000000 		.4byte	0
 8334              	.LLST35:
 8335 04c3 00000000 		.4byte	.LVL143
 8336 04c7 1A000000 		.4byte	.LVL147
 8337 04cb 0100     		.2byte	0x1
 8338 04cd 52       		.byte	0x52
 8339 04ce 1A000000 		.4byte	.LVL147
 8340 04d2 1C000000 		.4byte	.LVL148
 8341 04d6 0200     		.2byte	0x2
 8342 04d8 7D       		.byte	0x7d
 8343 04d9 00       		.sleb128 0
 8344 04da 1C000000 		.4byte	.LVL148
 8345 04de 1E000000 		.4byte	.LVL149
 8346 04e2 0100     		.2byte	0x1
 8347 04e4 52       		.byte	0x52
 8348 04e5 1E000000 		.4byte	.LVL149
 8349 04e9 62010000 		.4byte	.LVL189
 8350 04ed 0200     		.2byte	0x2
 8351 04ef 7D       		.byte	0x7d
 8352 04f0 00       		.sleb128 0
 8353 04f1 62010000 		.4byte	.LVL189
 8354 04f5 64010000 		.4byte	.LFE50
 8355 04f9 0200     		.2byte	0x2
 8356 04fb 91       		.byte	0x91
 8357 04fc 58       		.sleb128 -40
ARM GAS  C:\Users\ABAD_S~1\AppData\Local\Temp\cckPFQC2.s 			page 168


 8358 04fd 00000000 		.4byte	0
 8359 0501 00000000 		.4byte	0
 8360              	.LLST36:
 8361 0505 00000000 		.4byte	.LVL143
 8362 0509 0C000000 		.4byte	.LVL144
 8363 050d 0100     		.2byte	0x1
 8364 050f 53       		.byte	0x53
 8365 0510 0C000000 		.4byte	.LVL144
 8366 0514 64010000 		.4byte	.LFE50
 8367 0518 0400     		.2byte	0x4
 8368 051a F3       		.byte	0xf3
 8369 051b 01       		.uleb128 0x1
 8370 051c 53       		.byte	0x53
 8371 051d 9F       		.byte	0x9f
 8372 051e 00000000 		.4byte	0
 8373 0522 00000000 		.4byte	0
 8374              	.LLST37:
 8375 0526 00000000 		.4byte	.LVL143
 8376 052a 0C000000 		.4byte	.LVL144
 8377 052e 0200     		.2byte	0x2
 8378 0530 91       		.byte	0x91
 8379 0531 0C       		.sleb128 12
 8380 0532 0C000000 		.4byte	.LVL144
 8381 0536 10000000 		.4byte	.LVL145
 8382 053a 0200     		.2byte	0x2
 8383 053c 73       		.byte	0x73
 8384 053d 00       		.sleb128 0
 8385 053e 10000000 		.4byte	.LVL145
 8386 0542 64010000 		.4byte	.LFE50
 8387 0546 0200     		.2byte	0x2
 8388 0548 91       		.byte	0x91
 8389 0549 0C       		.sleb128 12
 8390 054a 00000000 		.4byte	0
 8391 054e 00000000 		.4byte	0
 8392              	.LLST38:
 8393 0552 00000000 		.4byte	.LVL143
 8394 0556 10000000 		.4byte	.LVL145
 8395 055a 0200     		.2byte	0x2
 8396 055c 91       		.byte	0x91
 8397 055d 10       		.sleb128 16
 8398 055e 10000000 		.4byte	.LVL145
 8399 0562 14000000 		.4byte	.LVL146
 8400 0566 0200     		.2byte	0x2
 8401 0568 73       		.byte	0x73
 8402 0569 00       		.sleb128 0
 8403 056a 14000000 		.4byte	.LVL146
 8404 056e 64010000 		.4byte	.LFE50
 8405 0572 0200     		.2byte	0x2
 8406 0574 91       		.byte	0x91
 8407 0575 10       		.sleb128 16
 8408 0576 00000000 		.4byte	0
 8409 057a 00000000 		.4byte	0
 8410              	.LLST39:
 8411 057e 1E000000 		.4byte	.LVL149
 8412 0582 2B000000 		.4byte	.LVL153-1
 8413 0586 0100     		.2byte	0x1
 8414 0588 52       		.byte	0x52
ARM GAS  C:\Users\ABAD_S~1\AppData\Local\Temp\cckPFQC2.s 			page 169


 8415 0589 00000000 		.4byte	0
 8416 058d 00000000 		.4byte	0
 8417              	.LLST40:
 8418 0591 24000000 		.4byte	.LVL150
 8419 0595 62010000 		.4byte	.LVL190
 8420 0599 0100     		.2byte	0x1
 8421 059b 57       		.byte	0x57
 8422 059c 00000000 		.4byte	0
 8423 05a0 00000000 		.4byte	0
 8424              	.LLST41:
 8425 05a4 68000000 		.4byte	.LVL160
 8426 05a8 78000000 		.4byte	.LVL162
 8427 05ac 0100     		.2byte	0x1
 8428 05ae 54       		.byte	0x54
 8429 05af 7A000000 		.4byte	.LVL163
 8430 05b3 8A000000 		.4byte	.LVL165
 8431 05b7 0100     		.2byte	0x1
 8432 05b9 54       		.byte	0x54
 8433 05ba 4C010000 		.4byte	.LVL181
 8434 05be 4E010000 		.4byte	.LVL182
 8435 05c2 0100     		.2byte	0x1
 8436 05c4 54       		.byte	0x54
 8437 05c5 50010000 		.4byte	.LVL183
 8438 05c9 52010000 		.4byte	.LVL184
 8439 05cd 0100     		.2byte	0x1
 8440 05cf 54       		.byte	0x54
 8441 05d0 00000000 		.4byte	0
 8442 05d4 00000000 		.4byte	0
 8443              	.LLST42:
 8444 05d8 6E000000 		.4byte	.LVL161
 8445 05dc 7A000000 		.4byte	.LVL163
 8446 05e0 0100     		.2byte	0x1
 8447 05e2 50       		.byte	0x50
 8448 05e3 4C010000 		.4byte	.LVL181
 8449 05e7 50010000 		.4byte	.LVL183
 8450 05eb 0100     		.2byte	0x1
 8451 05ed 50       		.byte	0x50
 8452 05ee 00000000 		.4byte	0
 8453 05f2 00000000 		.4byte	0
 8454              	.LLST43:
 8455 05f6 8A000000 		.4byte	.LVL165
 8456 05fa 9E000000 		.4byte	.LVL167
 8457 05fe 0100     		.2byte	0x1
 8458 0600 50       		.byte	0x50
 8459 0601 CE000000 		.4byte	.LVL173
 8460 0605 D0000000 		.4byte	.LVL174
 8461 0609 0100     		.2byte	0x1
 8462 060b 50       		.byte	0x50
 8463 060c D2000000 		.4byte	.LVL175
 8464 0610 D4000000 		.4byte	.LVL176
 8465 0614 0100     		.2byte	0x1
 8466 0616 50       		.byte	0x50
 8467 0617 54010000 		.4byte	.LVL185
 8468 061b 58010000 		.4byte	.LVL186
 8469 061f 0100     		.2byte	0x1
 8470 0621 50       		.byte	0x50
 8471 0622 00000000 		.4byte	0
ARM GAS  C:\Users\ABAD_S~1\AppData\Local\Temp\cckPFQC2.s 			page 170


 8472 0626 00000000 		.4byte	0
 8473              	.LLST44:
 8474 062a 90000000 		.4byte	.LVL166
 8475 062e C4000000 		.4byte	.LVL172
 8476 0632 0200     		.2byte	0x2
 8477 0634 30       		.byte	0x30
 8478 0635 9F       		.byte	0x9f
 8479 0636 C4000000 		.4byte	.LVL172
 8480 063a CE000000 		.4byte	.LVL173
 8481 063e 0100     		.2byte	0x1
 8482 0640 50       		.byte	0x50
 8483 0641 CE000000 		.4byte	.LVL173
 8484 0645 D4000000 		.4byte	.LVL176
 8485 0649 0200     		.2byte	0x2
 8486 064b 30       		.byte	0x30
 8487 064c 9F       		.byte	0x9f
 8488 064d D4000000 		.4byte	.LVL176
 8489 0651 04010000 		.4byte	.LVL177
 8490 0655 0100     		.2byte	0x1
 8491 0657 50       		.byte	0x50
 8492 0658 34010000 		.4byte	.LVL179
 8493 065c 40010000 		.4byte	.LVL180
 8494 0660 0100     		.2byte	0x1
 8495 0662 50       		.byte	0x50
 8496 0663 58010000 		.4byte	.LVL186
 8497 0667 5C010000 		.4byte	.LVL187
 8498 066b 0200     		.2byte	0x2
 8499 066d 30       		.byte	0x30
 8500 066e 9F       		.byte	0x9f
 8501 066f 5C010000 		.4byte	.LVL187
 8502 0673 5E010000 		.4byte	.LVL188
 8503 0677 0100     		.2byte	0x1
 8504 0679 50       		.byte	0x50
 8505 067a 00000000 		.4byte	0
 8506 067e 00000000 		.4byte	0
 8507              	.LLST45:
 8508 0682 A2000000 		.4byte	.LVL168
 8509 0686 B6000000 		.4byte	.LVL169
 8510 068a 0100     		.2byte	0x1
 8511 068c 50       		.byte	0x50
 8512 068d B6000000 		.4byte	.LVL169
 8513 0691 B9000000 		.4byte	.LVL170-1
 8514 0695 0300     		.2byte	0x3
 8515 0697 91       		.byte	0x91
 8516 0698 04       		.sleb128 4
 8517 0699 06       		.byte	0x6
 8518 069a 58010000 		.4byte	.LVL186
 8519 069e 5C010000 		.4byte	.LVL187
 8520 06a2 0100     		.2byte	0x1
 8521 06a4 50       		.byte	0x50
 8522 06a5 00000000 		.4byte	0
 8523 06a9 00000000 		.4byte	0
 8524              	.LLST46:
 8525 06ad 08010000 		.4byte	.LVL178
 8526 06b1 34010000 		.4byte	.LVL179
 8527 06b5 0100     		.2byte	0x1
 8528 06b7 50       		.byte	0x50
ARM GAS  C:\Users\ABAD_S~1\AppData\Local\Temp\cckPFQC2.s 			page 171


 8529 06b8 40010000 		.4byte	.LVL180
 8530 06bc 4C010000 		.4byte	.LVL181
 8531 06c0 0100     		.2byte	0x1
 8532 06c2 50       		.byte	0x50
 8533 06c3 00000000 		.4byte	0
 8534 06c7 00000000 		.4byte	0
 8535              	.LLST47:
 8536 06cb 00000000 		.4byte	.LVL191
 8537 06cf 20000000 		.4byte	.LVL200
 8538 06d3 0100     		.2byte	0x1
 8539 06d5 50       		.byte	0x50
 8540 06d6 20000000 		.4byte	.LVL200
 8541 06da 23000000 		.4byte	.LVL201-1
 8542 06de 0100     		.2byte	0x1
 8543 06e0 52       		.byte	0x52
 8544 06e1 23000000 		.4byte	.LVL201-1
 8545 06e5 28000000 		.4byte	.LFE49
 8546 06e9 0400     		.2byte	0x4
 8547 06eb F3       		.byte	0xf3
 8548 06ec 01       		.uleb128 0x1
 8549 06ed 50       		.byte	0x50
 8550 06ee 9F       		.byte	0x9f
 8551 06ef 00000000 		.4byte	0
 8552 06f3 00000000 		.4byte	0
 8553              	.LLST48:
 8554 06f7 00000000 		.4byte	.LVL191
 8555 06fb 1E000000 		.4byte	.LVL199
 8556 06ff 0100     		.2byte	0x1
 8557 0701 51       		.byte	0x51
 8558 0702 1E000000 		.4byte	.LVL199
 8559 0706 28000000 		.4byte	.LFE49
 8560 070a 0400     		.2byte	0x4
 8561 070c F3       		.byte	0xf3
 8562 070d 01       		.uleb128 0x1
 8563 070e 51       		.byte	0x51
 8564 070f 9F       		.byte	0x9f
 8565 0710 00000000 		.4byte	0
 8566 0714 00000000 		.4byte	0
 8567              	.LLST49:
 8568 0718 00000000 		.4byte	.LVL191
 8569 071c 1C000000 		.4byte	.LVL198
 8570 0720 0100     		.2byte	0x1
 8571 0722 52       		.byte	0x52
 8572 0723 1C000000 		.4byte	.LVL198
 8573 0727 23000000 		.4byte	.LVL201-1
 8574 072b 0200     		.2byte	0x2
 8575 072d 7D       		.byte	0x7d
 8576 072e 00       		.sleb128 0
 8577 072f 23000000 		.4byte	.LVL201-1
 8578 0733 28000000 		.4byte	.LFE49
 8579 0737 0400     		.2byte	0x4
 8580 0739 F3       		.byte	0xf3
 8581 073a 01       		.uleb128 0x1
 8582 073b 52       		.byte	0x52
 8583 073c 9F       		.byte	0x9f
 8584 073d 00000000 		.4byte	0
 8585 0741 00000000 		.4byte	0
ARM GAS  C:\Users\ABAD_S~1\AppData\Local\Temp\cckPFQC2.s 			page 172


 8586              	.LLST50:
 8587 0745 00000000 		.4byte	.LVL191
 8588 0749 1A000000 		.4byte	.LVL197
 8589 074d 0100     		.2byte	0x1
 8590 074f 53       		.byte	0x53
 8591 0750 1A000000 		.4byte	.LVL197
 8592 0754 23000000 		.4byte	.LVL201-1
 8593 0758 0200     		.2byte	0x2
 8594 075a 91       		.byte	0x91
 8595 075b 5C       		.sleb128 -36
 8596 075c 23000000 		.4byte	.LVL201-1
 8597 0760 28000000 		.4byte	.LFE49
 8598 0764 0400     		.2byte	0x4
 8599 0766 F3       		.byte	0xf3
 8600 0767 01       		.uleb128 0x1
 8601 0768 53       		.byte	0x53
 8602 0769 9F       		.byte	0x9f
 8603 076a 00000000 		.4byte	0
 8604 076e 00000000 		.4byte	0
 8605              	.LLST51:
 8606 0772 00000000 		.4byte	.LVL191
 8607 0776 06000000 		.4byte	.LVL192
 8608 077a 0200     		.2byte	0x2
 8609 077c 91       		.byte	0x91
 8610 077d 00       		.sleb128 0
 8611 077e 06000000 		.4byte	.LVL192
 8612 0782 08000000 		.4byte	.LVL193
 8613 0786 0200     		.2byte	0x2
 8614 0788 74       		.byte	0x74
 8615 0789 00       		.sleb128 0
 8616 078a 08000000 		.4byte	.LVL193
 8617 078e 0A000000 		.4byte	.LVL194
 8618 0792 0200     		.2byte	0x2
 8619 0794 74       		.byte	0x74
 8620 0795 7C       		.sleb128 -4
 8621 0796 0A000000 		.4byte	.LVL194
 8622 079a 28000000 		.4byte	.LFE49
 8623 079e 0200     		.2byte	0x2
 8624 07a0 91       		.byte	0x91
 8625 07a1 00       		.sleb128 0
 8626 07a2 00000000 		.4byte	0
 8627 07a6 00000000 		.4byte	0
 8628              	.LLST52:
 8629 07aa 00000000 		.4byte	.LVL191
 8630 07ae 06000000 		.4byte	.LVL192
 8631 07b2 0200     		.2byte	0x2
 8632 07b4 91       		.byte	0x91
 8633 07b5 04       		.sleb128 4
 8634 07b6 06000000 		.4byte	.LVL192
 8635 07ba 08000000 		.4byte	.LVL193
 8636 07be 0200     		.2byte	0x2
 8637 07c0 74       		.byte	0x74
 8638 07c1 04       		.sleb128 4
 8639 07c2 08000000 		.4byte	.LVL193
 8640 07c6 0A000000 		.4byte	.LVL194
 8641 07ca 0200     		.2byte	0x2
 8642 07cc 74       		.byte	0x74
ARM GAS  C:\Users\ABAD_S~1\AppData\Local\Temp\cckPFQC2.s 			page 173


 8643 07cd 00       		.sleb128 0
 8644 07ce 0A000000 		.4byte	.LVL194
 8645 07d2 28000000 		.4byte	.LFE49
 8646 07d6 0200     		.2byte	0x2
 8647 07d8 91       		.byte	0x91
 8648 07d9 04       		.sleb128 4
 8649 07da 00000000 		.4byte	0
 8650 07de 00000000 		.4byte	0
 8651              	.LLST53:
 8652 07e2 00000000 		.4byte	.LVL191
 8653 07e6 06000000 		.4byte	.LVL192
 8654 07ea 0200     		.2byte	0x2
 8655 07ec 91       		.byte	0x91
 8656 07ed 08       		.sleb128 8
 8657 07ee 06000000 		.4byte	.LVL192
 8658 07f2 08000000 		.4byte	.LVL193
 8659 07f6 0200     		.2byte	0x2
 8660 07f8 74       		.byte	0x74
 8661 07f9 08       		.sleb128 8
 8662 07fa 08000000 		.4byte	.LVL193
 8663 07fe 0A000000 		.4byte	.LVL194
 8664 0802 0200     		.2byte	0x2
 8665 0804 74       		.byte	0x74
 8666 0805 04       		.sleb128 4
 8667 0806 0A000000 		.4byte	.LVL194
 8668 080a 0C000000 		.4byte	.LVL195
 8669 080e 0200     		.2byte	0x2
 8670 0810 91       		.byte	0x91
 8671 0811 08       		.sleb128 8
 8672 0812 0C000000 		.4byte	.LVL195
 8673 0816 0E000000 		.4byte	.LVL196
 8674 081a 0200     		.2byte	0x2
 8675 081c 76       		.byte	0x76
 8676 081d 00       		.sleb128 0
 8677 081e 0E000000 		.4byte	.LVL196
 8678 0822 28000000 		.4byte	.LFE49
 8679 0826 0200     		.2byte	0x2
 8680 0828 91       		.byte	0x91
 8681 0829 08       		.sleb128 8
 8682 082a 00000000 		.4byte	0
 8683 082e 00000000 		.4byte	0
 8684              	.LLST54:
 8685 0832 00000000 		.4byte	.LVL202
 8686 0836 1C000000 		.4byte	.LVL204
 8687 083a 0100     		.2byte	0x1
 8688 083c 50       		.byte	0x50
 8689 083d 1C000000 		.4byte	.LVL204
 8690 0841 38000000 		.4byte	.LVL206
 8691 0845 0200     		.2byte	0x2
 8692 0847 91       		.byte	0x91
 8693 0848 67       		.sleb128 -25
 8694 0849 38000000 		.4byte	.LVL206
 8695 084d 3A000000 		.4byte	.LVL207
 8696 0851 0800     		.2byte	0x8
 8697 0853 91       		.byte	0x91
 8698 0854 00       		.sleb128 0
 8699 0855 70       		.byte	0x70
ARM GAS  C:\Users\ABAD_S~1\AppData\Local\Temp\cckPFQC2.s 			page 174


 8700 0856 00       		.sleb128 0
 8701 0857 22       		.byte	0x22
 8702 0858 08       		.byte	0x8
 8703 0859 30       		.byte	0x30
 8704 085a 1C       		.byte	0x1c
 8705 085b 3A000000 		.4byte	.LVL207
 8706 085f 3D000000 		.4byte	.LVL208-1
 8707 0863 0200     		.2byte	0x2
 8708 0865 70       		.byte	0x70
 8709 0866 00       		.sleb128 0
 8710 0867 3D000000 		.4byte	.LVL208-1
 8711 086b 56000000 		.4byte	.LVL210
 8712 086f 0200     		.2byte	0x2
 8713 0871 91       		.byte	0x91
 8714 0872 67       		.sleb128 -25
 8715 0873 56000000 		.4byte	.LVL210
 8716 0877 58000000 		.4byte	.LVL211
 8717 087b 0100     		.2byte	0x1
 8718 087d 50       		.byte	0x50
 8719 087e 58000000 		.4byte	.LVL211
 8720 0882 5A000000 		.4byte	.LVL212
 8721 0886 0200     		.2byte	0x2
 8722 0888 73       		.byte	0x73
 8723 0889 00       		.sleb128 0
 8724 088a 5A000000 		.4byte	.LVL212
 8725 088e 5C000000 		.4byte	.LVL213
 8726 0892 0100     		.2byte	0x1
 8727 0894 50       		.byte	0x50
 8728 0895 5C000000 		.4byte	.LVL213
 8729 0899 64000000 		.4byte	.LFE53
 8730 089d 0200     		.2byte	0x2
 8731 089f 91       		.byte	0x91
 8732 08a0 67       		.sleb128 -25
 8733 08a1 00000000 		.4byte	0
 8734 08a5 00000000 		.4byte	0
 8735              	.LLST55:
 8736 08a9 00000000 		.4byte	.LVL202
 8737 08ad 1A000000 		.4byte	.LVL203
 8738 08b1 0100     		.2byte	0x1
 8739 08b3 51       		.byte	0x51
 8740 08b4 1A000000 		.4byte	.LVL203
 8741 08b8 56000000 		.4byte	.LVL210
 8742 08bc 0100     		.2byte	0x1
 8743 08be 54       		.byte	0x54
 8744 08bf 56000000 		.4byte	.LVL210
 8745 08c3 5E000000 		.4byte	.LVL214
 8746 08c7 0100     		.2byte	0x1
 8747 08c9 51       		.byte	0x51
 8748 08ca 5E000000 		.4byte	.LVL214
 8749 08ce 62000000 		.4byte	.LVL216
 8750 08d2 0100     		.2byte	0x1
 8751 08d4 54       		.byte	0x54
 8752 08d5 62000000 		.4byte	.LVL216
 8753 08d9 64000000 		.4byte	.LFE53
 8754 08dd 0400     		.2byte	0x4
 8755 08df F3       		.byte	0xf3
 8756 08e0 01       		.uleb128 0x1
ARM GAS  C:\Users\ABAD_S~1\AppData\Local\Temp\cckPFQC2.s 			page 175


 8757 08e1 51       		.byte	0x51
 8758 08e2 9F       		.byte	0x9f
 8759 08e3 00000000 		.4byte	0
 8760 08e7 00000000 		.4byte	0
 8761              	.LLST56:
 8762 08eb 00000000 		.4byte	.LVL202
 8763 08ef 1F000000 		.4byte	.LVL205-1
 8764 08f3 0100     		.2byte	0x1
 8765 08f5 52       		.byte	0x52
 8766 08f6 1F000000 		.4byte	.LVL205-1
 8767 08fa 56000000 		.4byte	.LVL210
 8768 08fe 0100     		.2byte	0x1
 8769 0900 55       		.byte	0x55
 8770 0901 56000000 		.4byte	.LVL210
 8771 0905 5E000000 		.4byte	.LVL214
 8772 0909 0100     		.2byte	0x1
 8773 090b 52       		.byte	0x52
 8774 090c 5E000000 		.4byte	.LVL214
 8775 0910 62000000 		.4byte	.LVL217
 8776 0914 0100     		.2byte	0x1
 8777 0916 55       		.byte	0x55
 8778 0917 62000000 		.4byte	.LVL217
 8779 091b 64000000 		.4byte	.LFE53
 8780 091f 0400     		.2byte	0x4
 8781 0921 F3       		.byte	0xf3
 8782 0922 01       		.uleb128 0x1
 8783 0923 52       		.byte	0x52
 8784 0924 9F       		.byte	0x9f
 8785 0925 00000000 		.4byte	0
 8786 0929 00000000 		.4byte	0
 8787              	.LLST57:
 8788 092d 3E000000 		.4byte	.LVL208
 8789 0931 4E000000 		.4byte	.LVL209
 8790 0935 0100     		.2byte	0x1
 8791 0937 50       		.byte	0x50
 8792 0938 5E000000 		.4byte	.LVL214
 8793 093c 60000000 		.4byte	.LVL215
 8794 0940 0100     		.2byte	0x1
 8795 0942 50       		.byte	0x50
 8796 0943 00000000 		.4byte	0
 8797 0947 00000000 		.4byte	0
 8798              	.LLST58:
 8799 094b 00000000 		.4byte	.LVL218
 8800 094f 08000000 		.4byte	.LVL220
 8801 0953 0100     		.2byte	0x1
 8802 0955 50       		.byte	0x50
 8803 0956 08000000 		.4byte	.LVL220
 8804 095a 0B000000 		.4byte	.LVL221-1
 8805 095e 0100     		.2byte	0x1
 8806 0960 51       		.byte	0x51
 8807 0961 0B000000 		.4byte	.LVL221-1
 8808 0965 0E000000 		.4byte	.LFE51
 8809 0969 0400     		.2byte	0x4
 8810 096b F3       		.byte	0xf3
 8811 096c 01       		.uleb128 0x1
 8812 096d 50       		.byte	0x50
 8813 096e 9F       		.byte	0x9f
ARM GAS  C:\Users\ABAD_S~1\AppData\Local\Temp\cckPFQC2.s 			page 176


 8814 096f 00000000 		.4byte	0
 8815 0973 00000000 		.4byte	0
 8816              	.LLST59:
 8817 0977 00000000 		.4byte	.LVL218
 8818 097b 06000000 		.4byte	.LVL219
 8819 097f 0100     		.2byte	0x1
 8820 0981 51       		.byte	0x51
 8821 0982 06000000 		.4byte	.LVL219
 8822 0986 0B000000 		.4byte	.LVL221-1
 8823 098a 0100     		.2byte	0x1
 8824 098c 52       		.byte	0x52
 8825 098d 0B000000 		.4byte	.LVL221-1
 8826 0991 0E000000 		.4byte	.LFE51
 8827 0995 0400     		.2byte	0x4
 8828 0997 F3       		.byte	0xf3
 8829 0998 01       		.uleb128 0x1
 8830 0999 51       		.byte	0x51
 8831 099a 9F       		.byte	0x9f
 8832 099b 00000000 		.4byte	0
 8833 099f 00000000 		.4byte	0
 8834              	.LLST60:
 8835 09a3 00000000 		.4byte	.LVL222
 8836 09a7 08000000 		.4byte	.LVL224
 8837 09ab 0100     		.2byte	0x1
 8838 09ad 50       		.byte	0x50
 8839 09ae 08000000 		.4byte	.LVL224
 8840 09b2 0B000000 		.4byte	.LVL225-1
 8841 09b6 0100     		.2byte	0x1
 8842 09b8 51       		.byte	0x51
 8843 09b9 0B000000 		.4byte	.LVL225-1
 8844 09bd 0E000000 		.4byte	.LFE52
 8845 09c1 0400     		.2byte	0x4
 8846 09c3 F3       		.byte	0xf3
 8847 09c4 01       		.uleb128 0x1
 8848 09c5 50       		.byte	0x50
 8849 09c6 9F       		.byte	0x9f
 8850 09c7 00000000 		.4byte	0
 8851 09cb 00000000 		.4byte	0
 8852              	.LLST61:
 8853 09cf 00000000 		.4byte	.LVL222
 8854 09d3 06000000 		.4byte	.LVL223
 8855 09d7 0100     		.2byte	0x1
 8856 09d9 51       		.byte	0x51
 8857 09da 06000000 		.4byte	.LVL223
 8858 09de 0B000000 		.4byte	.LVL225-1
 8859 09e2 0100     		.2byte	0x1
 8860 09e4 52       		.byte	0x52
 8861 09e5 0B000000 		.4byte	.LVL225-1
 8862 09e9 0E000000 		.4byte	.LFE52
 8863 09ed 0400     		.2byte	0x4
 8864 09ef F3       		.byte	0xf3
 8865 09f0 01       		.uleb128 0x1
 8866 09f1 51       		.byte	0x51
 8867 09f2 9F       		.byte	0x9f
 8868 09f3 00000000 		.4byte	0
 8869 09f7 00000000 		.4byte	0
 8870              	.LLST62:
ARM GAS  C:\Users\ABAD_S~1\AppData\Local\Temp\cckPFQC2.s 			page 177


 8871 09fb 00000000 		.4byte	.LVL226
 8872 09ff 1C000000 		.4byte	.LVL229
 8873 0a03 0100     		.2byte	0x1
 8874 0a05 50       		.byte	0x50
 8875 0a06 1C000000 		.4byte	.LVL229
 8876 0a0a F4000000 		.4byte	.LVL249
 8877 0a0e 0100     		.2byte	0x1
 8878 0a10 5A       		.byte	0x5a
 8879 0a11 F4000000 		.4byte	.LVL249
 8880 0a15 14010000 		.4byte	.LVL257
 8881 0a19 0100     		.2byte	0x1
 8882 0a1b 55       		.byte	0x55
 8883 0a1c 14010000 		.4byte	.LVL257
 8884 0a20 70020000 		.4byte	.LVL297
 8885 0a24 0100     		.2byte	0x1
 8886 0a26 5A       		.byte	0x5a
 8887 0a27 70020000 		.4byte	.LVL297
 8888 0a2b 8A020000 		.4byte	.LVL302
 8889 0a2f 0100     		.2byte	0x1
 8890 0a31 56       		.byte	0x56
 8891 0a32 8A020000 		.4byte	.LVL302
 8892 0a36 F8020000 		.4byte	.LVL310
 8893 0a3a 0100     		.2byte	0x1
 8894 0a3c 5A       		.byte	0x5a
 8895 0a3d F8020000 		.4byte	.LVL310
 8896 0a41 FA020000 		.4byte	.LVL311
 8897 0a45 0100     		.2byte	0x1
 8898 0a47 50       		.byte	0x50
 8899 0a48 FA020000 		.4byte	.LVL311
 8900 0a4c 18030000 		.4byte	.LVL322
 8901 0a50 0100     		.2byte	0x1
 8902 0a52 5A       		.byte	0x5a
 8903 0a53 18030000 		.4byte	.LVL322
 8904 0a57 24030000 		.4byte	.LFE54
 8905 0a5b 0400     		.2byte	0x4
 8906 0a5d F3       		.byte	0xf3
 8907 0a5e 01       		.uleb128 0x1
 8908 0a5f 50       		.byte	0x50
 8909 0a60 9F       		.byte	0x9f
 8910 0a61 00000000 		.4byte	0
 8911 0a65 00000000 		.4byte	0
 8912              	.LLST63:
 8913 0a69 00000000 		.4byte	.LVL226
 8914 0a6d 1A000000 		.4byte	.LVL228
 8915 0a71 0100     		.2byte	0x1
 8916 0a73 51       		.byte	0x51
 8917 0a74 1A000000 		.4byte	.LVL228
 8918 0a78 F8020000 		.4byte	.LVL310
 8919 0a7c 0400     		.2byte	0x4
 8920 0a7e F3       		.byte	0xf3
 8921 0a7f 01       		.uleb128 0x1
 8922 0a80 51       		.byte	0x51
 8923 0a81 9F       		.byte	0x9f
 8924 0a82 F8020000 		.4byte	.LVL310
 8925 0a86 FC020000 		.4byte	.LVL312
 8926 0a8a 0100     		.2byte	0x1
 8927 0a8c 51       		.byte	0x51
ARM GAS  C:\Users\ABAD_S~1\AppData\Local\Temp\cckPFQC2.s 			page 178


 8928 0a8d FC020000 		.4byte	.LVL312
 8929 0a91 24030000 		.4byte	.LFE54
 8930 0a95 0400     		.2byte	0x4
 8931 0a97 F3       		.byte	0xf3
 8932 0a98 01       		.uleb128 0x1
 8933 0a99 51       		.byte	0x51
 8934 0a9a 9F       		.byte	0x9f
 8935 0a9b 00000000 		.4byte	0
 8936 0a9f 00000000 		.4byte	0
 8937              	.LLST64:
 8938 0aa3 20000000 		.4byte	.LVL230
 8939 0aa7 2A000000 		.4byte	.LVL231
 8940 0aab 0200     		.2byte	0x2
 8941 0aad 30       		.byte	0x30
 8942 0aae 9F       		.byte	0x9f
 8943 0aaf 2A000000 		.4byte	.LVL231
 8944 0ab3 D6020000 		.4byte	.LVL308
 8945 0ab7 0200     		.2byte	0x2
 8946 0ab9 91       		.byte	0x91
 8947 0aba 44       		.sleb128 -60
 8948 0abb D6020000 		.4byte	.LVL308
 8949 0abf DE020000 		.4byte	.LVL309
 8950 0ac3 0200     		.2byte	0x2
 8951 0ac5 31       		.byte	0x31
 8952 0ac6 9F       		.byte	0x9f
 8953 0ac7 DE020000 		.4byte	.LVL309
 8954 0acb F8020000 		.4byte	.LVL310
 8955 0acf 0200     		.2byte	0x2
 8956 0ad1 91       		.byte	0x91
 8957 0ad2 44       		.sleb128 -60
 8958 0ad3 FC020000 		.4byte	.LVL312
 8959 0ad7 16030000 		.4byte	.LVL321
 8960 0adb 0200     		.2byte	0x2
 8961 0add 91       		.byte	0x91
 8962 0ade 44       		.sleb128 -60
 8963 0adf 00000000 		.4byte	0
 8964 0ae3 00000000 		.4byte	0
 8965              	.LLST65:
 8966 0ae7 28010000 		.4byte	.LVL260
 8967 0aeb 42020000 		.4byte	.LVL289
 8968 0aef 0100     		.2byte	0x1
 8969 0af1 57       		.byte	0x57
 8970 0af2 44020000 		.4byte	.LVL290
 8971 0af6 6A020000 		.4byte	.LVL296
 8972 0afa 0100     		.2byte	0x1
 8973 0afc 57       		.byte	0x57
 8974 0afd 00030000 		.4byte	.LVL313
 8975 0b01 08030000 		.4byte	.LVL317
 8976 0b05 0100     		.2byte	0x1
 8977 0b07 57       		.byte	0x57
 8978 0b08 00000000 		.4byte	0
 8979 0b0c 00000000 		.4byte	0
 8980              	.LLST66:
 8981 0b10 5A000000 		.4byte	.LVL233
 8982 0b14 60000000 		.4byte	.LVL234
 8983 0b18 0100     		.2byte	0x1
 8984 0b1a 58       		.byte	0x58
ARM GAS  C:\Users\ABAD_S~1\AppData\Local\Temp\cckPFQC2.s 			page 179


 8985 0b1b 80000000 		.4byte	.LVL236
 8986 0b1f 86000000 		.4byte	.LVL237
 8987 0b23 0100     		.2byte	0x1
 8988 0b25 58       		.byte	0x58
 8989 0b26 8C000000 		.4byte	.LVL238
 8990 0b2a 94000000 		.4byte	.LVL239
 8991 0b2e 0200     		.2byte	0x2
 8992 0b30 30       		.byte	0x30
 8993 0b31 9F       		.byte	0x9f
 8994 0b32 94000000 		.4byte	.LVL239
 8995 0b36 26010000 		.4byte	.LVL259
 8996 0b3a 0100     		.2byte	0x1
 8997 0b3c 58       		.byte	0x58
 8998 0b3d 00000000 		.4byte	0
 8999 0b41 00000000 		.4byte	0
 9000              	.LLST67:
 9001 0b45 12000000 		.4byte	.LVL227
 9002 0b49 2A000000 		.4byte	.LVL231
 9003 0b4d 0200     		.2byte	0x2
 9004 0b4f 31       		.byte	0x31
 9005 0b50 9F       		.byte	0x9f
 9006 0b51 2A000000 		.4byte	.LVL231
 9007 0b55 F8020000 		.4byte	.LVL310
 9008 0b59 0200     		.2byte	0x2
 9009 0b5b 91       		.byte	0x91
 9010 0b5c 40       		.sleb128 -64
 9011 0b5d F8020000 		.4byte	.LVL310
 9012 0b61 FC020000 		.4byte	.LVL312
 9013 0b65 0200     		.2byte	0x2
 9014 0b67 31       		.byte	0x31
 9015 0b68 9F       		.byte	0x9f
 9016 0b69 FC020000 		.4byte	.LVL312
 9017 0b6d 16030000 		.4byte	.LVL321
 9018 0b71 0200     		.2byte	0x2
 9019 0b73 91       		.byte	0x91
 9020 0b74 40       		.sleb128 -64
 9021 0b75 00000000 		.4byte	0
 9022 0b79 00000000 		.4byte	0
 9023              	.LLST68:
 9024 0b7d 50010000 		.4byte	.LVL261
 9025 0b81 76010000 		.4byte	.LVL263
 9026 0b85 0100     		.2byte	0x1
 9027 0b87 50       		.byte	0x50
 9028 0b88 EA010000 		.4byte	.LVL275
 9029 0b8c F0010000 		.4byte	.LVL276
 9030 0b90 0100     		.2byte	0x1
 9031 0b92 50       		.byte	0x50
 9032 0b93 F0010000 		.4byte	.LVL276
 9033 0b97 F3010000 		.4byte	.LVL277-1
 9034 0b9b 0300     		.2byte	0x3
 9035 0b9d 70       		.byte	0x70
 9036 0b9e 74       		.sleb128 -12
 9037 0b9f 9F       		.byte	0x9f
 9038 0ba0 38020000 		.4byte	.LVL288
 9039 0ba4 46020000 		.4byte	.LVL291
 9040 0ba8 0100     		.2byte	0x1
 9041 0baa 50       		.byte	0x50
ARM GAS  C:\Users\ABAD_S~1\AppData\Local\Temp\cckPFQC2.s 			page 180


 9042 0bab AE020000 		.4byte	.LVL306
 9043 0baf DE020000 		.4byte	.LVL309
 9044 0bb3 0100     		.2byte	0x1
 9045 0bb5 50       		.byte	0x50
 9046 0bb6 10030000 		.4byte	.LVL318
 9047 0bba 12030000 		.4byte	.LVL319
 9048 0bbe 0100     		.2byte	0x1
 9049 0bc0 50       		.byte	0x50
 9050 0bc1 14030000 		.4byte	.LVL320
 9051 0bc5 16030000 		.4byte	.LVL321
 9052 0bc9 0100     		.2byte	0x1
 9053 0bcb 50       		.byte	0x50
 9054 0bcc 00000000 		.4byte	0
 9055 0bd0 00000000 		.4byte	0
 9056              	.LLST69:
 9057 0bd4 EA000000 		.4byte	.LVL247
 9058 0bd8 F6000000 		.4byte	.LVL250
 9059 0bdc 0200     		.2byte	0x2
 9060 0bde 30       		.byte	0x30
 9061 0bdf 9F       		.byte	0x9f
 9062 0be0 F6000000 		.4byte	.LVL250
 9063 0be4 04010000 		.4byte	.LVL252
 9064 0be8 0100     		.2byte	0x1
 9065 0bea 53       		.byte	0x53
 9066 0beb 06010000 		.4byte	.LVL253
 9067 0bef 14010000 		.4byte	.LVL257
 9068 0bf3 0100     		.2byte	0x1
 9069 0bf5 53       		.byte	0x53
 9070 0bf6 96010000 		.4byte	.LVL264
 9071 0bfa 98010000 		.4byte	.LVL265
 9072 0bfe 0100     		.2byte	0x1
 9073 0c00 53       		.byte	0x53
 9074 0c01 98010000 		.4byte	.LVL265
 9075 0c05 9A010000 		.4byte	.LVL266
 9076 0c09 0300     		.2byte	0x3
 9077 0c0b 73       		.byte	0x73
 9078 0c0c 7E       		.sleb128 -2
 9079 0c0d 9F       		.byte	0x9f
 9080 0c0e 9A010000 		.4byte	.LVL266
 9081 0c12 9E010000 		.4byte	.LVL267
 9082 0c16 0D00     		.2byte	0xd
 9083 0c18 75       		.byte	0x75
 9084 0c19 00       		.sleb128 0
 9085 0c1a 4F       		.byte	0x4f
 9086 0c1b 26       		.byte	0x26
 9087 0c1c 72       		.byte	0x72
 9088 0c1d 00       		.sleb128 0
 9089 0c1e 1A       		.byte	0x1a
 9090 0c1f 75       		.byte	0x75
 9091 0c20 00       		.sleb128 0
 9092 0c21 22       		.byte	0x22
 9093 0c22 33       		.byte	0x33
 9094 0c23 26       		.byte	0x26
 9095 0c24 9F       		.byte	0x9f
 9096 0c25 9E010000 		.4byte	.LVL267
 9097 0c29 BA010000 		.4byte	.LVL272
 9098 0c2d 0C00     		.2byte	0xc
ARM GAS  C:\Users\ABAD_S~1\AppData\Local\Temp\cckPFQC2.s 			page 181


 9099 0c2f 75       		.byte	0x75
 9100 0c30 00       		.sleb128 0
 9101 0c31 4F       		.byte	0x4f
 9102 0c32 26       		.byte	0x26
 9103 0c33 37       		.byte	0x37
 9104 0c34 1A       		.byte	0x1a
 9105 0c35 75       		.byte	0x75
 9106 0c36 00       		.sleb128 0
 9107 0c37 22       		.byte	0x22
 9108 0c38 33       		.byte	0x33
 9109 0c39 26       		.byte	0x26
 9110 0c3a 9F       		.byte	0x9f
 9111 0c3b 0E020000 		.4byte	.LVL282
 9112 0c3f 1E020000 		.4byte	.LVL284
 9113 0c43 0100     		.2byte	0x1
 9114 0c45 52       		.byte	0x52
 9115 0c46 1E020000 		.4byte	.LVL284
 9116 0c4a 32020000 		.4byte	.LVL287
 9117 0c4e 0600     		.2byte	0x6
 9118 0c50 75       		.byte	0x75
 9119 0c51 00       		.sleb128 0
 9120 0c52 70       		.byte	0x70
 9121 0c53 00       		.sleb128 0
 9122 0c54 1A       		.byte	0x1a
 9123 0c55 9F       		.byte	0x9f
 9124 0c56 32020000 		.4byte	.LVL287
 9125 0c5a 38020000 		.4byte	.LVL288
 9126 0c5e 0500     		.2byte	0x5
 9127 0c60 75       		.byte	0x75
 9128 0c61 00       		.sleb128 0
 9129 0c62 37       		.byte	0x37
 9130 0c63 1A       		.byte	0x1a
 9131 0c64 9F       		.byte	0x9f
 9132 0c65 66020000 		.4byte	.LVL295
 9133 0c69 70020000 		.4byte	.LVL297
 9134 0c6d 0200     		.2byte	0x2
 9135 0c6f 30       		.byte	0x30
 9136 0c70 9F       		.byte	0x9f
 9137 0c71 70020000 		.4byte	.LVL297
 9138 0c75 7E020000 		.4byte	.LVL299
 9139 0c79 0100     		.2byte	0x1
 9140 0c7b 53       		.byte	0x53
 9141 0c7c 80020000 		.4byte	.LVL300
 9142 0c80 8C020000 		.4byte	.LVL303
 9143 0c84 0100     		.2byte	0x1
 9144 0c86 53       		.byte	0x53
 9145 0c87 00000000 		.4byte	0
 9146 0c8b 00000000 		.4byte	0
 9147              	.LLST70:
 9148 0c8f 1A020000 		.4byte	.LVL283
 9149 0c93 2C020000 		.4byte	.LVL286
 9150 0c97 0100     		.2byte	0x1
 9151 0c99 53       		.byte	0x53
 9152 0c9a 2C020000 		.4byte	.LVL286
 9153 0c9e 32020000 		.4byte	.LVL287
 9154 0ca2 1600     		.2byte	0x16
 9155 0ca4 75       		.byte	0x75
ARM GAS  C:\Users\ABAD_S~1\AppData\Local\Temp\cckPFQC2.s 			page 182


 9156 0ca5 7F       		.sleb128 -1
 9157 0ca6 4F       		.byte	0x4f
 9158 0ca7 26       		.byte	0x26
 9159 0ca8 4D       		.byte	0x4d
 9160 0ca9 25       		.byte	0x25
 9161 0caa 75       		.byte	0x75
 9162 0cab 00       		.sleb128 0
 9163 0cac 22       		.byte	0x22
 9164 0cad 31       		.byte	0x31
 9165 0cae 1C       		.byte	0x1c
 9166 0caf 70       		.byte	0x70
 9167 0cb0 00       		.sleb128 0
 9168 0cb1 1A       		.byte	0x1a
 9169 0cb2 75       		.byte	0x75
 9170 0cb3 7F       		.sleb128 -1
 9171 0cb4 4F       		.byte	0x4f
 9172 0cb5 26       		.byte	0x26
 9173 0cb6 4D       		.byte	0x4d
 9174 0cb7 25       		.byte	0x25
 9175 0cb8 1C       		.byte	0x1c
 9176 0cb9 9F       		.byte	0x9f
 9177 0cba 32020000 		.4byte	.LVL287
 9178 0cbe 38020000 		.4byte	.LVL288
 9179 0cc2 1500     		.2byte	0x15
 9180 0cc4 75       		.byte	0x75
 9181 0cc5 7F       		.sleb128 -1
 9182 0cc6 4F       		.byte	0x4f
 9183 0cc7 26       		.byte	0x26
 9184 0cc8 4D       		.byte	0x4d
 9185 0cc9 25       		.byte	0x25
 9186 0cca 75       		.byte	0x75
 9187 0ccb 00       		.sleb128 0
 9188 0ccc 22       		.byte	0x22
 9189 0ccd 31       		.byte	0x31
 9190 0cce 1C       		.byte	0x1c
 9191 0ccf 37       		.byte	0x37
 9192 0cd0 1A       		.byte	0x1a
 9193 0cd1 75       		.byte	0x75
 9194 0cd2 7F       		.sleb128 -1
 9195 0cd3 4F       		.byte	0x4f
 9196 0cd4 26       		.byte	0x26
 9197 0cd5 4D       		.byte	0x4d
 9198 0cd6 25       		.byte	0x25
 9199 0cd7 1C       		.byte	0x1c
 9200 0cd8 9F       		.byte	0x9f
 9201 0cd9 00000000 		.4byte	0
 9202 0cdd 00000000 		.4byte	0
 9203              	.LLST71:
 9204 0ce1 A4000000 		.4byte	.LVL241
 9205 0ce5 AA000000 		.4byte	.LVL242
 9206 0ce9 0200     		.2byte	0x2
 9207 0ceb 32       		.byte	0x32
 9208 0cec 9F       		.byte	0x9f
 9209 0ced AA000000 		.4byte	.LVL242
 9210 0cf1 B4000000 		.4byte	.LVL243
 9211 0cf5 0200     		.2byte	0x2
 9212 0cf7 33       		.byte	0x33
ARM GAS  C:\Users\ABAD_S~1\AppData\Local\Temp\cckPFQC2.s 			page 183


 9213 0cf8 9F       		.byte	0x9f
 9214 0cf9 B4000000 		.4byte	.LVL243
 9215 0cfd B6000000 		.4byte	.LVL244
 9216 0d01 0200     		.2byte	0x2
 9217 0d03 32       		.byte	0x32
 9218 0d04 9F       		.byte	0x9f
 9219 0d05 B6000000 		.4byte	.LVL244
 9220 0d09 F8000000 		.4byte	.LVL251
 9221 0d0d 0100     		.2byte	0x1
 9222 0d0f 51       		.byte	0x51
 9223 0d10 F8000000 		.4byte	.LVL251
 9224 0d14 08010000 		.4byte	.LVL254
 9225 0d18 0100     		.2byte	0x1
 9226 0d1a 50       		.byte	0x50
 9227 0d1b 08010000 		.4byte	.LVL254
 9228 0d1f 28010000 		.4byte	.LVL260
 9229 0d23 0100     		.2byte	0x1
 9230 0d25 51       		.byte	0x51
 9231 0d26 9A010000 		.4byte	.LVL266
 9232 0d2a B4010000 		.4byte	.LVL271
 9233 0d2e 0100     		.2byte	0x1
 9234 0d30 53       		.byte	0x53
 9235 0d31 B4010000 		.4byte	.LVL271
 9236 0d35 BA010000 		.4byte	.LVL272
 9237 0d39 1100     		.2byte	0x11
 9238 0d3b 75       		.byte	0x75
 9239 0d3c 00       		.sleb128 0
 9240 0d3d 4F       		.byte	0x4f
 9241 0d3e 26       		.byte	0x26
 9242 0d3f 37       		.byte	0x37
 9243 0d40 1A       		.byte	0x1a
 9244 0d41 75       		.byte	0x75
 9245 0d42 00       		.sleb128 0
 9246 0d43 22       		.byte	0x22
 9247 0d44 33       		.byte	0x33
 9248 0d45 26       		.byte	0x26
 9249 0d46 08       		.byte	0x8
 9250 0d47 FF       		.byte	0xff
 9251 0d48 1A       		.byte	0x1a
 9252 0d49 23       		.byte	0x23
 9253 0d4a 02       		.uleb128 0x2
 9254 0d4b 9F       		.byte	0x9f
 9255 0d4c 26020000 		.4byte	.LVL285
 9256 0d50 38020000 		.4byte	.LVL288
 9257 0d54 0100     		.2byte	0x1
 9258 0d56 52       		.byte	0x52
 9259 0d57 5C020000 		.4byte	.LVL292
 9260 0d5b 74020000 		.4byte	.LVL298
 9261 0d5f 0100     		.2byte	0x1
 9262 0d61 51       		.byte	0x51
 9263 0d62 74020000 		.4byte	.LVL298
 9264 0d66 82020000 		.4byte	.LVL301
 9265 0d6a 0100     		.2byte	0x1
 9266 0d6c 50       		.byte	0x50
 9267 0d6d 82020000 		.4byte	.LVL301
 9268 0d71 A8020000 		.4byte	.LVL305
 9269 0d75 0100     		.2byte	0x1
ARM GAS  C:\Users\ABAD_S~1\AppData\Local\Temp\cckPFQC2.s 			page 184


 9270 0d77 51       		.byte	0x51
 9271 0d78 08030000 		.4byte	.LVL317
 9272 0d7c 10030000 		.4byte	.LVL318
 9273 0d80 0100     		.2byte	0x1
 9274 0d82 51       		.byte	0x51
 9275 0d83 00000000 		.4byte	0
 9276 0d87 00000000 		.4byte	0
 9277              	.LLST72:
 9278 0d8b 40000000 		.4byte	.LVL232
 9279 0d8f 60000000 		.4byte	.LVL234
 9280 0d93 0200     		.2byte	0x2
 9281 0d95 30       		.byte	0x30
 9282 0d96 9F       		.byte	0x9f
 9283 0d97 66000000 		.4byte	.LVL235
 9284 0d9b 86000000 		.4byte	.LVL237
 9285 0d9f 0200     		.2byte	0x2
 9286 0da1 33       		.byte	0x33
 9287 0da2 9F       		.byte	0x9f
 9288 0da3 8C000000 		.4byte	.LVL238
 9289 0da7 94000000 		.4byte	.LVL239
 9290 0dab 0200     		.2byte	0x2
 9291 0dad 36       		.byte	0x36
 9292 0dae 9F       		.byte	0x9f
 9293 0daf 94000000 		.4byte	.LVL239
 9294 0db3 0E010000 		.4byte	.LVL255
 9295 0db7 0100     		.2byte	0x1
 9296 0db9 5B       		.byte	0x5b
 9297 0dba 00000000 		.4byte	0
 9298 0dbe 00000000 		.4byte	0
 9299              	.LLST73:
 9300 0dc2 9E000000 		.4byte	.LVL240
 9301 0dc6 F2000000 		.4byte	.LVL248
 9302 0dca 0100     		.2byte	0x1
 9303 0dcc 55       		.byte	0x55
 9304 0dcd F2000000 		.4byte	.LVL248
 9305 0dd1 20010000 		.4byte	.LVL258
 9306 0dd5 0100     		.2byte	0x1
 9307 0dd7 5C       		.byte	0x5c
 9308 0dd8 28010000 		.4byte	.LVL260
 9309 0ddc 62020000 		.4byte	.LVL293
 9310 0de0 0100     		.2byte	0x1
 9311 0de2 55       		.byte	0x55
 9312 0de3 64020000 		.4byte	.LVL294
 9313 0de7 66020000 		.4byte	.LVL295
 9314 0deb 0100     		.2byte	0x1
 9315 0ded 55       		.byte	0x55
 9316 0dee 00030000 		.4byte	.LVL313
 9317 0df2 08030000 		.4byte	.LVL317
 9318 0df6 0100     		.2byte	0x1
 9319 0df8 55       		.byte	0x55
 9320 0df9 00000000 		.4byte	0
 9321 0dfd 00000000 		.4byte	0
 9322              	.LLST74:
 9323 0e01 62010000 		.4byte	.LVL262
 9324 0e05 76010000 		.4byte	.LVL263
 9325 0e09 0200     		.2byte	0x2
 9326 0e0b 39       		.byte	0x39
ARM GAS  C:\Users\ABAD_S~1\AppData\Local\Temp\cckPFQC2.s 			page 185


 9327 0e0c 9F       		.byte	0x9f
 9328 0e0d AC010000 		.4byte	.LVL268
 9329 0e11 46020000 		.4byte	.LVL291
 9330 0e15 0100     		.2byte	0x1
 9331 0e17 59       		.byte	0x59
 9332 0e18 00030000 		.4byte	.LVL313
 9333 0e1c 08030000 		.4byte	.LVL317
 9334 0e20 0100     		.2byte	0x1
 9335 0e22 59       		.byte	0x59
 9336 0e23 00000000 		.4byte	0
 9337 0e27 00000000 		.4byte	0
 9338              	.LLST75:
 9339 0e2b C4010000 		.4byte	.LVL273
 9340 0e2f 46020000 		.4byte	.LVL291
 9341 0e33 0100     		.2byte	0x1
 9342 0e35 56       		.byte	0x56
 9343 0e36 00030000 		.4byte	.LVL313
 9344 0e3a 08030000 		.4byte	.LVL317
 9345 0e3e 0100     		.2byte	0x1
 9346 0e40 56       		.byte	0x56
 9347 0e41 00000000 		.4byte	0
 9348 0e45 00000000 		.4byte	0
 9349              	.LLST76:
 9350 0e49 2A000000 		.4byte	.LVL231
 9351 0e4d F6000000 		.4byte	.LVL250
 9352 0e51 0100     		.2byte	0x1
 9353 0e53 56       		.byte	0x56
 9354 0e54 F6000000 		.4byte	.LVL250
 9355 0e58 12010000 		.4byte	.LVL256
 9356 0e5c 0100     		.2byte	0x1
 9357 0e5e 5A       		.byte	0x5a
 9358 0e5f 12010000 		.4byte	.LVL256
 9359 0e63 28010000 		.4byte	.LVL260
 9360 0e67 0100     		.2byte	0x1
 9361 0e69 56       		.byte	0x56
 9362 0e6a 28010000 		.4byte	.LVL260
 9363 0e6e 62010000 		.4byte	.LVL262
 9364 0e72 0100     		.2byte	0x1
 9365 0e74 58       		.byte	0x58
 9366 0e75 62010000 		.4byte	.LVL262
 9367 0e79 76010000 		.4byte	.LVL263
 9368 0e7d 0300     		.2byte	0x3
 9369 0e7f 91       		.byte	0x91
 9370 0e80 52       		.sleb128 -46
 9371 0e81 9F       		.byte	0x9f
 9372 0e82 76010000 		.4byte	.LVL263
 9373 0e86 AE010000 		.4byte	.LVL269
 9374 0e8a 0100     		.2byte	0x1
 9375 0e8c 58       		.byte	0x58
 9376 0e8d B0010000 		.4byte	.LVL270
 9377 0e91 98020000 		.4byte	.LVL304
 9378 0e95 0100     		.2byte	0x1
 9379 0e97 58       		.byte	0x58
 9380 0e98 98020000 		.4byte	.LVL304
 9381 0e9c F8020000 		.4byte	.LVL310
 9382 0ea0 0100     		.2byte	0x1
 9383 0ea2 56       		.byte	0x56
ARM GAS  C:\Users\ABAD_S~1\AppData\Local\Temp\cckPFQC2.s 			page 186


 9384 0ea3 FC020000 		.4byte	.LVL312
 9385 0ea7 00030000 		.4byte	.LVL313
 9386 0eab 0100     		.2byte	0x1
 9387 0ead 56       		.byte	0x56
 9388 0eae 00030000 		.4byte	.LVL313
 9389 0eb2 08030000 		.4byte	.LVL317
 9390 0eb6 0100     		.2byte	0x1
 9391 0eb8 58       		.byte	0x58
 9392 0eb9 08030000 		.4byte	.LVL317
 9393 0ebd 16030000 		.4byte	.LVL321
 9394 0ec1 0100     		.2byte	0x1
 9395 0ec3 56       		.byte	0x56
 9396 0ec4 00000000 		.4byte	0
 9397 0ec8 00000000 		.4byte	0
 9398              	.LLST77:
 9399 0ecc D4000000 		.4byte	.LVL245
 9400 0ed0 EA000000 		.4byte	.LVL247
 9401 0ed4 0100     		.2byte	0x1
 9402 0ed6 53       		.byte	0x53
 9403 0ed7 EA000000 		.4byte	.LVL247
 9404 0edb 14010000 		.4byte	.LVL257
 9405 0edf 0100     		.2byte	0x1
 9406 0ee1 57       		.byte	0x57
 9407 0ee2 66020000 		.4byte	.LVL295
 9408 0ee6 DE020000 		.4byte	.LVL309
 9409 0eea 0100     		.2byte	0x1
 9410 0eec 55       		.byte	0x55
 9411 0eed 08030000 		.4byte	.LVL317
 9412 0ef1 16030000 		.4byte	.LVL321
 9413 0ef5 0100     		.2byte	0x1
 9414 0ef7 55       		.byte	0x55
 9415 0ef8 00000000 		.4byte	0
 9416 0efc 00000000 		.4byte	0
 9417              	.LLST78:
 9418 0f00 E4000000 		.4byte	.LVL246
 9419 0f04 EA000000 		.4byte	.LVL247
 9420 0f08 0100     		.2byte	0x1
 9421 0f0a 57       		.byte	0x57
 9422 0f0b 00000000 		.4byte	0
 9423 0f0f 00000000 		.4byte	0
 9424              	.LLST79:
 9425 0f13 F4010000 		.4byte	.LVL277
 9426 0f17 FE010000 		.4byte	.LVL278
 9427 0f1b 0100     		.2byte	0x1
 9428 0f1d 50       		.byte	0x50
 9429 0f1e 00030000 		.4byte	.LVL313
 9430 0f22 02030000 		.4byte	.LVL314
 9431 0f26 0100     		.2byte	0x1
 9432 0f28 50       		.byte	0x50
 9433 0f29 00000000 		.4byte	0
 9434 0f2d 00000000 		.4byte	0
 9435              	.LLST80:
 9436 0f31 FE010000 		.4byte	.LVL278
 9437 0f35 0A020000 		.4byte	.LVL281
 9438 0f39 0100     		.2byte	0x1
 9439 0f3b 50       		.byte	0x50
 9440 0f3c 0A020000 		.4byte	.LVL281
ARM GAS  C:\Users\ABAD_S~1\AppData\Local\Temp\cckPFQC2.s 			page 187


 9441 0f40 38020000 		.4byte	.LVL288
 9442 0f44 0100     		.2byte	0x1
 9443 0f46 55       		.byte	0x55
 9444 0f47 04030000 		.4byte	.LVL315
 9445 0f4b 06030000 		.4byte	.LVL316
 9446 0f4f 0100     		.2byte	0x1
 9447 0f51 50       		.byte	0x50
 9448 0f52 00000000 		.4byte	0
 9449 0f56 00000000 		.4byte	0
 9450              	.LLST81:
 9451 0f5a 18000000 		.4byte	.LVL323
 9452 0f5e 2A000000 		.4byte	.LVL324
 9453 0f62 0100     		.2byte	0x1
 9454 0f64 50       		.byte	0x50
 9455 0f65 2E000000 		.4byte	.LVL325
 9456 0f69 38000000 		.4byte	.LVL326
 9457 0f6d 0100     		.2byte	0x1
 9458 0f6f 50       		.byte	0x50
 9459 0f70 3A000000 		.4byte	.LVL327
 9460 0f74 3C000000 		.4byte	.LVL328
 9461 0f78 0100     		.2byte	0x1
 9462 0f7a 50       		.byte	0x50
 9463 0f7b 00000000 		.4byte	0
 9464 0f7f 00000000 		.4byte	0
 9465              	.LLST82:
 9466 0f83 00000000 		.4byte	.LVL329
 9467 0f87 0E000000 		.4byte	.LVL333
 9468 0f8b 0100     		.2byte	0x1
 9469 0f8d 50       		.byte	0x50
 9470 0f8e 0E000000 		.4byte	.LVL333
 9471 0f92 58000000 		.4byte	.LFE56
 9472 0f96 0400     		.2byte	0x4
 9473 0f98 F3       		.byte	0xf3
 9474 0f99 01       		.uleb128 0x1
 9475 0f9a 50       		.byte	0x50
 9476 0f9b 9F       		.byte	0x9f
 9477 0f9c 00000000 		.4byte	0
 9478 0fa0 00000000 		.4byte	0
 9479              	.LLST83:
 9480 0fa4 00000000 		.4byte	.LVL329
 9481 0fa8 0C000000 		.4byte	.LVL332
 9482 0fac 0100     		.2byte	0x1
 9483 0fae 51       		.byte	0x51
 9484 0faf 0C000000 		.4byte	.LVL332
 9485 0fb3 0E000000 		.4byte	.LVL333
 9486 0fb7 0200     		.2byte	0x2
 9487 0fb9 74       		.byte	0x74
 9488 0fba 01       		.sleb128 1
 9489 0fbb 0E000000 		.4byte	.LVL333
 9490 0fbf 58000000 		.4byte	.LFE56
 9491 0fc3 0400     		.2byte	0x4
 9492 0fc5 F3       		.byte	0xf3
 9493 0fc6 01       		.uleb128 0x1
 9494 0fc7 51       		.byte	0x51
 9495 0fc8 9F       		.byte	0x9f
 9496 0fc9 00000000 		.4byte	0
 9497 0fcd 00000000 		.4byte	0
ARM GAS  C:\Users\ABAD_S~1\AppData\Local\Temp\cckPFQC2.s 			page 188


 9498              	.LLST84:
 9499 0fd1 00000000 		.4byte	.LVL329
 9500 0fd5 22000000 		.4byte	.LVL337
 9501 0fd9 0100     		.2byte	0x1
 9502 0fdb 52       		.byte	0x52
 9503 0fdc 22000000 		.4byte	.LVL337
 9504 0fe0 58000000 		.4byte	.LFE56
 9505 0fe4 0400     		.2byte	0x4
 9506 0fe6 F3       		.byte	0xf3
 9507 0fe7 01       		.uleb128 0x1
 9508 0fe8 52       		.byte	0x52
 9509 0fe9 9F       		.byte	0x9f
 9510 0fea 00000000 		.4byte	0
 9511 0fee 00000000 		.4byte	0
 9512              	.LLST85:
 9513 0ff2 00000000 		.4byte	.LVL329
 9514 0ff6 3E000000 		.4byte	.LVL340
 9515 0ffa 0100     		.2byte	0x1
 9516 0ffc 53       		.byte	0x53
 9517 0ffd 3E000000 		.4byte	.LVL340
 9518 1001 58000000 		.4byte	.LFE56
 9519 1005 0400     		.2byte	0x4
 9520 1007 F3       		.byte	0xf3
 9521 1008 01       		.uleb128 0x1
 9522 1009 53       		.byte	0x53
 9523 100a 9F       		.byte	0x9f
 9524 100b 00000000 		.4byte	0
 9525 100f 00000000 		.4byte	0
 9526              	.LLST86:
 9527 1013 0A000000 		.4byte	.LVL331
 9528 1017 0E000000 		.4byte	.LVL333
 9529 101b 0200     		.2byte	0x2
 9530 101d 30       		.byte	0x30
 9531 101e 9F       		.byte	0x9f
 9532 101f 0E000000 		.4byte	.LVL333
 9533 1023 18000000 		.4byte	.LVL334
 9534 1027 0100     		.2byte	0x1
 9535 1029 51       		.byte	0x51
 9536 102a 1A000000 		.4byte	.LVL335
 9537 102e 20000000 		.4byte	.LVL336
 9538 1032 0100     		.2byte	0x1
 9539 1034 51       		.byte	0x51
 9540 1035 00000000 		.4byte	0
 9541 1039 00000000 		.4byte	0
 9542              	.LLST87:
 9543 103d 22000000 		.4byte	.LVL337
 9544 1041 36000000 		.4byte	.LVL338
 9545 1045 0100     		.2byte	0x1
 9546 1047 51       		.byte	0x51
 9547 1048 38000000 		.4byte	.LVL339
 9548 104c 4E000000 		.4byte	.LVL341
 9549 1050 0100     		.2byte	0x1
 9550 1052 51       		.byte	0x51
 9551 1053 00000000 		.4byte	0
 9552 1057 00000000 		.4byte	0
 9553              	.LLST88:
 9554 105b 00000000 		.4byte	.LVL344
ARM GAS  C:\Users\ABAD_S~1\AppData\Local\Temp\cckPFQC2.s 			page 189


 9555 105f 1E000000 		.4byte	.LVL347
 9556 1063 0100     		.2byte	0x1
 9557 1065 50       		.byte	0x50
 9558 1066 1E000000 		.4byte	.LVL347
 9559 106a 21000000 		.4byte	.LVL348-1
 9560 106e 0200     		.2byte	0x2
 9561 1070 74       		.byte	0x74
 9562 1071 01       		.sleb128 1
 9563 1072 21000000 		.4byte	.LVL348-1
 9564 1076 3E000000 		.4byte	.LVL351
 9565 107a 0400     		.2byte	0x4
 9566 107c F3       		.byte	0xf3
 9567 107d 01       		.uleb128 0x1
 9568 107e 50       		.byte	0x50
 9569 107f 9F       		.byte	0x9f
 9570 1080 3E000000 		.4byte	.LVL351
 9571 1084 40000000 		.4byte	.LVL352
 9572 1088 0100     		.2byte	0x1
 9573 108a 50       		.byte	0x50
 9574 108b 40000000 		.4byte	.LVL352
 9575 108f 42000000 		.4byte	.LVL353
 9576 1093 0400     		.2byte	0x4
 9577 1095 F3       		.byte	0xf3
 9578 1096 01       		.uleb128 0x1
 9579 1097 50       		.byte	0x50
 9580 1098 9F       		.byte	0x9f
 9581 1099 42000000 		.4byte	.LVL353
 9582 109d 44000000 		.4byte	.LVL354
 9583 10a1 0100     		.2byte	0x1
 9584 10a3 50       		.byte	0x50
 9585 10a4 44000000 		.4byte	.LVL354
 9586 10a8 48000000 		.4byte	.LFE58
 9587 10ac 0400     		.2byte	0x4
 9588 10ae F3       		.byte	0xf3
 9589 10af 01       		.uleb128 0x1
 9590 10b0 50       		.byte	0x50
 9591 10b1 9F       		.byte	0x9f
 9592 10b2 00000000 		.4byte	0
 9593 10b6 00000000 		.4byte	0
 9594              	.LLST89:
 9595 10ba 00000000 		.4byte	.LVL344
 9596 10be 1C000000 		.4byte	.LVL346
 9597 10c2 0100     		.2byte	0x1
 9598 10c4 51       		.byte	0x51
 9599 10c5 1C000000 		.4byte	.LVL346
 9600 10c9 3E000000 		.4byte	.LVL351
 9601 10cd 0100     		.2byte	0x1
 9602 10cf 54       		.byte	0x54
 9603 10d0 3E000000 		.4byte	.LVL351
 9604 10d4 44000000 		.4byte	.LVL354
 9605 10d8 0100     		.2byte	0x1
 9606 10da 51       		.byte	0x51
 9607 10db 44000000 		.4byte	.LVL354
 9608 10df 46000000 		.4byte	.LVL355
 9609 10e3 0100     		.2byte	0x1
 9610 10e5 54       		.byte	0x54
 9611 10e6 46000000 		.4byte	.LVL355
ARM GAS  C:\Users\ABAD_S~1\AppData\Local\Temp\cckPFQC2.s 			page 190


 9612 10ea 48000000 		.4byte	.LFE58
 9613 10ee 0400     		.2byte	0x4
 9614 10f0 F3       		.byte	0xf3
 9615 10f1 01       		.uleb128 0x1
 9616 10f2 51       		.byte	0x51
 9617 10f3 9F       		.byte	0x9f
 9618 10f4 00000000 		.4byte	0
 9619 10f8 00000000 		.4byte	0
 9620              	.LLST90:
 9621 10fc 00000000 		.4byte	.LVL344
 9622 1100 1A000000 		.4byte	.LVL345
 9623 1104 0100     		.2byte	0x1
 9624 1106 52       		.byte	0x52
 9625 1107 1A000000 		.4byte	.LVL345
 9626 110b 3E000000 		.4byte	.LVL351
 9627 110f 0100     		.2byte	0x1
 9628 1111 55       		.byte	0x55
 9629 1112 3E000000 		.4byte	.LVL351
 9630 1116 44000000 		.4byte	.LVL354
 9631 111a 0100     		.2byte	0x1
 9632 111c 52       		.byte	0x52
 9633 111d 44000000 		.4byte	.LVL354
 9634 1121 46000000 		.4byte	.LVL356
 9635 1125 0100     		.2byte	0x1
 9636 1127 55       		.byte	0x55
 9637 1128 46000000 		.4byte	.LVL356
 9638 112c 48000000 		.4byte	.LFE58
 9639 1130 0400     		.2byte	0x4
 9640 1132 F3       		.byte	0xf3
 9641 1133 01       		.uleb128 0x1
 9642 1134 52       		.byte	0x52
 9643 1135 9F       		.byte	0x9f
 9644 1136 00000000 		.4byte	0
 9645 113a 00000000 		.4byte	0
 9646              	.LLST91:
 9647 113e 22000000 		.4byte	.LVL348
 9648 1142 38000000 		.4byte	.LVL349
 9649 1146 0100     		.2byte	0x1
 9650 1148 50       		.byte	0x50
 9651 1149 00000000 		.4byte	0
 9652 114d 00000000 		.4byte	0
 9653              	.LLST92:
 9654 1151 00000000 		.4byte	.LVL357
 9655 1155 13000000 		.4byte	.LVL359-1
 9656 1159 0100     		.2byte	0x1
 9657 115b 50       		.byte	0x50
 9658 115c 13000000 		.4byte	.LVL359-1
 9659 1160 34000000 		.4byte	.LFE66
 9660 1164 0400     		.2byte	0x4
 9661 1166 F3       		.byte	0xf3
 9662 1167 01       		.uleb128 0x1
 9663 1168 50       		.byte	0x50
 9664 1169 9F       		.byte	0x9f
 9665 116a 00000000 		.4byte	0
 9666 116e 00000000 		.4byte	0
 9667              	.LLST93:
 9668 1172 00000000 		.4byte	.LVL357
ARM GAS  C:\Users\ABAD_S~1\AppData\Local\Temp\cckPFQC2.s 			page 191


 9669 1176 10000000 		.4byte	.LVL358
 9670 117a 0100     		.2byte	0x1
 9671 117c 51       		.byte	0x51
 9672 117d 10000000 		.4byte	.LVL358
 9673 1181 32000000 		.4byte	.LVL367
 9674 1185 0100     		.2byte	0x1
 9675 1187 54       		.byte	0x54
 9676 1188 32000000 		.4byte	.LVL367
 9677 118c 34000000 		.4byte	.LFE66
 9678 1190 0400     		.2byte	0x4
 9679 1192 F3       		.byte	0xf3
 9680 1193 01       		.uleb128 0x1
 9681 1194 51       		.byte	0x51
 9682 1195 9F       		.byte	0x9f
 9683 1196 00000000 		.4byte	0
 9684 119a 00000000 		.4byte	0
 9685              	.LLST94:
 9686 119e 1E000000 		.4byte	.LVL360
 9687 11a2 22000000 		.4byte	.LVL361
 9688 11a6 0100     		.2byte	0x1
 9689 11a8 53       		.byte	0x53
 9690 11a9 22000000 		.4byte	.LVL361
 9691 11ad 24000000 		.4byte	.LVL362
 9692 11b1 0A00     		.2byte	0xa
 9693 11b3 72       		.byte	0x72
 9694 11b4 03       		.sleb128 3
 9695 11b5 94       		.byte	0x94
 9696 11b6 01       		.byte	0x1
 9697 11b7 08       		.byte	0x8
 9698 11b8 FF       		.byte	0xff
 9699 11b9 1A       		.byte	0x1a
 9700 11ba 38       		.byte	0x38
 9701 11bb 24       		.byte	0x24
 9702 11bc 9F       		.byte	0x9f
 9703 11bd 24000000 		.4byte	.LVL362
 9704 11c1 28000000 		.4byte	.LVL363
 9705 11c5 0100     		.2byte	0x1
 9706 11c7 53       		.byte	0x53
 9707 11c8 28000000 		.4byte	.LVL363
 9708 11cc 2A000000 		.4byte	.LVL364
 9709 11d0 1400     		.2byte	0x14
 9710 11d2 72       		.byte	0x72
 9711 11d3 03       		.sleb128 3
 9712 11d4 94       		.byte	0x94
 9713 11d5 01       		.byte	0x1
 9714 11d6 08       		.byte	0x8
 9715 11d7 FF       		.byte	0xff
 9716 11d8 1A       		.byte	0x1a
 9717 11d9 38       		.byte	0x38
 9718 11da 24       		.byte	0x24
 9719 11db 72       		.byte	0x72
 9720 11dc 02       		.sleb128 2
 9721 11dd 94       		.byte	0x94
 9722 11de 01       		.byte	0x1
 9723 11df 08       		.byte	0x8
 9724 11e0 FF       		.byte	0xff
 9725 11e1 1A       		.byte	0x1a
ARM GAS  C:\Users\ABAD_S~1\AppData\Local\Temp\cckPFQC2.s 			page 192


 9726 11e2 21       		.byte	0x21
 9727 11e3 38       		.byte	0x38
 9728 11e4 24       		.byte	0x24
 9729 11e5 9F       		.byte	0x9f
 9730 11e6 2A000000 		.4byte	.LVL364
 9731 11ea 2E000000 		.4byte	.LVL365
 9732 11ee 0100     		.2byte	0x1
 9733 11f0 53       		.byte	0x53
 9734 11f1 2E000000 		.4byte	.LVL365
 9735 11f5 30000000 		.4byte	.LVL366
 9736 11f9 1900     		.2byte	0x19
 9737 11fb 91       		.byte	0x91
 9738 11fc 67       		.sleb128 -25
 9739 11fd 94       		.byte	0x94
 9740 11fe 01       		.byte	0x1
 9741 11ff 08       		.byte	0x8
 9742 1200 FF       		.byte	0xff
 9743 1201 1A       		.byte	0x1a
 9744 1202 38       		.byte	0x38
 9745 1203 24       		.byte	0x24
 9746 1204 91       		.byte	0x91
 9747 1205 66       		.sleb128 -26
 9748 1206 94       		.byte	0x94
 9749 1207 01       		.byte	0x1
 9750 1208 08       		.byte	0x8
 9751 1209 FF       		.byte	0xff
 9752 120a 1A       		.byte	0x1a
 9753 120b 21       		.byte	0x21
 9754 120c 38       		.byte	0x38
 9755 120d 24       		.byte	0x24
 9756 120e 71       		.byte	0x71
 9757 120f 00       		.sleb128 0
 9758 1210 21       		.byte	0x21
 9759 1211 38       		.byte	0x38
 9760 1212 24       		.byte	0x24
 9761 1213 9F       		.byte	0x9f
 9762 1214 00000000 		.4byte	0
 9763 1218 00000000 		.4byte	0
 9764              	.LLST95:
 9765 121c 00000000 		.4byte	.LVL368
 9766 1220 26000000 		.4byte	.LVL373
 9767 1224 0100     		.2byte	0x1
 9768 1226 50       		.byte	0x50
 9769 1227 26000000 		.4byte	.LVL373
 9770 122b 62000000 		.4byte	.LFE68
 9771 122f 0400     		.2byte	0x4
 9772 1231 F3       		.byte	0xf3
 9773 1232 01       		.uleb128 0x1
 9774 1233 50       		.byte	0x50
 9775 1234 9F       		.byte	0x9f
 9776 1235 00000000 		.4byte	0
 9777 1239 00000000 		.4byte	0
 9778              	.LLST96:
 9779 123d 00000000 		.4byte	.LVL368
 9780 1241 10000000 		.4byte	.LVL370
 9781 1245 0100     		.2byte	0x1
 9782 1247 51       		.byte	0x51
ARM GAS  C:\Users\ABAD_S~1\AppData\Local\Temp\cckPFQC2.s 			page 193


 9783 1248 10000000 		.4byte	.LVL370
 9784 124c 60000000 		.4byte	.LVL379
 9785 1250 0100     		.2byte	0x1
 9786 1252 54       		.byte	0x54
 9787 1253 60000000 		.4byte	.LVL379
 9788 1257 62000000 		.4byte	.LFE68
 9789 125b 0400     		.2byte	0x4
 9790 125d F3       		.byte	0xf3
 9791 125e 01       		.uleb128 0x1
 9792 125f 51       		.byte	0x51
 9793 1260 9F       		.byte	0x9f
 9794 1261 00000000 		.4byte	0
 9795 1265 00000000 		.4byte	0
 9796              	.LLST97:
 9797 1269 2A000000 		.4byte	.LVL374
 9798 126d 3C000000 		.4byte	.LVL376
 9799 1271 0100     		.2byte	0x1
 9800 1273 50       		.byte	0x50
 9801 1274 56000000 		.4byte	.LVL377
 9802 1278 62000000 		.4byte	.LFE68
 9803 127c 0100     		.2byte	0x1
 9804 127e 50       		.byte	0x50
 9805 127f 00000000 		.4byte	0
 9806 1283 00000000 		.4byte	0
 9807              	.LLST98:
 9808 1287 2E000000 		.4byte	.LVL375
 9809 128b 5E000000 		.4byte	.LVL378
 9810 128f 0300     		.2byte	0x3
 9811 1291 08       		.byte	0x8
 9812 1292 30       		.byte	0x30
 9813 1293 9F       		.byte	0x9f
 9814 1294 00000000 		.4byte	0
 9815 1298 00000000 		.4byte	0
 9816              	.LLST99:
 9817 129c 0C000000 		.4byte	.LVL369
 9818 12a0 10000000 		.4byte	.LVL370
 9819 12a4 0200     		.2byte	0x2
 9820 12a6 30       		.byte	0x30
 9821 12a7 9F       		.byte	0x9f
 9822 12a8 10000000 		.4byte	.LVL370
 9823 12ac 16000000 		.4byte	.LVL371
 9824 12b0 0100     		.2byte	0x1
 9825 12b2 53       		.byte	0x53
 9826 12b3 1A000000 		.4byte	.LVL372
 9827 12b7 29000000 		.4byte	.LVL374-1
 9828 12bb 0100     		.2byte	0x1
 9829 12bd 53       		.byte	0x53
 9830 12be 00000000 		.4byte	0
 9831 12c2 00000000 		.4byte	0
 9832              	.LLST100:
 9833 12c6 00000000 		.4byte	.LVL380
 9834 12ca 16000000 		.4byte	.LVL383
 9835 12ce 0100     		.2byte	0x1
 9836 12d0 50       		.byte	0x50
 9837 12d1 16000000 		.4byte	.LVL383
 9838 12d5 19000000 		.4byte	.LVL384-1
 9839 12d9 0100     		.2byte	0x1
ARM GAS  C:\Users\ABAD_S~1\AppData\Local\Temp\cckPFQC2.s 			page 194


 9840 12db 51       		.byte	0x51
 9841 12dc 19000000 		.4byte	.LVL384-1
 9842 12e0 80000000 		.4byte	.LVL391
 9843 12e4 0400     		.2byte	0x4
 9844 12e6 F3       		.byte	0xf3
 9845 12e7 01       		.uleb128 0x1
 9846 12e8 50       		.byte	0x50
 9847 12e9 9F       		.byte	0x9f
 9848 12ea 80000000 		.4byte	.LVL391
 9849 12ee 82000000 		.4byte	.LVL392
 9850 12f2 0100     		.2byte	0x1
 9851 12f4 50       		.byte	0x50
 9852 12f5 82000000 		.4byte	.LVL392
 9853 12f9 84000000 		.4byte	.LVL393
 9854 12fd 0400     		.2byte	0x4
 9855 12ff F3       		.byte	0xf3
 9856 1300 01       		.uleb128 0x1
 9857 1301 50       		.byte	0x50
 9858 1302 9F       		.byte	0x9f
 9859 1303 84000000 		.4byte	.LVL393
 9860 1307 86000000 		.4byte	.LVL394
 9861 130b 0100     		.2byte	0x1
 9862 130d 50       		.byte	0x50
 9863 130e 86000000 		.4byte	.LVL394
 9864 1312 96000000 		.4byte	.LFE69
 9865 1316 0400     		.2byte	0x4
 9866 1318 F3       		.byte	0xf3
 9867 1319 01       		.uleb128 0x1
 9868 131a 50       		.byte	0x50
 9869 131b 9F       		.byte	0x9f
 9870 131c 00000000 		.4byte	0
 9871 1320 00000000 		.4byte	0
 9872              	.LLST101:
 9873 1324 00000000 		.4byte	.LVL380
 9874 1328 14000000 		.4byte	.LVL382
 9875 132c 0100     		.2byte	0x1
 9876 132e 51       		.byte	0x51
 9877 132f 14000000 		.4byte	.LVL382
 9878 1333 2E000000 		.4byte	.LVL386
 9879 1337 0400     		.2byte	0x4
 9880 1339 F3       		.byte	0xf3
 9881 133a 01       		.uleb128 0x1
 9882 133b 51       		.byte	0x51
 9883 133c 9F       		.byte	0x9f
 9884 133d 2E000000 		.4byte	.LVL386
 9885 1341 51000000 		.4byte	.LVL388-1
 9886 1345 0100     		.2byte	0x1
 9887 1347 53       		.byte	0x53
 9888 1348 80000000 		.4byte	.LVL391
 9889 134c 88000000 		.4byte	.LVL395
 9890 1350 0100     		.2byte	0x1
 9891 1352 51       		.byte	0x51
 9892 1353 00000000 		.4byte	0
 9893 1357 00000000 		.4byte	0
 9894              	.LLST102:
 9895 135b 00000000 		.4byte	.LVL380
 9896 135f 12000000 		.4byte	.LVL381
ARM GAS  C:\Users\ABAD_S~1\AppData\Local\Temp\cckPFQC2.s 			page 195


 9897 1363 0100     		.2byte	0x1
 9898 1365 52       		.byte	0x52
 9899 1366 12000000 		.4byte	.LVL381
 9900 136a 80000000 		.4byte	.LVL391
 9901 136e 0400     		.2byte	0x4
 9902 1370 F3       		.byte	0xf3
 9903 1371 01       		.uleb128 0x1
 9904 1372 52       		.byte	0x52
 9905 1373 9F       		.byte	0x9f
 9906 1374 80000000 		.4byte	.LVL391
 9907 1378 88000000 		.4byte	.LVL395
 9908 137c 0100     		.2byte	0x1
 9909 137e 52       		.byte	0x52
 9910 137f 88000000 		.4byte	.LVL395
 9911 1383 96000000 		.4byte	.LFE69
 9912 1387 0400     		.2byte	0x4
 9913 1389 F3       		.byte	0xf3
 9914 138a 01       		.uleb128 0x1
 9915 138b 52       		.byte	0x52
 9916 138c 9F       		.byte	0x9f
 9917 138d 00000000 		.4byte	0
 9918 1391 00000000 		.4byte	0
 9919              	.LLST103:
 9920 1395 26000000 		.4byte	.LVL385
 9921 1399 30000000 		.4byte	.LVL387
 9922 139d 0100     		.2byte	0x1
 9923 139f 50       		.byte	0x50
 9924 13a0 54000000 		.4byte	.LVL389
 9925 13a4 66000000 		.4byte	.LVL390
 9926 13a8 0100     		.2byte	0x1
 9927 13aa 50       		.byte	0x50
 9928 13ab 88000000 		.4byte	.LVL395
 9929 13af 8A000000 		.4byte	.LVL396
 9930 13b3 0100     		.2byte	0x1
 9931 13b5 50       		.byte	0x50
 9932 13b6 00000000 		.4byte	0
 9933 13ba 00000000 		.4byte	0
 9934              	.LLST104:
 9935 13be 2E000000 		.4byte	.LVL386
 9936 13c2 80000000 		.4byte	.LVL391
 9937 13c6 0300     		.2byte	0x3
 9938 13c8 08       		.byte	0x8
 9939 13c9 30       		.byte	0x30
 9940 13ca 9F       		.byte	0x9f
 9941 13cb 88000000 		.4byte	.LVL395
 9942 13cf 92000000 		.4byte	.LVL397
 9943 13d3 0300     		.2byte	0x3
 9944 13d5 08       		.byte	0x8
 9945 13d6 30       		.byte	0x30
 9946 13d7 9F       		.byte	0x9f
 9947 13d8 00000000 		.4byte	0
 9948 13dc 00000000 		.4byte	0
 9949              	.LLST105:
 9950 13e0 00000000 		.4byte	.LVL398
 9951 13e4 1E000000 		.4byte	.LVL401
 9952 13e8 0100     		.2byte	0x1
 9953 13ea 50       		.byte	0x50
ARM GAS  C:\Users\ABAD_S~1\AppData\Local\Temp\cckPFQC2.s 			page 196


 9954 13eb 1E000000 		.4byte	.LVL401
 9955 13ef 21000000 		.4byte	.LVL402-1
 9956 13f3 0200     		.2byte	0x2
 9957 13f5 70       		.byte	0x70
 9958 13f6 01       		.sleb128 1
 9959 13f7 21000000 		.4byte	.LVL402-1
 9960 13fb 32000000 		.4byte	.LVL405
 9961 13ff 0400     		.2byte	0x4
 9962 1401 F3       		.byte	0xf3
 9963 1402 01       		.uleb128 0x1
 9964 1403 50       		.byte	0x50
 9965 1404 9F       		.byte	0x9f
 9966 1405 32000000 		.4byte	.LVL405
 9967 1409 34000000 		.4byte	.LVL406
 9968 140d 0100     		.2byte	0x1
 9969 140f 50       		.byte	0x50
 9970 1410 34000000 		.4byte	.LVL406
 9971 1414 36000000 		.4byte	.LVL407
 9972 1418 0400     		.2byte	0x4
 9973 141a F3       		.byte	0xf3
 9974 141b 01       		.uleb128 0x1
 9975 141c 50       		.byte	0x50
 9976 141d 9F       		.byte	0x9f
 9977 141e 36000000 		.4byte	.LVL407
 9978 1422 38000000 		.4byte	.LVL408
 9979 1426 0100     		.2byte	0x1
 9980 1428 50       		.byte	0x50
 9981 1429 38000000 		.4byte	.LVL408
 9982 142d 3C000000 		.4byte	.LFE59
 9983 1431 0400     		.2byte	0x4
 9984 1433 F3       		.byte	0xf3
 9985 1434 01       		.uleb128 0x1
 9986 1435 50       		.byte	0x50
 9987 1436 9F       		.byte	0x9f
 9988 1437 00000000 		.4byte	0
 9989 143b 00000000 		.4byte	0
 9990              	.LLST106:
 9991 143f 00000000 		.4byte	.LVL398
 9992 1443 1C000000 		.4byte	.LVL400
 9993 1447 0100     		.2byte	0x1
 9994 1449 51       		.byte	0x51
 9995 144a 1C000000 		.4byte	.LVL400
 9996 144e 32000000 		.4byte	.LVL405
 9997 1452 0100     		.2byte	0x1
 9998 1454 54       		.byte	0x54
 9999 1455 32000000 		.4byte	.LVL405
 10000 1459 38000000 		.4byte	.LVL408
 10001 145d 0100     		.2byte	0x1
 10002 145f 51       		.byte	0x51
 10003 1460 38000000 		.4byte	.LVL408
 10004 1464 3A000000 		.4byte	.LVL409
 10005 1468 0100     		.2byte	0x1
 10006 146a 54       		.byte	0x54
 10007 146b 3A000000 		.4byte	.LVL409
 10008 146f 3C000000 		.4byte	.LFE59
 10009 1473 0400     		.2byte	0x4
 10010 1475 F3       		.byte	0xf3
ARM GAS  C:\Users\ABAD_S~1\AppData\Local\Temp\cckPFQC2.s 			page 197


 10011 1476 01       		.uleb128 0x1
 10012 1477 51       		.byte	0x51
 10013 1478 9F       		.byte	0x9f
 10014 1479 00000000 		.4byte	0
 10015 147d 00000000 		.4byte	0
 10016              	.LLST107:
 10017 1481 00000000 		.4byte	.LVL398
 10018 1485 14000000 		.4byte	.LVL399
 10019 1489 0100     		.2byte	0x1
 10020 148b 52       		.byte	0x52
 10021 148c 14000000 		.4byte	.LVL399
 10022 1490 32000000 		.4byte	.LVL405
 10023 1494 0400     		.2byte	0x4
 10024 1496 F3       		.byte	0xf3
 10025 1497 01       		.uleb128 0x1
 10026 1498 52       		.byte	0x52
 10027 1499 9F       		.byte	0x9f
 10028 149a 32000000 		.4byte	.LVL405
 10029 149e 38000000 		.4byte	.LVL408
 10030 14a2 0100     		.2byte	0x1
 10031 14a4 52       		.byte	0x52
 10032 14a5 38000000 		.4byte	.LVL408
 10033 14a9 3C000000 		.4byte	.LFE59
 10034 14ad 0400     		.2byte	0x4
 10035 14af F3       		.byte	0xf3
 10036 14b0 01       		.uleb128 0x1
 10037 14b1 52       		.byte	0x52
 10038 14b2 9F       		.byte	0x9f
 10039 14b3 00000000 		.4byte	0
 10040 14b7 00000000 		.4byte	0
 10041              	.LLST108:
 10042 14bb 22000000 		.4byte	.LVL402
 10043 14bf 2C000000 		.4byte	.LVL403
 10044 14c3 0100     		.2byte	0x1
 10045 14c5 50       		.byte	0x50
 10046 14c6 30000000 		.4byte	.LVL404
 10047 14ca 32000000 		.4byte	.LVL405
 10048 14ce 0100     		.2byte	0x1
 10049 14d0 50       		.byte	0x50
 10050 14d1 00000000 		.4byte	0
 10051 14d5 00000000 		.4byte	0
 10052              	.LLST109:
 10053 14d9 00000000 		.4byte	.LVL410
 10054 14dd 45000000 		.4byte	.LVL412-1
 10055 14e1 0100     		.2byte	0x1
 10056 14e3 50       		.byte	0x50
 10057 14e4 45000000 		.4byte	.LVL412-1
 10058 14e8 4A000000 		.4byte	.LFE67
 10059 14ec 0400     		.2byte	0x4
 10060 14ee F3       		.byte	0xf3
 10061 14ef 01       		.uleb128 0x1
 10062 14f0 50       		.byte	0x50
 10063 14f1 9F       		.byte	0x9f
 10064 14f2 00000000 		.4byte	0
 10065 14f6 00000000 		.4byte	0
 10066              	.LLST110:
 10067 14fa 00000000 		.4byte	.LVL410
ARM GAS  C:\Users\ABAD_S~1\AppData\Local\Temp\cckPFQC2.s 			page 198


 10068 14fe 1E000000 		.4byte	.LVL411
 10069 1502 0100     		.2byte	0x1
 10070 1504 51       		.byte	0x51
 10071 1505 1E000000 		.4byte	.LVL411
 10072 1509 4A000000 		.4byte	.LFE67
 10073 150d 0400     		.2byte	0x4
 10074 150f F3       		.byte	0xf3
 10075 1510 01       		.uleb128 0x1
 10076 1511 51       		.byte	0x51
 10077 1512 9F       		.byte	0x9f
 10078 1513 00000000 		.4byte	0
 10079 1517 00000000 		.4byte	0
 10080              	.LLST111:
 10081 151b 00000000 		.4byte	.LVL413
 10082 151f 1A000000 		.4byte	.LVL415
 10083 1523 0100     		.2byte	0x1
 10084 1525 50       		.byte	0x50
 10085 1526 1A000000 		.4byte	.LVL415
 10086 152a 1D000000 		.4byte	.LVL416-1
 10087 152e 0200     		.2byte	0x2
 10088 1530 73       		.byte	0x73
 10089 1531 01       		.sleb128 1
 10090 1532 1D000000 		.4byte	.LVL416-1
 10091 1536 2A000000 		.4byte	.LVL418
 10092 153a 0400     		.2byte	0x4
 10093 153c F3       		.byte	0xf3
 10094 153d 01       		.uleb128 0x1
 10095 153e 50       		.byte	0x50
 10096 153f 9F       		.byte	0x9f
 10097 1540 2A000000 		.4byte	.LVL418
 10098 1544 2C000000 		.4byte	.LVL419
 10099 1548 0100     		.2byte	0x1
 10100 154a 50       		.byte	0x50
 10101 154b 2C000000 		.4byte	.LVL419
 10102 154f 2E000000 		.4byte	.LVL420
 10103 1553 0400     		.2byte	0x4
 10104 1555 F3       		.byte	0xf3
 10105 1556 01       		.uleb128 0x1
 10106 1557 50       		.byte	0x50
 10107 1558 9F       		.byte	0x9f
 10108 1559 2E000000 		.4byte	.LVL420
 10109 155d 30000000 		.4byte	.LVL421
 10110 1561 0100     		.2byte	0x1
 10111 1563 50       		.byte	0x50
 10112 1564 30000000 		.4byte	.LVL421
 10113 1568 34000000 		.4byte	.LFE60
 10114 156c 0400     		.2byte	0x4
 10115 156e F3       		.byte	0xf3
 10116 156f 01       		.uleb128 0x1
 10117 1570 50       		.byte	0x50
 10118 1571 9F       		.byte	0x9f
 10119 1572 00000000 		.4byte	0
 10120 1576 00000000 		.4byte	0
 10121              	.LLST112:
 10122 157a 00000000 		.4byte	.LVL413
 10123 157e 1D000000 		.4byte	.LVL416-1
 10124 1582 0100     		.2byte	0x1
ARM GAS  C:\Users\ABAD_S~1\AppData\Local\Temp\cckPFQC2.s 			page 199


 10125 1584 51       		.byte	0x51
 10126 1585 1D000000 		.4byte	.LVL416-1
 10127 1589 2A000000 		.4byte	.LVL418
 10128 158d 0400     		.2byte	0x4
 10129 158f F3       		.byte	0xf3
 10130 1590 01       		.uleb128 0x1
 10131 1591 51       		.byte	0x51
 10132 1592 9F       		.byte	0x9f
 10133 1593 2A000000 		.4byte	.LVL418
 10134 1597 30000000 		.4byte	.LVL421
 10135 159b 0100     		.2byte	0x1
 10136 159d 51       		.byte	0x51
 10137 159e 30000000 		.4byte	.LVL421
 10138 15a2 34000000 		.4byte	.LFE60
 10139 15a6 0400     		.2byte	0x4
 10140 15a8 F3       		.byte	0xf3
 10141 15a9 01       		.uleb128 0x1
 10142 15aa 51       		.byte	0x51
 10143 15ab 9F       		.byte	0x9f
 10144 15ac 00000000 		.4byte	0
 10145 15b0 00000000 		.4byte	0
 10146              	.LLST113:
 10147 15b4 00000000 		.4byte	.LVL413
 10148 15b8 10000000 		.4byte	.LVL414
 10149 15bc 0100     		.2byte	0x1
 10150 15be 52       		.byte	0x52
 10151 15bf 10000000 		.4byte	.LVL414
 10152 15c3 2A000000 		.4byte	.LVL418
 10153 15c7 0400     		.2byte	0x4
 10154 15c9 F3       		.byte	0xf3
 10155 15ca 01       		.uleb128 0x1
 10156 15cb 52       		.byte	0x52
 10157 15cc 9F       		.byte	0x9f
 10158 15cd 2A000000 		.4byte	.LVL418
 10159 15d1 30000000 		.4byte	.LVL421
 10160 15d5 0100     		.2byte	0x1
 10161 15d7 52       		.byte	0x52
 10162 15d8 30000000 		.4byte	.LVL421
 10163 15dc 34000000 		.4byte	.LFE60
 10164 15e0 0400     		.2byte	0x4
 10165 15e2 F3       		.byte	0xf3
 10166 15e3 01       		.uleb128 0x1
 10167 15e4 52       		.byte	0x52
 10168 15e5 9F       		.byte	0x9f
 10169 15e6 00000000 		.4byte	0
 10170 15ea 00000000 		.4byte	0
 10171              	.LLST114:
 10172 15ee 28000000 		.4byte	.LVL417
 10173 15f2 2A000000 		.4byte	.LVL418
 10174 15f6 0100     		.2byte	0x1
 10175 15f8 50       		.byte	0x50
 10176 15f9 00000000 		.4byte	0
 10177 15fd 00000000 		.4byte	0
 10178              	.LLST115:
 10179 1601 00000000 		.4byte	.LVL422
 10180 1605 12000000 		.4byte	.LVL425
 10181 1609 0100     		.2byte	0x1
ARM GAS  C:\Users\ABAD_S~1\AppData\Local\Temp\cckPFQC2.s 			page 200


 10182 160b 50       		.byte	0x50
 10183 160c 12000000 		.4byte	.LVL425
 10184 1610 15000000 		.4byte	.LVL426-1
 10185 1614 0200     		.2byte	0x2
 10186 1616 73       		.byte	0x73
 10187 1617 00       		.sleb128 0
 10188 1618 15000000 		.4byte	.LVL426-1
 10189 161c 28000000 		.4byte	.LFE64
 10190 1620 0400     		.2byte	0x4
 10191 1622 F3       		.byte	0xf3
 10192 1623 01       		.uleb128 0x1
 10193 1624 50       		.byte	0x50
 10194 1625 9F       		.byte	0x9f
 10195 1626 00000000 		.4byte	0
 10196 162a 00000000 		.4byte	0
 10197              	.LLST116:
 10198 162e 00000000 		.4byte	.LVL422
 10199 1632 10000000 		.4byte	.LVL424
 10200 1636 0100     		.2byte	0x1
 10201 1638 51       		.byte	0x51
 10202 1639 10000000 		.4byte	.LVL424
 10203 163d 15000000 		.4byte	.LVL426-1
 10204 1641 0200     		.2byte	0x2
 10205 1643 73       		.byte	0x73
 10206 1644 01       		.sleb128 1
 10207 1645 15000000 		.4byte	.LVL426-1
 10208 1649 28000000 		.4byte	.LFE64
 10209 164d 0400     		.2byte	0x4
 10210 164f F3       		.byte	0xf3
 10211 1650 01       		.uleb128 0x1
 10212 1651 51       		.byte	0x51
 10213 1652 9F       		.byte	0x9f
 10214 1653 00000000 		.4byte	0
 10215 1657 00000000 		.4byte	0
 10216              	.LLST117:
 10217 165b 00000000 		.4byte	.LVL422
 10218 165f 0E000000 		.4byte	.LVL423
 10219 1663 0100     		.2byte	0x1
 10220 1665 52       		.byte	0x52
 10221 1666 0E000000 		.4byte	.LVL423
 10222 166a 20000000 		.4byte	.LVL427
 10223 166e 0200     		.2byte	0x2
 10224 1670 91       		.byte	0x91
 10225 1671 6C       		.sleb128 -20
 10226 1672 20000000 		.4byte	.LVL427
 10227 1676 23000000 		.4byte	.LVL428-1
 10228 167a 0200     		.2byte	0x2
 10229 167c 70       		.byte	0x70
 10230 167d 00       		.sleb128 0
 10231 167e 23000000 		.4byte	.LVL428-1
 10232 1682 28000000 		.4byte	.LFE64
 10233 1686 0200     		.2byte	0x2
 10234 1688 91       		.byte	0x91
 10235 1689 6C       		.sleb128 -20
 10236 168a 00000000 		.4byte	0
 10237 168e 00000000 		.4byte	0
 10238              	.LLST118:
ARM GAS  C:\Users\ABAD_S~1\AppData\Local\Temp\cckPFQC2.s 			page 201


 10239 1692 16000000 		.4byte	.LVL426
 10240 1696 20000000 		.4byte	.LVL427
 10241 169a 0100     		.2byte	0x1
 10242 169c 50       		.byte	0x50
 10243 169d 24000000 		.4byte	.LVL428
 10244 16a1 28000000 		.4byte	.LFE64
 10245 16a5 0100     		.2byte	0x1
 10246 16a7 50       		.byte	0x50
 10247 16a8 00000000 		.4byte	0
 10248 16ac 00000000 		.4byte	0
 10249              	.LLST119:
 10250 16b0 00000000 		.4byte	.LVL429
 10251 16b4 08000000 		.4byte	.LVL431
 10252 16b8 0100     		.2byte	0x1
 10253 16ba 50       		.byte	0x50
 10254 16bb 08000000 		.4byte	.LVL431
 10255 16bf 0E000000 		.4byte	.LFE61
 10256 16c3 0400     		.2byte	0x4
 10257 16c5 F3       		.byte	0xf3
 10258 16c6 01       		.uleb128 0x1
 10259 16c7 50       		.byte	0x50
 10260 16c8 9F       		.byte	0x9f
 10261 16c9 00000000 		.4byte	0
 10262 16cd 00000000 		.4byte	0
 10263              	.LLST120:
 10264 16d1 00000000 		.4byte	.LVL429
 10265 16d5 06000000 		.4byte	.LVL430
 10266 16d9 0100     		.2byte	0x1
 10267 16db 51       		.byte	0x51
 10268 16dc 06000000 		.4byte	.LVL430
 10269 16e0 0B000000 		.4byte	.LVL432-1
 10270 16e4 0100     		.2byte	0x1
 10271 16e6 52       		.byte	0x52
 10272 16e7 0B000000 		.4byte	.LVL432-1
 10273 16eb 0E000000 		.4byte	.LFE61
 10274 16ef 0400     		.2byte	0x4
 10275 16f1 F3       		.byte	0xf3
 10276 16f2 01       		.uleb128 0x1
 10277 16f3 51       		.byte	0x51
 10278 16f4 9F       		.byte	0x9f
 10279 16f5 00000000 		.4byte	0
 10280 16f9 00000000 		.4byte	0
 10281              	.LLST121:
 10282 16fd 00000000 		.4byte	.LVL433
 10283 1701 08000000 		.4byte	.LVL435
 10284 1705 0100     		.2byte	0x1
 10285 1707 50       		.byte	0x50
 10286 1708 08000000 		.4byte	.LVL435
 10287 170c 0E000000 		.4byte	.LFE62
 10288 1710 0400     		.2byte	0x4
 10289 1712 F3       		.byte	0xf3
 10290 1713 01       		.uleb128 0x1
 10291 1714 50       		.byte	0x50
 10292 1715 9F       		.byte	0x9f
 10293 1716 00000000 		.4byte	0
 10294 171a 00000000 		.4byte	0
 10295              	.LLST122:
ARM GAS  C:\Users\ABAD_S~1\AppData\Local\Temp\cckPFQC2.s 			page 202


 10296 171e 00000000 		.4byte	.LVL433
 10297 1722 06000000 		.4byte	.LVL434
 10298 1726 0100     		.2byte	0x1
 10299 1728 51       		.byte	0x51
 10300 1729 06000000 		.4byte	.LVL434
 10301 172d 0B000000 		.4byte	.LVL436-1
 10302 1731 0100     		.2byte	0x1
 10303 1733 52       		.byte	0x52
 10304 1734 0B000000 		.4byte	.LVL436-1
 10305 1738 0E000000 		.4byte	.LFE62
 10306 173c 0400     		.2byte	0x4
 10307 173e F3       		.byte	0xf3
 10308 173f 01       		.uleb128 0x1
 10309 1740 51       		.byte	0x51
 10310 1741 9F       		.byte	0x9f
 10311 1742 00000000 		.4byte	0
 10312 1746 00000000 		.4byte	0
 10313              	.LLST123:
 10314 174a 00000000 		.4byte	.LVL437
 10315 174e 08000000 		.4byte	.LVL438
 10316 1752 0100     		.2byte	0x1
 10317 1754 50       		.byte	0x50
 10318 1755 08000000 		.4byte	.LVL438
 10319 1759 0E000000 		.4byte	.LFE63
 10320 175d 0400     		.2byte	0x4
 10321 175f F3       		.byte	0xf3
 10322 1760 01       		.uleb128 0x1
 10323 1761 50       		.byte	0x50
 10324 1762 9F       		.byte	0x9f
 10325 1763 00000000 		.4byte	0
 10326 1767 00000000 		.4byte	0
 10327              	.LLST124:
 10328 176b 00000000 		.4byte	.LVL440
 10329 176f 12000000 		.4byte	.LVL441
 10330 1773 0100     		.2byte	0x1
 10331 1775 50       		.byte	0x50
 10332 1776 12000000 		.4byte	.LVL441
 10333 177a 15000000 		.4byte	.LVL442-1
 10334 177e 0200     		.2byte	0x2
 10335 1780 70       		.byte	0x70
 10336 1781 01       		.sleb128 1
 10337 1782 15000000 		.4byte	.LVL442-1
 10338 1786 1A000000 		.4byte	.LFE65
 10339 178a 0400     		.2byte	0x4
 10340 178c F3       		.byte	0xf3
 10341 178d 01       		.uleb128 0x1
 10342 178e 50       		.byte	0x50
 10343 178f 9F       		.byte	0x9f
 10344 1790 00000000 		.4byte	0
 10345 1794 00000000 		.4byte	0
 10346              	.LLST125:
 10347 1798 2C000000 		.4byte	.LVL446
 10348 179c 36000000 		.4byte	.LVL447
 10349 17a0 0100     		.2byte	0x1
 10350 17a2 50       		.byte	0x50
 10351 17a3 36000000 		.4byte	.LVL447
 10352 17a7 38000000 		.4byte	.LVL448
ARM GAS  C:\Users\ABAD_S~1\AppData\Local\Temp\cckPFQC2.s 			page 203


 10353 17ab 0300     		.2byte	0x3
 10354 17ad 70       		.byte	0x70
 10355 17ae 01       		.sleb128 1
 10356 17af 9F       		.byte	0x9f
 10357 17b0 38000000 		.4byte	.LVL448
 10358 17b4 3A000000 		.4byte	.LVL449
 10359 17b8 0100     		.2byte	0x1
 10360 17ba 50       		.byte	0x50
 10361 17bb 3C000000 		.4byte	.LVL450
 10362 17bf 3E000000 		.4byte	.LVL451
 10363 17c3 0100     		.2byte	0x1
 10364 17c5 50       		.byte	0x50
 10365 17c6 00000000 		.4byte	0
 10366 17ca 00000000 		.4byte	0
 10367              	.LLST126:
 10368 17ce 0A000000 		.4byte	.LVL452
 10369 17d2 0E000000 		.4byte	.LVL453
 10370 17d6 0100     		.2byte	0x1
 10371 17d8 50       		.byte	0x50
 10372 17d9 00000000 		.4byte	0
 10373 17dd 00000000 		.4byte	0
 10374              		.section	.debug_aranges,"",%progbits
 10375 0000 4C010000 		.4byte	0x14c
 10376 0004 0200     		.2byte	0x2
 10377 0006 00000000 		.4byte	.Ldebug_info0
 10378 000a 04       		.byte	0x4
 10379 000b 00       		.byte	0
 10380 000c 0000     		.2byte	0
 10381 000e 0000     		.2byte	0
 10382 0010 00000000 		.4byte	.LFB33
 10383 0014 38000000 		.4byte	.LFE33-.LFB33
 10384 0018 00000000 		.4byte	.LFB34
 10385 001c 36000000 		.4byte	.LFE34-.LFB34
 10386 0020 00000000 		.4byte	.LFB35
 10387 0024 3C000000 		.4byte	.LFE35-.LFB35
 10388 0028 00000000 		.4byte	.LFB36
 10389 002c 8E000000 		.4byte	.LFE36-.LFB36
 10390 0030 00000000 		.4byte	.LFB37
 10391 0034 16000000 		.4byte	.LFE37-.LFB37
 10392 0038 00000000 		.4byte	.LFB38
 10393 003c 16000000 		.4byte	.LFE38-.LFB38
 10394 0040 00000000 		.4byte	.LFB39
 10395 0044 6C000000 		.4byte	.LFE39-.LFB39
 10396 0048 00000000 		.4byte	.LFB41
 10397 004c 26000000 		.4byte	.LFE41-.LFB41
 10398 0050 00000000 		.4byte	.LFB42
 10399 0054 16000000 		.4byte	.LFE42-.LFB42
 10400 0058 00000000 		.4byte	.LFB40
 10401 005c 72000000 		.4byte	.LFE40-.LFB40
 10402 0060 00000000 		.4byte	.LFB43
 10403 0064 0C000000 		.4byte	.LFE43-.LFB43
 10404 0068 00000000 		.4byte	.LFB44
 10405 006c 0E000000 		.4byte	.LFE44-.LFB44
 10406 0070 00000000 		.4byte	.LFB45
 10407 0074 20000000 		.4byte	.LFE45-.LFB45
 10408 0078 00000000 		.4byte	.LFB46
 10409 007c 7C000000 		.4byte	.LFE46-.LFB46
ARM GAS  C:\Users\ABAD_S~1\AppData\Local\Temp\cckPFQC2.s 			page 204


 10410 0080 00000000 		.4byte	.LFB47
 10411 0084 16000000 		.4byte	.LFE47-.LFB47
 10412 0088 00000000 		.4byte	.LFB48
 10413 008c 36000000 		.4byte	.LFE48-.LFB48
 10414 0090 00000000 		.4byte	.LFB50
 10415 0094 64010000 		.4byte	.LFE50-.LFB50
 10416 0098 00000000 		.4byte	.LFB49
 10417 009c 28000000 		.4byte	.LFE49-.LFB49
 10418 00a0 00000000 		.4byte	.LFB53
 10419 00a4 64000000 		.4byte	.LFE53-.LFB53
 10420 00a8 00000000 		.4byte	.LFB51
 10421 00ac 0E000000 		.4byte	.LFE51-.LFB51
 10422 00b0 00000000 		.4byte	.LFB52
 10423 00b4 0E000000 		.4byte	.LFE52-.LFB52
 10424 00b8 00000000 		.4byte	.LFB54
 10425 00bc 24030000 		.4byte	.LFE54-.LFB54
 10426 00c0 00000000 		.4byte	.LFB55
 10427 00c4 40000000 		.4byte	.LFE55-.LFB55
 10428 00c8 00000000 		.4byte	.LFB56
 10429 00cc 58000000 		.4byte	.LFE56-.LFB56
 10430 00d0 00000000 		.4byte	.LFB57
 10431 00d4 0C000000 		.4byte	.LFE57-.LFB57
 10432 00d8 00000000 		.4byte	.LFB58
 10433 00dc 48000000 		.4byte	.LFE58-.LFB58
 10434 00e0 00000000 		.4byte	.LFB66
 10435 00e4 34000000 		.4byte	.LFE66-.LFB66
 10436 00e8 00000000 		.4byte	.LFB68
 10437 00ec 62000000 		.4byte	.LFE68-.LFB68
 10438 00f0 00000000 		.4byte	.LFB69
 10439 00f4 96000000 		.4byte	.LFE69-.LFB69
 10440 00f8 00000000 		.4byte	.LFB59
 10441 00fc 3C000000 		.4byte	.LFE59-.LFB59
 10442 0100 00000000 		.4byte	.LFB67
 10443 0104 4A000000 		.4byte	.LFE67-.LFB67
 10444 0108 00000000 		.4byte	.LFB60
 10445 010c 34000000 		.4byte	.LFE60-.LFB60
 10446 0110 00000000 		.4byte	.LFB64
 10447 0114 28000000 		.4byte	.LFE64-.LFB64
 10448 0118 00000000 		.4byte	.LFB61
 10449 011c 0E000000 		.4byte	.LFE61-.LFB61
 10450 0120 00000000 		.4byte	.LFB62
 10451 0124 0E000000 		.4byte	.LFE62-.LFB62
 10452 0128 00000000 		.4byte	.LFB63
 10453 012c 0E000000 		.4byte	.LFE63-.LFB63
 10454 0130 00000000 		.4byte	.LFB65
 10455 0134 1A000000 		.4byte	.LFE65-.LFB65
 10456 0138 00000000 		.4byte	.LFB70
 10457 013c 42000000 		.4byte	.LFE70-.LFB70
 10458 0140 00000000 		.4byte	.LFB71
 10459 0144 18000000 		.4byte	.LFE71-.LFB71
 10460 0148 00000000 		.4byte	0
 10461 014c 00000000 		.4byte	0
 10462              		.section	.debug_ranges,"",%progbits
 10463              	.Ldebug_ranges0:
 10464 0000 9C000000 		.4byte	.LBB7
 10465 0004 CE000000 		.4byte	.LBE7
 10466 0008 58010000 		.4byte	.LBB9
ARM GAS  C:\Users\ABAD_S~1\AppData\Local\Temp\cckPFQC2.s 			page 205


 10467 000c 5C010000 		.4byte	.LBE9
 10468 0010 00000000 		.4byte	0
 10469 0014 00000000 		.4byte	0
 10470 0018 2A000000 		.4byte	.LBB10
 10471 001c DE020000 		.4byte	.LBE10
 10472 0020 FC020000 		.4byte	.LBB15
 10473 0024 16030000 		.4byte	.LBE15
 10474 0028 00000000 		.4byte	0
 10475 002c 00000000 		.4byte	0
 10476 0030 D8000000 		.4byte	.LBB11
 10477 0034 E8000000 		.4byte	.LBE11
 10478 0038 EA000000 		.4byte	.LBB12
 10479 003c 14010000 		.4byte	.LBE12
 10480 0040 00000000 		.4byte	0
 10481 0044 00000000 		.4byte	0
 10482 0048 EE010000 		.4byte	.LBB13
 10483 004c 36020000 		.4byte	.LBE13
 10484 0050 00030000 		.4byte	.LBB14
 10485 0054 08030000 		.4byte	.LBE14
 10486 0058 00000000 		.4byte	0
 10487 005c 00000000 		.4byte	0
 10488 0060 00000000 		.4byte	.LFB33
 10489 0064 38000000 		.4byte	.LFE33
 10490 0068 00000000 		.4byte	.LFB34
 10491 006c 36000000 		.4byte	.LFE34
 10492 0070 00000000 		.4byte	.LFB35
 10493 0074 3C000000 		.4byte	.LFE35
 10494 0078 00000000 		.4byte	.LFB36
 10495 007c 8E000000 		.4byte	.LFE36
 10496 0080 00000000 		.4byte	.LFB37
 10497 0084 16000000 		.4byte	.LFE37
 10498 0088 00000000 		.4byte	.LFB38
 10499 008c 16000000 		.4byte	.LFE38
 10500 0090 00000000 		.4byte	.LFB39
 10501 0094 6C000000 		.4byte	.LFE39
 10502 0098 00000000 		.4byte	.LFB41
 10503 009c 26000000 		.4byte	.LFE41
 10504 00a0 00000000 		.4byte	.LFB42
 10505 00a4 16000000 		.4byte	.LFE42
 10506 00a8 00000000 		.4byte	.LFB40
 10507 00ac 72000000 		.4byte	.LFE40
 10508 00b0 00000000 		.4byte	.LFB43
 10509 00b4 0C000000 		.4byte	.LFE43
 10510 00b8 00000000 		.4byte	.LFB44
 10511 00bc 0E000000 		.4byte	.LFE44
 10512 00c0 00000000 		.4byte	.LFB45
 10513 00c4 20000000 		.4byte	.LFE45
 10514 00c8 00000000 		.4byte	.LFB46
 10515 00cc 7C000000 		.4byte	.LFE46
 10516 00d0 00000000 		.4byte	.LFB47
 10517 00d4 16000000 		.4byte	.LFE47
 10518 00d8 00000000 		.4byte	.LFB48
 10519 00dc 36000000 		.4byte	.LFE48
 10520 00e0 00000000 		.4byte	.LFB50
 10521 00e4 64010000 		.4byte	.LFE50
 10522 00e8 00000000 		.4byte	.LFB49
 10523 00ec 28000000 		.4byte	.LFE49
ARM GAS  C:\Users\ABAD_S~1\AppData\Local\Temp\cckPFQC2.s 			page 206


 10524 00f0 00000000 		.4byte	.LFB53
 10525 00f4 64000000 		.4byte	.LFE53
 10526 00f8 00000000 		.4byte	.LFB51
 10527 00fc 0E000000 		.4byte	.LFE51
 10528 0100 00000000 		.4byte	.LFB52
 10529 0104 0E000000 		.4byte	.LFE52
 10530 0108 00000000 		.4byte	.LFB54
 10531 010c 24030000 		.4byte	.LFE54
 10532 0110 00000000 		.4byte	.LFB55
 10533 0114 40000000 		.4byte	.LFE55
 10534 0118 00000000 		.4byte	.LFB56
 10535 011c 58000000 		.4byte	.LFE56
 10536 0120 00000000 		.4byte	.LFB57
 10537 0124 0C000000 		.4byte	.LFE57
 10538 0128 00000000 		.4byte	.LFB58
 10539 012c 48000000 		.4byte	.LFE58
 10540 0130 00000000 		.4byte	.LFB66
 10541 0134 34000000 		.4byte	.LFE66
 10542 0138 00000000 		.4byte	.LFB68
 10543 013c 62000000 		.4byte	.LFE68
 10544 0140 00000000 		.4byte	.LFB69
 10545 0144 96000000 		.4byte	.LFE69
 10546 0148 00000000 		.4byte	.LFB59
 10547 014c 3C000000 		.4byte	.LFE59
 10548 0150 00000000 		.4byte	.LFB67
 10549 0154 4A000000 		.4byte	.LFE67
 10550 0158 00000000 		.4byte	.LFB60
 10551 015c 34000000 		.4byte	.LFE60
 10552 0160 00000000 		.4byte	.LFB64
 10553 0164 28000000 		.4byte	.LFE64
 10554 0168 00000000 		.4byte	.LFB61
 10555 016c 0E000000 		.4byte	.LFE61
 10556 0170 00000000 		.4byte	.LFB62
 10557 0174 0E000000 		.4byte	.LFE62
 10558 0178 00000000 		.4byte	.LFB63
 10559 017c 0E000000 		.4byte	.LFE63
 10560 0180 00000000 		.4byte	.LFB65
 10561 0184 1A000000 		.4byte	.LFE65
 10562 0188 00000000 		.4byte	.LFB70
 10563 018c 42000000 		.4byte	.LFE70
 10564 0190 00000000 		.4byte	.LFB71
 10565 0194 18000000 		.4byte	.LFE71
 10566 0198 00000000 		.4byte	0
 10567 019c 00000000 		.4byte	0
 10568              		.section	.debug_line,"",%progbits
 10569              	.Ldebug_line0:
 10570 0000 55070000 		.section	.debug_str,"MS",%progbits,1
 10570      02006901 
 10570      00000201 
 10570      FB0E0D00 
 10570      01010101 
 10571              	.LASF59:
 10572 0000 73656E64 		.ascii	"sendData\000"
 10572      44617461 
 10572      00
 10573              	.LASF82:
 10574 0009 63686563 		.ascii	"checkBit\000"
ARM GAS  C:\Users\ABAD_S~1\AppData\Local\Temp\cckPFQC2.s 			page 207


 10574      6B426974 
 10574      00
 10575              	.LASF91:
 10576 0012 76616C75 		.ascii	"valueOfCollReg\000"
 10576      654F6643 
 10576      6F6C6C52 
 10576      656700
 10577              	.LASF127:
 10578 0021 43794465 		.ascii	"CyDelay\000"
 10578      6C617900 
 10579              	.LASF62:
 10580 0029 6261636B 		.ascii	"backLen\000"
 10580      4C656E00 
 10581              	.LASF117:
 10582 0031 50494343 		.ascii	"PICC_IsNewCardPresent\000"
 10582      5F49734E 
 10582      65774361 
 10582      72645072 
 10582      6573656E 
 10583              	.LASF103:
 10584 0047 72786C65 		.ascii	"rxlength\000"
 10584      6E677468 
 10584      00
 10585              	.LASF88:
 10586 0050 72657370 		.ascii	"responseLength\000"
 10586      6F6E7365 
 10586      4C656E67 
 10586      746800
 10587              	.LASF74:
 10588 005f 62756666 		.ascii	"bufferSize\000"
 10588      65725369 
 10588      7A6500
 10589              	.LASF26:
 10590 006a 4D494641 		.ascii	"MIFARE_Key\000"
 10590      52455F4B 
 10590      657900
 10591              	.LASF102:
 10592 0075 636D6442 		.ascii	"cmdBuffer\000"
 10592      75666665 
 10592      7200
 10593              	.LASF29:
 10594 007f 5043445F 		.ascii	"PCD_WriteRegister\000"
 10594      57726974 
 10594      65526567 
 10594      69737465 
 10594      7200
 10595              	.LASF79:
 10596 0091 73656C65 		.ascii	"selectDone\000"
 10596      6374446F 
 10596      6E6500
 10597              	.LASF50:
 10598 009c 5043445F 		.ascii	"PCD_GetAntennaGain\000"
 10598      47657441 
 10598      6E74656E 
 10598      6E614761 
 10598      696E00
 10599              	.LASF85:
ARM GAS  C:\Users\ABAD_S~1\AppData\Local\Temp\cckPFQC2.s 			page 208


 10600 00af 62756666 		.ascii	"buffer\000"
 10600      657200
 10601              	.LASF130:
 10602 00b6 52455345 		.ascii	"RESET_Write\000"
 10602      545F5772 
 10602      69746500 
 10603              	.LASF83:
 10604 00c2 75696449 		.ascii	"uidIndex\000"
 10604      6E646578 
 10604      00
 10605              	.LASF12:
 10606 00cb 756E7369 		.ascii	"unsigned int\000"
 10606      676E6564 
 10606      20696E74 
 10606      00
 10607              	.LASF111:
 10608 00d8 4D494641 		.ascii	"MIFARE_TwoStepHelper\000"
 10608      52455F54 
 10608      776F5374 
 10608      65704865 
 10608      6C706572 
 10609              	.LASF134:
 10610 00ed 52433532 		.ascii	"RC522.c\000"
 10610      322E6300 
 10611              	.LASF52:
 10612 00f5 5043445F 		.ascii	"PCD_PerformSelfTest\000"
 10612      50657266 
 10612      6F726D53 
 10612      656C6654 
 10612      65737400 
 10613              	.LASF69:
 10614 0109 636F6E74 		.ascii	"controlBuffer\000"
 10614      726F6C42 
 10614      75666665 
 10614      7200
 10615              	.LASF121:
 10616 0117 5350495F 		.ascii	"SPI_ClearFIFO\000"
 10616      436C6561 
 10616      72464946 
 10616      4F00
 10617              	.LASF126:
 10618 0125 5350495F 		.ascii	"SPI_ReadRxData\000"
 10618      52656164 
 10618      52784461 
 10618      746100
 10619              	.LASF16:
 10620 0134 75696E74 		.ascii	"uint32_t\000"
 10620      33325F74 
 10620      00
 10621              	.LASF13:
 10622 013d 696E7438 		.ascii	"int8_t\000"
 10622      5F7400
 10623              	.LASF64:
 10624 0144 63686563 		.ascii	"checkCRC\000"
 10624      6B435243 
 10624      00
 10625              	.LASF99:
ARM GAS  C:\Users\ABAD_S~1\AppData\Local\Temp\cckPFQC2.s 			page 209


 10626 014d 5043445F 		.ascii	"PCD_NTAG216_AUTH\000"
 10626      4E544147 
 10626      3231365F 
 10626      41555448 
 10626      00
 10627              	.LASF81:
 10628 015e 63617363 		.ascii	"cascadeLevel\000"
 10628      6164654C 
 10628      6576656C 
 10628      00
 10629              	.LASF53:
 10630 016b 5A45524F 		.ascii	"ZEROES\000"
 10630      455300
 10631              	.LASF18:
 10632 0172 666C6F61 		.ascii	"float\000"
 10632      7400
 10633              	.LASF61:
 10634 0178 6261636B 		.ascii	"backData\000"
 10634      44617461 
 10634      00
 10635              	.LASF31:
 10636 0181 636F756E 		.ascii	"count\000"
 10636      7400
 10637              	.LASF33:
 10638 0187 696E6465 		.ascii	"index\000"
 10638      7800
 10639              	.LASF125:
 10640 018d 43794465 		.ascii	"CyDelayUs\000"
 10640      6C617955 
 10640      7300
 10641              	.LASF43:
 10642 0197 72657375 		.ascii	"result\000"
 10642      6C7400
 10643              	.LASF128:
 10644 019e 5350495F 		.ascii	"SPI_Start\000"
 10644      53746172 
 10644      7400
 10645              	.LASF24:
 10646 01a8 75696442 		.ascii	"uidByte\000"
 10646      79746500 
 10647              	.LASF11:
 10648 01b0 6C6F6E67 		.ascii	"long long unsigned int\000"
 10648      206C6F6E 
 10648      6720756E 
 10648      7369676E 
 10648      65642069 
 10649              	.LASF108:
 10650 01c7 4D494641 		.ascii	"MIFARE_SetValue\000"
 10650      52455F53 
 10650      65745661 
 10650      6C756500 
 10651              	.LASF118:
 10652 01d7 50494343 		.ascii	"PICC_ReadCardSerial\000"
 10652      5F526561 
 10652      64436172 
 10652      64536572 
 10652      69616C00 
ARM GAS  C:\Users\ABAD_S~1\AppData\Local\Temp\cckPFQC2.s 			page 210


 10653              	.LASF114:
 10654 01eb 4D494641 		.ascii	"MIFARE_Increment\000"
 10654      52455F49 
 10654      6E637265 
 10654      6D656E74 
 10654      00
 10655              	.LASF5:
 10656 01fc 5F5F7569 		.ascii	"__uint16_t\000"
 10656      6E743136 
 10656      5F7400
 10657              	.LASF49:
 10658 0207 5043445F 		.ascii	"PCD_AntennaOff\000"
 10658      416E7465 
 10658      6E6E614F 
 10658      666600
 10659              	.LASF68:
 10660 0216 5F76616C 		.ascii	"_validBits\000"
 10660      69644269 
 10660      747300
 10661              	.LASF28:
 10662 0221 76616C75 		.ascii	"value\000"
 10662      6500
 10663              	.LASF76:
 10664 0227 50494343 		.ascii	"PICC_WakeupA\000"
 10664      5F57616B 
 10664      65757041 
 10664      00
 10665              	.LASF133:
 10666 0234 474E5520 		.ascii	"GNU C11 5.4.1 20160609 (release) [ARM/embedded-5-br"
 10666      43313120 
 10666      352E342E 
 10666      31203230 
 10666      31363036 
 10667 0267 616E6368 		.ascii	"anch revision 237715] -mcpu=cortex-m0 -mthumb -g -O"
 10667      20726576 
 10667      6973696F 
 10667      6E203233 
 10667      37373135 
 10668 029a 67202D66 		.ascii	"g -ffunction-sections -ffat-lto-objects\000"
 10668      66756E63 
 10668      74696F6E 
 10668      2D736563 
 10668      74696F6E 
 10669              	.LASF47:
 10670 02c2 68617264 		.ascii	"hardReset\000"
 10670      52657365 
 10670      7400
 10671              	.LASF58:
 10672 02cc 77616974 		.ascii	"waitIRq\000"
 10672      49527100 
 10673              	.LASF72:
 10674 02d4 50494343 		.ascii	"PICC_REQA_or_WUPA\000"
 10674      5F524551 
 10674      415F6F72 
 10674      5F575550 
 10674      4100
 10675              	.LASF48:
ARM GAS  C:\Users\ABAD_S~1\AppData\Local\Temp\cckPFQC2.s 			page 211


 10676 02e6 5F426F6F 		.ascii	"_Bool\000"
 10676      6C00
 10677              	.LASF90:
 10678 02ec 6D617842 		.ascii	"maxBytes\000"
 10678      79746573 
 10678      00
 10679              	.LASF120:
 10680 02f5 72656164 		.ascii	"readDummy\000"
 10680      44756D6D 
 10680      7900
 10681              	.LASF78:
 10682 02ff 75696443 		.ascii	"uidComplete\000"
 10682      6F6D706C 
 10682      65746500 
 10683              	.LASF34:
 10684 030b 5043445F 		.ascii	"PCD_ReadRegisters\000"
 10684      52656164 
 10684      52656769 
 10684      73746572 
 10684      7300
 10685              	.LASF106:
 10686 031d 636D6442 		.ascii	"cmdBufferSize\000"
 10686      75666665 
 10686      7253697A 
 10686      6500
 10687              	.LASF87:
 10688 032b 72657370 		.ascii	"responseBuffer\000"
 10688      6F6E7365 
 10688      42756666 
 10688      657200
 10689              	.LASF20:
 10690 033a 63686172 		.ascii	"char\000"
 10690      00
 10691              	.LASF119:
 10692 033f 72656164 		.ascii	"readData\000"
 10692      44617461 
 10692      00
 10693              	.LASF101:
 10694 0348 7041434B 		.ascii	"pACK\000"
 10694      00
 10695              	.LASF107:
 10696 034d 4D494641 		.ascii	"MIFARE_Write\000"
 10696      52455F57 
 10696      72697465 
 10696      00
 10697              	.LASF41:
 10698 035a 64617461 		.ascii	"data\000"
 10698      00
 10699              	.LASF30:
 10700 035f 5043445F 		.ascii	"PCD_WriteRegisters\000"
 10700      57726974 
 10700      65526567 
 10700      69737465 
 10700      727300
 10701              	.LASF14:
 10702 0372 75696E74 		.ascii	"uint8_t\000"
 10702      385F7400 
ARM GAS  C:\Users\ABAD_S~1\AppData\Local\Temp\cckPFQC2.s 			page 212


 10703              	.LASF70:
 10704 037a 73746174 		.ascii	"status\000"
 10704      757300
 10705              	.LASF123:
 10706 0381 5350495F 		.ascii	"SPI_ReadTxStatus\000"
 10706      52656164 
 10706      54785374 
 10706      61747573 
 10706      00
 10707              	.LASF75:
 10708 0392 50494343 		.ascii	"PICC_RequestA\000"
 10708      5F526571 
 10708      75657374 
 10708      4100
 10709              	.LASF94:
 10710 03a0 5043445F 		.ascii	"PCD_Authenticate\000"
 10710      41757468 
 10710      656E7469 
 10710      63617465 
 10710      00
 10711              	.LASF135:
 10712 03b1 433A5C55 		.ascii	"C:\\Users\\Abad_Sethi\\Desktop\\AbadPxl\\2-EAI\\Pro"
 10712      73657273 
 10712      5C416261 
 10712      645F5365 
 10712      7468695C 
 10713 03de 6A656374 		.ascii	"ject_Onderzoek\\Autonomous_Cart\\AutonomousCart\\RF"
 10713      5F4F6E64 
 10713      65727A6F 
 10713      656B5C41 
 10713      75746F6E 
 10714 040e 49445F52 		.ascii	"ID_Reader_PSOC.cydsn\000"
 10714      65616465 
 10714      725F5053 
 10714      4F432E63 
 10714      7964736E 
 10715              	.LASF63:
 10716 0423 76616C69 		.ascii	"validBits\000"
 10716      64426974 
 10716      7300
 10717              	.LASF115:
 10718 042d 4D494641 		.ascii	"MIFARE_Restore\000"
 10718      52455F52 
 10718      6573746F 
 10718      726500
 10719              	.LASF10:
 10720 043c 6C6F6E67 		.ascii	"long long int\000"
 10720      206C6F6E 
 10720      6720696E 
 10720      7400
 10721              	.LASF45:
 10722 044a 5043445F 		.ascii	"PCD_AntennaOn\000"
 10722      416E7465 
 10722      6E6E614F 
 10722      6E00
 10723              	.LASF39:
 10724 0458 5043445F 		.ascii	"PCD_ReadRegister\000"
ARM GAS  C:\Users\ABAD_S~1\AppData\Local\Temp\cckPFQC2.s 			page 213


 10724      52656164 
 10724      52656769 
 10724      73746572 
 10724      00
 10725              	.LASF110:
 10726 0469 70616765 		.ascii	"page\000"
 10726      00
 10727              	.LASF131:
 10728 046e 6D656D73 		.ascii	"memset\000"
 10728      657400
 10729              	.LASF100:
 10730 0475 70617373 		.ascii	"passWord\000"
 10730      576F7264 
 10730      00
 10731              	.LASF104:
 10732 047e 5043445F 		.ascii	"PCD_MIFARE_Transceive\000"
 10732      4D494641 
 10732      52455F54 
 10732      72616E73 
 10732      63656976 
 10733              	.LASF112:
 10734 0494 4D494641 		.ascii	"MIFARE_Decrement\000"
 10734      52455F44 
 10734      65637265 
 10734      6D656E74 
 10734      00
 10735              	.LASF23:
 10736 04a5 73697A65 		.ascii	"size\000"
 10736      00
 10737              	.LASF65:
 10738 04aa 74784C61 		.ascii	"txLastBits\000"
 10738      73744269 
 10738      747300
 10739              	.LASF57:
 10740 04b5 636F6D6D 		.ascii	"command\000"
 10740      616E6400 
 10741              	.LASF36:
 10742 04bd 6D61736B 		.ascii	"mask\000"
 10742      00
 10743              	.LASF32:
 10744 04c2 76616C75 		.ascii	"values\000"
 10744      657300
 10745              	.LASF73:
 10746 04c9 62756666 		.ascii	"bufferATQA\000"
 10746      65724154 
 10746      514100
 10747              	.LASF67:
 10748 04d4 6572726F 		.ascii	"errorRegValue\000"
 10748      72526567 
 10748      56616C75 
 10748      6500
 10749              	.LASF0:
 10750 04e2 5F5F696E 		.ascii	"__int8_t\000"
 10750      74385F74 
 10750      00
 10751              	.LASF122:
 10752 04eb 5350495F 		.ascii	"SPI_ClearRxBuffer\000"
ARM GAS  C:\Users\ABAD_S~1\AppData\Local\Temp\cckPFQC2.s 			page 214


 10752      436C6561 
 10752      72527842 
 10752      75666665 
 10752      7200
 10753              	.LASF21:
 10754 04fd 6C6F6E67 		.ascii	"long double\000"
 10754      20646F75 
 10754      626C6500 
 10755              	.LASF15:
 10756 0509 75696E74 		.ascii	"uint16_t\000"
 10756      31365F74 
 10756      00
 10757              	.LASF80:
 10758 0512 75736543 		.ascii	"useCascadeTag\000"
 10758      61736361 
 10758      64655461 
 10758      6700
 10759              	.LASF105:
 10760 0520 61636365 		.ascii	"acceptTimeout\000"
 10760      70745469 
 10760      6D656F75 
 10760      7400
 10761              	.LASF40:
 10762 052e 5043445F 		.ascii	"PCD_CalculateCRC\000"
 10762      43616C63 
 10762      756C6174 
 10762      65435243 
 10762      00
 10763              	.LASF71:
 10764 053f 5043445F 		.ascii	"PCD_TransceiveData\000"
 10764      5472616E 
 10764      73636569 
 10764      76654461 
 10764      746100
 10765              	.LASF4:
 10766 0552 73686F72 		.ascii	"short int\000"
 10766      7420696E 
 10766      7400
 10767              	.LASF129:
 10768 055c 52455345 		.ascii	"RESET_Read\000"
 10768      545F5265 
 10768      616400
 10769              	.LASF7:
 10770 0567 6C6F6E67 		.ascii	"long int\000"
 10770      20696E74 
 10770      00
 10771              	.LASF42:
 10772 0570 6C656E67 		.ascii	"length\000"
 10772      746800
 10773              	.LASF96:
 10774 0577 5043445F 		.ascii	"PCD_StopCrypto1\000"
 10774      53746F70 
 10774      43727970 
 10774      746F3100 
 10775              	.LASF54:
 10776 0587 5043445F 		.ascii	"PCD_SoftPowerDown\000"
 10776      536F6674 
ARM GAS  C:\Users\ABAD_S~1\AppData\Local\Temp\cckPFQC2.s 			page 215


 10776      506F7765 
 10776      72446F77 
 10776      6E00
 10777              	.LASF55:
 10778 0599 5043445F 		.ascii	"PCD_SoftPowerUp\000"
 10778      536F6674 
 10778      506F7765 
 10778      72557000 
 10779              	.LASF37:
 10780 05a9 5043445F 		.ascii	"PCD_SetRegisterBitMask\000"
 10780      53657452 
 10780      65676973 
 10780      74657242 
 10780      69744D61 
 10781              	.LASF1:
 10782 05c0 5F5F7569 		.ascii	"__uint8_t\000"
 10782      6E74385F 
 10782      7400
 10783              	.LASF46:
 10784 05ca 5043445F 		.ascii	"PCD_Init\000"
 10784      496E6974 
 10784      00
 10785              	.LASF86:
 10786 05d3 62756666 		.ascii	"bufferUsed\000"
 10786      65725573 
 10786      656400
 10787              	.LASF95:
 10788 05de 626C6F63 		.ascii	"blockAddr\000"
 10788      6B416464 
 10788      7200
 10789              	.LASF22:
 10790 05e8 73697A65 		.ascii	"sizetype\000"
 10790      74797065 
 10790      00
 10791              	.LASF9:
 10792 05f1 6C6F6E67 		.ascii	"long unsigned int\000"
 10792      20756E73 
 10792      69676E65 
 10792      6420696E 
 10792      7400
 10793              	.LASF66:
 10794 0603 62697446 		.ascii	"bitFraming\000"
 10794      72616D69 
 10794      6E6700
 10795              	.LASF97:
 10796 060e 4D494641 		.ascii	"MIFARE_Read\000"
 10796      52455F52 
 10796      65616400 
 10797              	.LASF56:
 10798 061a 5043445F 		.ascii	"PCD_CommunicateWithPICC\000"
 10798      436F6D6D 
 10798      756E6963 
 10798      61746557 
 10798      69746850 
 10799              	.LASF51:
 10800 0632 5043445F 		.ascii	"PCD_SetAntennaGain\000"
 10800      53657441 
ARM GAS  C:\Users\ABAD_S~1\AppData\Local\Temp\cckPFQC2.s 			page 216


 10800      6E74656E 
 10800      6E614761 
 10800      696E00
 10801              	.LASF93:
 10802 0645 50494343 		.ascii	"PICC_HaltA\000"
 10802      5F48616C 
 10802      744100
 10803              	.LASF109:
 10804 0650 4D494641 		.ascii	"MIFARE_Ultralight_Write\000"
 10804      52455F55 
 10804      6C747261 
 10804      6C696768 
 10804      745F5772 
 10805              	.LASF3:
 10806 0668 756E7369 		.ascii	"unsigned char\000"
 10806      676E6564 
 10806      20636861 
 10806      7200
 10807              	.LASF8:
 10808 0676 5F5F7569 		.ascii	"__uint32_t\000"
 10808      6E743332 
 10808      5F7400
 10809              	.LASF35:
 10810 0681 7278416C 		.ascii	"rxAlign\000"
 10810      69676E00 
 10811              	.LASF98:
 10812 0689 4D494641 		.ascii	"MIFARE_GetValue\000"
 10812      52455F47 
 10812      65745661 
 10812      6C756500 
 10813              	.LASF77:
 10814 0699 50494343 		.ascii	"PICC_Select\000"
 10814      5F53656C 
 10814      65637400 
 10815              	.LASF27:
 10816 06a5 61646472 		.ascii	"addr\000"
 10816      00
 10817              	.LASF44:
 10818 06aa 5043445F 		.ascii	"PCD_Reset\000"
 10818      52657365 
 10818      7400
 10819              	.LASF89:
 10820 06b4 62797465 		.ascii	"bytesToCopy\000"
 10820      73546F43 
 10820      6F707900 
 10821              	.LASF2:
 10822 06c0 7369676E 		.ascii	"signed char\000"
 10822      65642063 
 10822      68617200 
 10823              	.LASF113:
 10824 06cc 64656C74 		.ascii	"delta\000"
 10824      6100
 10825              	.LASF6:
 10826 06d2 73686F72 		.ascii	"short unsigned int\000"
 10826      7420756E 
 10826      7369676E 
 10826      65642069 
ARM GAS  C:\Users\ABAD_S~1\AppData\Local\Temp\cckPFQC2.s 			page 217


 10826      6E7400
 10827              	.LASF132:
 10828 06e5 6D656D63 		.ascii	"memcpy\000"
 10828      707900
 10829              	.LASF84:
 10830 06ec 63757272 		.ascii	"currentLevelKnownBits\000"
 10830      656E744C 
 10830      6576656C 
 10830      4B6E6F77 
 10830      6E426974 
 10831              	.LASF25:
 10832 0702 6B657942 		.ascii	"keyByte\000"
 10832      79746500 
 10833              	.LASF17:
 10834 070a 75696E74 		.ascii	"uint8\000"
 10834      3800
 10835              	.LASF19:
 10836 0710 646F7562 		.ascii	"double\000"
 10836      6C6500
 10837              	.LASF116:
 10838 0717 4D494641 		.ascii	"MIFARE_Transfer\000"
 10838      52455F54 
 10838      72616E73 
 10838      66657200 
 10839              	.LASF38:
 10840 0727 5043445F 		.ascii	"PCD_ClearRegisterBitMask\000"
 10840      436C6561 
 10840      72526567 
 10840      69737465 
 10840      72426974 
 10841              	.LASF124:
 10842 0740 5350495F 		.ascii	"SPI_WriteTxData\000"
 10842      57726974 
 10842      65547844 
 10842      61746100 
 10843              	.LASF60:
 10844 0750 73656E64 		.ascii	"sendLen\000"
 10844      4C656E00 
 10845              	.LASF92:
 10846 0758 636F6C6C 		.ascii	"collisionPos\000"
 10846      6973696F 
 10846      6E506F73 
 10846      00
 10847              		.ident	"GCC: (GNU Tools for ARM Embedded Processors) 5.4.1 20160609 (release) [ARM/embedded-5-bran
