ARM GAS  C:\Users\ABAD_S~1\AppData\Local\Temp\ccrOAQLN.s 			page 1


   1              		.syntax unified
   2              		.cpu cortex-m0
   3              		.fpu softvfp
   4              		.eabi_attribute 20, 1
   5              		.eabi_attribute 21, 1
   6              		.eabi_attribute 23, 3
   7              		.eabi_attribute 24, 1
   8              		.eabi_attribute 25, 1
   9              		.eabi_attribute 26, 1
  10              		.eabi_attribute 30, 1
  11              		.eabi_attribute 34, 0
  12              		.eabi_attribute 18, 4
  13              		.thumb
  14              		.syntax unified
  15              		.file	"cyfitter_cfg.c"
  16              		.text
  17              	.Ltext0:
  18              		.cfi_sections	.debug_frame
  19              		.section	.text.cfg_write_bytes32,"ax",%progbits
  20              		.align	2
  21              		.code	16
  22              		.thumb_func
  23              		.type	cfg_write_bytes32, %function
  24              	cfg_write_bytes32:
  25              	.LFB3:
  26              		.file 1 "Generated_Source\\PSoC4\\cyfitter_cfg.c"
   1:Generated_Source\PSoC4/cyfitter_cfg.c **** 
   2:Generated_Source\PSoC4/cyfitter_cfg.c **** /*******************************************************************************
   3:Generated_Source\PSoC4/cyfitter_cfg.c **** * File Name: cyfitter_cfg.c
   4:Generated_Source\PSoC4/cyfitter_cfg.c **** * 
   5:Generated_Source\PSoC4/cyfitter_cfg.c **** * PSoC Creator  4.2
   6:Generated_Source\PSoC4/cyfitter_cfg.c **** *
   7:Generated_Source\PSoC4/cyfitter_cfg.c **** * Description:
   8:Generated_Source\PSoC4/cyfitter_cfg.c **** * This file contains device initialization code.
   9:Generated_Source\PSoC4/cyfitter_cfg.c **** * Except for the user defined sections in CyClockStartupError(), this file should not be modified.
  10:Generated_Source\PSoC4/cyfitter_cfg.c **** * This file is automatically generated by PSoC Creator.
  11:Generated_Source\PSoC4/cyfitter_cfg.c **** *
  12:Generated_Source\PSoC4/cyfitter_cfg.c **** ********************************************************************************
  13:Generated_Source\PSoC4/cyfitter_cfg.c **** * Copyright (c) 2007-2018 Cypress Semiconductor.  All rights reserved.
  14:Generated_Source\PSoC4/cyfitter_cfg.c **** * You may use this file only in accordance with the license, terms, conditions, 
  15:Generated_Source\PSoC4/cyfitter_cfg.c **** * disclaimers, and limitations in the end user license agreement accompanying 
  16:Generated_Source\PSoC4/cyfitter_cfg.c **** * the software package with which this file was provided.
  17:Generated_Source\PSoC4/cyfitter_cfg.c **** ********************************************************************************/
  18:Generated_Source\PSoC4/cyfitter_cfg.c **** 
  19:Generated_Source\PSoC4/cyfitter_cfg.c **** #include <string.h>
  20:Generated_Source\PSoC4/cyfitter_cfg.c **** #include "cytypes.h"
  21:Generated_Source\PSoC4/cyfitter_cfg.c **** #include "cydevice_trm.h"
  22:Generated_Source\PSoC4/cyfitter_cfg.c **** #include "cyfitter.h"
  23:Generated_Source\PSoC4/cyfitter_cfg.c **** #include "CyLib.h"
  24:Generated_Source\PSoC4/cyfitter_cfg.c **** #include "CyLFClk.h"
  25:Generated_Source\PSoC4/cyfitter_cfg.c **** #include "cyfitter_cfg.h"
  26:Generated_Source\PSoC4/cyfitter_cfg.c **** #include "cyapicallbacks.h"
  27:Generated_Source\PSoC4/cyfitter_cfg.c **** 
  28:Generated_Source\PSoC4/cyfitter_cfg.c **** 
  29:Generated_Source\PSoC4/cyfitter_cfg.c **** #if defined(__GNUC__) || defined(__ARMCC_VERSION)
  30:Generated_Source\PSoC4/cyfitter_cfg.c ****     #define CYPACKED 
  31:Generated_Source\PSoC4/cyfitter_cfg.c ****     #define CYPACKED_ATTR __attribute__ ((packed))
ARM GAS  C:\Users\ABAD_S~1\AppData\Local\Temp\ccrOAQLN.s 			page 2


  32:Generated_Source\PSoC4/cyfitter_cfg.c ****     #define CYALIGNED __attribute__ ((aligned))
  33:Generated_Source\PSoC4/cyfitter_cfg.c ****     #define CY_CFG_UNUSED __attribute__ ((unused))
  34:Generated_Source\PSoC4/cyfitter_cfg.c ****     #ifndef CY_CFG_SECTION
  35:Generated_Source\PSoC4/cyfitter_cfg.c ****         #define CY_CFG_SECTION __attribute__ ((section(".psocinit")))
  36:Generated_Source\PSoC4/cyfitter_cfg.c ****     #endif
  37:Generated_Source\PSoC4/cyfitter_cfg.c ****     
  38:Generated_Source\PSoC4/cyfitter_cfg.c ****     #if defined(__ARMCC_VERSION)
  39:Generated_Source\PSoC4/cyfitter_cfg.c ****         #define CY_CFG_MEMORY_BARRIER() __memory_changed()
  40:Generated_Source\PSoC4/cyfitter_cfg.c ****     #else
  41:Generated_Source\PSoC4/cyfitter_cfg.c ****         #define CY_CFG_MEMORY_BARRIER() __sync_synchronize()
  42:Generated_Source\PSoC4/cyfitter_cfg.c ****     #endif
  43:Generated_Source\PSoC4/cyfitter_cfg.c ****     
  44:Generated_Source\PSoC4/cyfitter_cfg.c **** #elif defined(__ICCARM__)
  45:Generated_Source\PSoC4/cyfitter_cfg.c ****     #include <intrinsics.h>
  46:Generated_Source\PSoC4/cyfitter_cfg.c **** 
  47:Generated_Source\PSoC4/cyfitter_cfg.c ****     #define CYPACKED __packed
  48:Generated_Source\PSoC4/cyfitter_cfg.c ****     #define CYPACKED_ATTR 
  49:Generated_Source\PSoC4/cyfitter_cfg.c ****     #define CYALIGNED _Pragma("data_alignment=4")
  50:Generated_Source\PSoC4/cyfitter_cfg.c ****     #define CY_CFG_UNUSED _Pragma("diag_suppress=Pe177")
  51:Generated_Source\PSoC4/cyfitter_cfg.c ****     #define CY_CFG_SECTION _Pragma("location=\".psocinit\"")
  52:Generated_Source\PSoC4/cyfitter_cfg.c ****     
  53:Generated_Source\PSoC4/cyfitter_cfg.c ****     #define CY_CFG_MEMORY_BARRIER() __DMB()
  54:Generated_Source\PSoC4/cyfitter_cfg.c ****     
  55:Generated_Source\PSoC4/cyfitter_cfg.c **** #else
  56:Generated_Source\PSoC4/cyfitter_cfg.c ****     #error Unsupported toolchain
  57:Generated_Source\PSoC4/cyfitter_cfg.c **** #endif
  58:Generated_Source\PSoC4/cyfitter_cfg.c **** 
  59:Generated_Source\PSoC4/cyfitter_cfg.c **** #ifndef CYCODE
  60:Generated_Source\PSoC4/cyfitter_cfg.c ****     #define CYCODE
  61:Generated_Source\PSoC4/cyfitter_cfg.c **** #endif
  62:Generated_Source\PSoC4/cyfitter_cfg.c **** #ifndef CYDATA
  63:Generated_Source\PSoC4/cyfitter_cfg.c ****     #define CYDATA
  64:Generated_Source\PSoC4/cyfitter_cfg.c **** #endif
  65:Generated_Source\PSoC4/cyfitter_cfg.c **** #ifndef CYFAR
  66:Generated_Source\PSoC4/cyfitter_cfg.c ****     #define CYFAR
  67:Generated_Source\PSoC4/cyfitter_cfg.c **** #endif
  68:Generated_Source\PSoC4/cyfitter_cfg.c **** #ifndef CYXDATA
  69:Generated_Source\PSoC4/cyfitter_cfg.c ****     #define CYXDATA
  70:Generated_Source\PSoC4/cyfitter_cfg.c **** #endif
  71:Generated_Source\PSoC4/cyfitter_cfg.c **** 
  72:Generated_Source\PSoC4/cyfitter_cfg.c **** 
  73:Generated_Source\PSoC4/cyfitter_cfg.c **** CY_CFG_UNUSED
  74:Generated_Source\PSoC4/cyfitter_cfg.c **** static void CYMEMZERO(void *s, size_t n);
  75:Generated_Source\PSoC4/cyfitter_cfg.c **** CY_CFG_UNUSED
  76:Generated_Source\PSoC4/cyfitter_cfg.c **** static void CYMEMZERO(void *s, size_t n)
  77:Generated_Source\PSoC4/cyfitter_cfg.c **** {
  78:Generated_Source\PSoC4/cyfitter_cfg.c **** 	(void)memset(s, 0, n);
  79:Generated_Source\PSoC4/cyfitter_cfg.c **** }
  80:Generated_Source\PSoC4/cyfitter_cfg.c **** CY_CFG_UNUSED
  81:Generated_Source\PSoC4/cyfitter_cfg.c **** static void CYCONFIGCPY(void *dest, const void *src, size_t n);
  82:Generated_Source\PSoC4/cyfitter_cfg.c **** CY_CFG_UNUSED
  83:Generated_Source\PSoC4/cyfitter_cfg.c **** static void CYCONFIGCPY(void *dest, const void *src, size_t n)
  84:Generated_Source\PSoC4/cyfitter_cfg.c **** {
  85:Generated_Source\PSoC4/cyfitter_cfg.c **** 	(void)memcpy(dest, src, n);
  86:Generated_Source\PSoC4/cyfitter_cfg.c **** }
  87:Generated_Source\PSoC4/cyfitter_cfg.c **** CY_CFG_UNUSED
  88:Generated_Source\PSoC4/cyfitter_cfg.c **** static void CYCONFIGCPYCODE(void *dest, const void *src, size_t n);
ARM GAS  C:\Users\ABAD_S~1\AppData\Local\Temp\ccrOAQLN.s 			page 3


  89:Generated_Source\PSoC4/cyfitter_cfg.c **** CY_CFG_UNUSED
  90:Generated_Source\PSoC4/cyfitter_cfg.c **** static void CYCONFIGCPYCODE(void *dest, const void *src, size_t n)
  91:Generated_Source\PSoC4/cyfitter_cfg.c **** {
  92:Generated_Source\PSoC4/cyfitter_cfg.c **** 	(void)memcpy(dest, src, n);
  93:Generated_Source\PSoC4/cyfitter_cfg.c **** }
  94:Generated_Source\PSoC4/cyfitter_cfg.c **** 
  95:Generated_Source\PSoC4/cyfitter_cfg.c **** 
  96:Generated_Source\PSoC4/cyfitter_cfg.c **** 
  97:Generated_Source\PSoC4/cyfitter_cfg.c **** 
  98:Generated_Source\PSoC4/cyfitter_cfg.c **** /* Clock startup error codes                                                   */
  99:Generated_Source\PSoC4/cyfitter_cfg.c **** #define CYCLOCKSTART_NO_ERROR    0u
 100:Generated_Source\PSoC4/cyfitter_cfg.c **** #define CYCLOCKSTART_XTAL_ERROR  1u
 101:Generated_Source\PSoC4/cyfitter_cfg.c **** #define CYCLOCKSTART_32KHZ_ERROR 2u
 102:Generated_Source\PSoC4/cyfitter_cfg.c **** #define CYCLOCKSTART_PLL_ERROR   3u
 103:Generated_Source\PSoC4/cyfitter_cfg.c **** #define CYCLOCKSTART_FLL_ERROR   4u
 104:Generated_Source\PSoC4/cyfitter_cfg.c **** #define CYCLOCKSTART_WCO_ERROR   5u
 105:Generated_Source\PSoC4/cyfitter_cfg.c **** 
 106:Generated_Source\PSoC4/cyfitter_cfg.c **** 
 107:Generated_Source\PSoC4/cyfitter_cfg.c **** #ifdef CY_NEED_CYCLOCKSTARTUPERROR
 108:Generated_Source\PSoC4/cyfitter_cfg.c **** /*******************************************************************************
 109:Generated_Source\PSoC4/cyfitter_cfg.c **** * Function Name: CyClockStartupError
 110:Generated_Source\PSoC4/cyfitter_cfg.c **** ********************************************************************************
 111:Generated_Source\PSoC4/cyfitter_cfg.c **** * Summary:
 112:Generated_Source\PSoC4/cyfitter_cfg.c **** *  If an error is encountered during clock configuration (crystal startup error,
 113:Generated_Source\PSoC4/cyfitter_cfg.c **** *  PLL lock error, etc.), the system will end up here.  Unless reimplemented by
 114:Generated_Source\PSoC4/cyfitter_cfg.c **** *  the customer, this function will stop in an infinite loop.
 115:Generated_Source\PSoC4/cyfitter_cfg.c **** *
 116:Generated_Source\PSoC4/cyfitter_cfg.c **** * Parameters:
 117:Generated_Source\PSoC4/cyfitter_cfg.c **** *   void
 118:Generated_Source\PSoC4/cyfitter_cfg.c **** *
 119:Generated_Source\PSoC4/cyfitter_cfg.c **** * Return:
 120:Generated_Source\PSoC4/cyfitter_cfg.c **** *   void
 121:Generated_Source\PSoC4/cyfitter_cfg.c **** *
 122:Generated_Source\PSoC4/cyfitter_cfg.c **** *******************************************************************************/
 123:Generated_Source\PSoC4/cyfitter_cfg.c **** CY_CFG_UNUSED
 124:Generated_Source\PSoC4/cyfitter_cfg.c **** static void CyClockStartupError(uint8 errorCode);
 125:Generated_Source\PSoC4/cyfitter_cfg.c **** CY_CFG_UNUSED
 126:Generated_Source\PSoC4/cyfitter_cfg.c **** static void CyClockStartupError(uint8 errorCode)
 127:Generated_Source\PSoC4/cyfitter_cfg.c **** {
 128:Generated_Source\PSoC4/cyfitter_cfg.c ****     /* To remove the compiler warning if errorCode not used.                */
 129:Generated_Source\PSoC4/cyfitter_cfg.c ****     errorCode = errorCode;
 130:Generated_Source\PSoC4/cyfitter_cfg.c **** 
 131:Generated_Source\PSoC4/cyfitter_cfg.c ****     /* If we have a clock startup error (bad MHz crystal, PLL lock, etc.),  */
 132:Generated_Source\PSoC4/cyfitter_cfg.c ****     /* we will end up here to allow the customer to implement something to  */
 133:Generated_Source\PSoC4/cyfitter_cfg.c ****     /* deal with the clock condition.                                       */
 134:Generated_Source\PSoC4/cyfitter_cfg.c **** 
 135:Generated_Source\PSoC4/cyfitter_cfg.c **** #ifdef CY_CFG_CLOCK_STARTUP_ERROR_CALLBACK
 136:Generated_Source\PSoC4/cyfitter_cfg.c ****     CY_CFG_Clock_Startup_ErrorCallback();
 137:Generated_Source\PSoC4/cyfitter_cfg.c **** #else
 138:Generated_Source\PSoC4/cyfitter_cfg.c ****     /*  If not using CY_CFG_CLOCK_STARTUP_ERROR_CALLBACK, place your clock startup code here. */
 139:Generated_Source\PSoC4/cyfitter_cfg.c ****     /* `#START CyClockStartupError` */
 140:Generated_Source\PSoC4/cyfitter_cfg.c **** 
 141:Generated_Source\PSoC4/cyfitter_cfg.c **** 
 142:Generated_Source\PSoC4/cyfitter_cfg.c **** 
 143:Generated_Source\PSoC4/cyfitter_cfg.c ****     /* `#END` */
 144:Generated_Source\PSoC4/cyfitter_cfg.c **** 
 145:Generated_Source\PSoC4/cyfitter_cfg.c ****     while(1) {}
ARM GAS  C:\Users\ABAD_S~1\AppData\Local\Temp\ccrOAQLN.s 			page 4


 146:Generated_Source\PSoC4/cyfitter_cfg.c **** #endif /* CY_CFG_CLOCK_STARTUP_ERROR_CALLBACK */
 147:Generated_Source\PSoC4/cyfitter_cfg.c **** }
 148:Generated_Source\PSoC4/cyfitter_cfg.c **** #endif
 149:Generated_Source\PSoC4/cyfitter_cfg.c **** 
 150:Generated_Source\PSoC4/cyfitter_cfg.c **** #define CY_CFG_BASE_ADDR_COUNT 9u
 151:Generated_Source\PSoC4/cyfitter_cfg.c **** CYPACKED typedef struct
 152:Generated_Source\PSoC4/cyfitter_cfg.c **** {
 153:Generated_Source\PSoC4/cyfitter_cfg.c **** 	uint8 offset;
 154:Generated_Source\PSoC4/cyfitter_cfg.c **** 	uint8 value;
 155:Generated_Source\PSoC4/cyfitter_cfg.c **** } CYPACKED_ATTR cy_cfg_addrvalue_t;
 156:Generated_Source\PSoC4/cyfitter_cfg.c **** 
 157:Generated_Source\PSoC4/cyfitter_cfg.c **** 
 158:Generated_Source\PSoC4/cyfitter_cfg.c **** 
 159:Generated_Source\PSoC4/cyfitter_cfg.c **** /*******************************************************************************
 160:Generated_Source\PSoC4/cyfitter_cfg.c **** * Function Name: cfg_write_bytes32
 161:Generated_Source\PSoC4/cyfitter_cfg.c **** ********************************************************************************
 162:Generated_Source\PSoC4/cyfitter_cfg.c **** * Summary:
 163:Generated_Source\PSoC4/cyfitter_cfg.c **** *  This function is used for setting up the chip configuration areas that
 164:Generated_Source\PSoC4/cyfitter_cfg.c **** *  contain relatively sparse data.
 165:Generated_Source\PSoC4/cyfitter_cfg.c **** *
 166:Generated_Source\PSoC4/cyfitter_cfg.c **** * Parameters:
 167:Generated_Source\PSoC4/cyfitter_cfg.c **** *   void
 168:Generated_Source\PSoC4/cyfitter_cfg.c **** *
 169:Generated_Source\PSoC4/cyfitter_cfg.c **** * Return:
 170:Generated_Source\PSoC4/cyfitter_cfg.c **** *   void
 171:Generated_Source\PSoC4/cyfitter_cfg.c **** *
 172:Generated_Source\PSoC4/cyfitter_cfg.c **** *******************************************************************************/
 173:Generated_Source\PSoC4/cyfitter_cfg.c **** static void cfg_write_bytes32(const uint32 addr_table[], const cy_cfg_addrvalue_t data_table[]);
 174:Generated_Source\PSoC4/cyfitter_cfg.c **** static void cfg_write_bytes32(const uint32 addr_table[], const cy_cfg_addrvalue_t data_table[])
 175:Generated_Source\PSoC4/cyfitter_cfg.c **** {
  27              		.loc 1 175 0
  28              		.cfi_startproc
  29              		@ args = 0, pretend = 0, frame = 0
  30              		@ frame_needed = 0, uses_anonymous_args = 0
  31              	.LVL0:
  32 0000 F0B5     		push	{r4, r5, r6, r7, lr}
  33              		.cfi_def_cfa_offset 20
  34              		.cfi_offset 4, -20
  35              		.cfi_offset 5, -16
  36              		.cfi_offset 6, -12
  37              		.cfi_offset 7, -8
  38              		.cfi_offset 14, -4
  39              	.LVL1:
 176:Generated_Source\PSoC4/cyfitter_cfg.c **** 	/* For 32-bit little-endian architectures */
 177:Generated_Source\PSoC4/cyfitter_cfg.c **** 	uint32 i, j = 0u;
  40              		.loc 1 177 0
  41 0002 0025     		movs	r5, #0
 178:Generated_Source\PSoC4/cyfitter_cfg.c **** 	for (i = 0u; i < CY_CFG_BASE_ADDR_COUNT; i++)
  42              		.loc 1 178 0
  43 0004 0027     		movs	r7, #0
  44 0006 11E0     		b	.L2
  45              	.LVL2:
  46              	.L5:
  47              	.LBB2:
 179:Generated_Source\PSoC4/cyfitter_cfg.c **** 	{
 180:Generated_Source\PSoC4/cyfitter_cfg.c **** 		uint32 baseAddr = addr_table[i];
  48              		.loc 1 180 0
ARM GAS  C:\Users\ABAD_S~1\AppData\Local\Temp\ccrOAQLN.s 			page 5


  49 0008 BB00     		lsls	r3, r7, #2
  50 000a C658     		ldr	r6, [r0, r3]
  51              	.LVL3:
 181:Generated_Source\PSoC4/cyfitter_cfg.c **** 		uint8 count = (uint8)baseAddr;
  52              		.loc 1 181 0
  53 000c F3B2     		uxtb	r3, r6
  54              	.LVL4:
 182:Generated_Source\PSoC4/cyfitter_cfg.c **** 		baseAddr &= 0xFFFFFF00u;
  55              		.loc 1 182 0
  56 000e FF22     		movs	r2, #255
  57 0010 9643     		bics	r6, r2
  58              	.LVL5:
 183:Generated_Source\PSoC4/cyfitter_cfg.c **** 		while (count != 0u)
  59              		.loc 1 183 0
  60 0012 08E0     		b	.L3
  61              	.L4:
 184:Generated_Source\PSoC4/cyfitter_cfg.c **** 		{
 185:Generated_Source\PSoC4/cyfitter_cfg.c **** 			CY_SET_REG8((void *)(baseAddr + data_table[j].offset), data_table[j].value);
  62              		.loc 1 185 0
  63 0014 6A00     		lsls	r2, r5, #1
  64 0016 8A18     		adds	r2, r1, r2
  65 0018 1478     		ldrb	r4, [r2]
  66 001a A419     		adds	r4, r4, r6
  67 001c 5278     		ldrb	r2, [r2, #1]
  68 001e 2270     		strb	r2, [r4]
 186:Generated_Source\PSoC4/cyfitter_cfg.c **** 			j++;
  69              		.loc 1 186 0
  70 0020 0135     		adds	r5, r5, #1
  71              	.LVL6:
 187:Generated_Source\PSoC4/cyfitter_cfg.c **** 			count--;
  72              		.loc 1 187 0
  73 0022 013B     		subs	r3, r3, #1
  74              	.LVL7:
  75 0024 DBB2     		uxtb	r3, r3
  76              	.LVL8:
  77              	.L3:
 183:Generated_Source\PSoC4/cyfitter_cfg.c **** 		{
  78              		.loc 1 183 0
  79 0026 002B     		cmp	r3, #0
  80 0028 F4D1     		bne	.L4
  81              	.LBE2:
 178:Generated_Source\PSoC4/cyfitter_cfg.c **** 	{
  82              		.loc 1 178 0 discriminator 2
  83 002a 0137     		adds	r7, r7, #1
  84              	.LVL9:
  85              	.L2:
 178:Generated_Source\PSoC4/cyfitter_cfg.c **** 	{
  86              		.loc 1 178 0 is_stmt 0 discriminator 1
  87 002c 082F     		cmp	r7, #8
  88 002e EBD9     		bls	.L5
 188:Generated_Source\PSoC4/cyfitter_cfg.c **** 		}
 189:Generated_Source\PSoC4/cyfitter_cfg.c **** 	}
 190:Generated_Source\PSoC4/cyfitter_cfg.c **** }
  89              		.loc 1 190 0 is_stmt 1
  90              		@ sp needed
  91              	.LVL10:
  92              	.LVL11:
ARM GAS  C:\Users\ABAD_S~1\AppData\Local\Temp\ccrOAQLN.s 			page 6


  93 0030 F0BD     		pop	{r4, r5, r6, r7, pc}
  94              		.cfi_endproc
  95              	.LFE3:
  96              		.size	cfg_write_bytes32, .-cfg_write_bytes32
  97 0032 C046     		.section	.text.CYMEMZERO,"ax",%progbits
  98              		.align	2
  99              		.code	16
 100              		.thumb_func
 101              		.type	CYMEMZERO, %function
 102              	CYMEMZERO:
 103              	.LFB0:
  77:Generated_Source\PSoC4/cyfitter_cfg.c **** 	(void)memset(s, 0, n);
 104              		.loc 1 77 0
 105              		.cfi_startproc
 106              		@ args = 0, pretend = 0, frame = 0
 107              		@ frame_needed = 0, uses_anonymous_args = 0
 108              	.LVL12:
 109 0000 10B5     		push	{r4, lr}
 110              		.cfi_def_cfa_offset 8
 111              		.cfi_offset 4, -8
 112              		.cfi_offset 14, -4
 113 0002 0A00     		movs	r2, r1
  78:Generated_Source\PSoC4/cyfitter_cfg.c **** }
 114              		.loc 1 78 0
 115 0004 0021     		movs	r1, #0
 116              	.LVL13:
 117 0006 FFF7FEFF 		bl	memset
 118              	.LVL14:
  79:Generated_Source\PSoC4/cyfitter_cfg.c **** CY_CFG_UNUSED
 119              		.loc 1 79 0
 120              		@ sp needed
 121 000a 10BD     		pop	{r4, pc}
 122              		.cfi_endproc
 123              	.LFE0:
 124              		.size	CYMEMZERO, .-CYMEMZERO
 125              		.section	.text.CYCONFIGCPYCODE,"ax",%progbits
 126              		.align	2
 127              		.code	16
 128              		.thumb_func
 129              		.type	CYCONFIGCPYCODE, %function
 130              	CYCONFIGCPYCODE:
 131              	.LFB2:
  91:Generated_Source\PSoC4/cyfitter_cfg.c **** 	(void)memcpy(dest, src, n);
 132              		.loc 1 91 0
 133              		.cfi_startproc
 134              		@ args = 0, pretend = 0, frame = 0
 135              		@ frame_needed = 0, uses_anonymous_args = 0
 136              	.LVL15:
 137 0000 10B5     		push	{r4, lr}
 138              		.cfi_def_cfa_offset 8
 139              		.cfi_offset 4, -8
 140              		.cfi_offset 14, -4
  92:Generated_Source\PSoC4/cyfitter_cfg.c **** }
 141              		.loc 1 92 0
 142 0002 FFF7FEFF 		bl	memcpy
 143              	.LVL16:
  93:Generated_Source\PSoC4/cyfitter_cfg.c **** 
ARM GAS  C:\Users\ABAD_S~1\AppData\Local\Temp\ccrOAQLN.s 			page 7


 144              		.loc 1 93 0
 145              		@ sp needed
 146 0006 10BD     		pop	{r4, pc}
 147              		.cfi_endproc
 148              	.LFE2:
 149              		.size	CYCONFIGCPYCODE, .-CYCONFIGCPYCODE
 150              		.section	.psocinit,"ax",%progbits
 151              		.align	2
 152              		.code	16
 153              		.thumb_func
 154              		.type	ClockSetup, %function
 155              	ClockSetup:
 156              	.LFB4:
 191:Generated_Source\PSoC4/cyfitter_cfg.c **** 
 192:Generated_Source\PSoC4/cyfitter_cfg.c **** 
 193:Generated_Source\PSoC4/cyfitter_cfg.c **** /*******************************************************************************
 194:Generated_Source\PSoC4/cyfitter_cfg.c **** * Function Name: ClockSetup
 195:Generated_Source\PSoC4/cyfitter_cfg.c **** ********************************************************************************
 196:Generated_Source\PSoC4/cyfitter_cfg.c **** *
 197:Generated_Source\PSoC4/cyfitter_cfg.c **** * Summary:
 198:Generated_Source\PSoC4/cyfitter_cfg.c **** *   Performs the initialization of all of the clocks in the device based on the
 199:Generated_Source\PSoC4/cyfitter_cfg.c **** *   settings in the Clock tab of the DWR.  This includes enabling the requested
 200:Generated_Source\PSoC4/cyfitter_cfg.c **** *   clocks and setting the necessary dividers to produce the desired frequency. 
 201:Generated_Source\PSoC4/cyfitter_cfg.c **** *
 202:Generated_Source\PSoC4/cyfitter_cfg.c **** * Parameters:
 203:Generated_Source\PSoC4/cyfitter_cfg.c **** *   void
 204:Generated_Source\PSoC4/cyfitter_cfg.c **** *
 205:Generated_Source\PSoC4/cyfitter_cfg.c **** * Return:
 206:Generated_Source\PSoC4/cyfitter_cfg.c **** *   void
 207:Generated_Source\PSoC4/cyfitter_cfg.c **** *
 208:Generated_Source\PSoC4/cyfitter_cfg.c **** *******************************************************************************/
 209:Generated_Source\PSoC4/cyfitter_cfg.c **** static void ClockSetup(void);
 210:Generated_Source\PSoC4/cyfitter_cfg.c **** CY_CFG_SECTION
 211:Generated_Source\PSoC4/cyfitter_cfg.c **** static void ClockSetup(void)
 212:Generated_Source\PSoC4/cyfitter_cfg.c **** {
 157              		.loc 1 212 0
 158              		.cfi_startproc
 159              		@ args = 0, pretend = 0, frame = 0
 160              		@ frame_needed = 0, uses_anonymous_args = 0
 161 0000 70B5     		push	{r4, r5, r6, lr}
 162              		.cfi_def_cfa_offset 16
 163              		.cfi_offset 4, -16
 164              		.cfi_offset 5, -12
 165              		.cfi_offset 6, -8
 166              		.cfi_offset 14, -4
 213:Generated_Source\PSoC4/cyfitter_cfg.c **** 	/* Enable HALF_EN before trimming for the flash accelerator. */
 214:Generated_Source\PSoC4/cyfitter_cfg.c **** 	CY_SET_REG32((void CYXDATA *)(CYREG_CLK_SELECT), (CY_GET_REG32((void *)CYREG_CLK_SELECT) | 0x00040
 167              		.loc 1 214 0
 168 0002 164C     		ldr	r4, .L9
 169 0004 2368     		ldr	r3, [r4]
 170 0006 8022     		movs	r2, #128
 171 0008 D202     		lsls	r2, r2, #11
 172 000a 1343     		orrs	r3, r2
 173 000c 2360     		str	r3, [r4]
 215:Generated_Source\PSoC4/cyfitter_cfg.c **** 
 216:Generated_Source\PSoC4/cyfitter_cfg.c **** 	/* Setup and trim IMO based on desired frequency. */
 217:Generated_Source\PSoC4/cyfitter_cfg.c **** 	CySysClkWriteImoFreq(24u);
ARM GAS  C:\Users\ABAD_S~1\AppData\Local\Temp\ccrOAQLN.s 			page 8


 174              		.loc 1 217 0
 175 000e 1820     		movs	r0, #24
 176 0010 FFF7FEFF 		bl	CySysClkWriteImoFreq
 177              	.LVL17:
 218:Generated_Source\PSoC4/cyfitter_cfg.c **** 
 219:Generated_Source\PSoC4/cyfitter_cfg.c **** 	/* Disable HALF_EN since it is not required at this IMO frequency. */
 220:Generated_Source\PSoC4/cyfitter_cfg.c **** 	CY_SET_REG32((void CYXDATA *)(CYREG_CLK_SELECT), (CY_GET_REG32((void *)CYREG_CLK_SELECT) & 0xFFFBF
 178              		.loc 1 220 0
 179 0014 2268     		ldr	r2, [r4]
 180 0016 124B     		ldr	r3, .L9+4
 181 0018 1340     		ands	r3, r2
 182 001a 2360     		str	r3, [r4]
 221:Generated_Source\PSoC4/cyfitter_cfg.c **** 	/* CYDEV_CLK_ILO_CONFIG Starting address: CYDEV_CLK_ILO_CONFIG */
 222:Generated_Source\PSoC4/cyfitter_cfg.c **** 	CY_SET_REG32((void *)(CYREG_CLK_ILO_CONFIG), 0x80000006u);
 183              		.loc 1 222 0
 184 001c 114A     		ldr	r2, .L9+8
 185 001e 124B     		ldr	r3, .L9+12
 186 0020 1A60     		str	r2, [r3]
 223:Generated_Source\PSoC4/cyfitter_cfg.c **** 
 224:Generated_Source\PSoC4/cyfitter_cfg.c **** 
 225:Generated_Source\PSoC4/cyfitter_cfg.c **** 	/* CYDEV_CLK_SELECT00 Starting address: CYDEV_CLK_SELECT00 */
 226:Generated_Source\PSoC4/cyfitter_cfg.c **** 	CY_SET_REG32((void *)(CYREG_CLK_SELECT02), 0x00000010u);
 187              		.loc 1 226 0
 188 0022 1022     		movs	r2, #16
 189 0024 114B     		ldr	r3, .L9+16
 190 0026 1A60     		str	r2, [r3]
 227:Generated_Source\PSoC4/cyfitter_cfg.c **** 	CY_SET_REG32((void *)(CYREG_CLK_SELECT12), 0x00000020u);
 191              		.loc 1 227 0
 192 0028 1032     		adds	r2, r2, #16
 193 002a 114B     		ldr	r3, .L9+20
 194 002c 1A60     		str	r2, [r3]
 228:Generated_Source\PSoC4/cyfitter_cfg.c **** 
 229:Generated_Source\PSoC4/cyfitter_cfg.c **** 	/* CYDEV_CLK_IMO_CONFIG Starting address: CYDEV_CLK_IMO_CONFIG */
 230:Generated_Source\PSoC4/cyfitter_cfg.c **** 	CY_SET_REG32((void *)(CYREG_CLK_IMO_CONFIG), 0x80000000u);
 195              		.loc 1 230 0
 196 002e 8022     		movs	r2, #128
 197 0030 1206     		lsls	r2, r2, #24
 198 0032 104B     		ldr	r3, .L9+24
 199 0034 1A60     		str	r2, [r3]
 231:Generated_Source\PSoC4/cyfitter_cfg.c **** 
 232:Generated_Source\PSoC4/cyfitter_cfg.c **** 	/* CYDEV_CLK_SELECT Starting address: CYDEV_CLK_SELECT */
 233:Generated_Source\PSoC4/cyfitter_cfg.c **** 	CY_SET_REG32((void *)(CYREG_CLK_SELECT), 0x00000000u);
 200              		.loc 1 233 0
 201 0036 0025     		movs	r5, #0
 202 0038 2560     		str	r5, [r4]
 234:Generated_Source\PSoC4/cyfitter_cfg.c **** 
 235:Generated_Source\PSoC4/cyfitter_cfg.c **** 	/* CYDEV_CLK_DIVIDER_A00 Starting address: CYDEV_CLK_DIVIDER_A00 */
 236:Generated_Source\PSoC4/cyfitter_cfg.c **** 	CY_SET_REG32((void *)(CYREG_CLK_DIVIDER_A00), 0x8000000Eu);
 203              		.loc 1 236 0
 204 003a 0F4A     		ldr	r2, .L9+28
 205 003c 0F4B     		ldr	r3, .L9+32
 206 003e 1A60     		str	r2, [r3]
 237:Generated_Source\PSoC4/cyfitter_cfg.c **** 
 238:Generated_Source\PSoC4/cyfitter_cfg.c **** 	/* CYDEV_CLK_DIVIDER_B00 Starting address: CYDEV_CLK_DIVIDER_B00 */
 239:Generated_Source\PSoC4/cyfitter_cfg.c **** 	CY_SET_REG32((void *)(CYREG_CLK_DIVIDER_B00), 0x80000077u);
 207              		.loc 1 239 0
 208 0040 0F4A     		ldr	r2, .L9+36
ARM GAS  C:\Users\ABAD_S~1\AppData\Local\Temp\ccrOAQLN.s 			page 9


 209 0042 104B     		ldr	r3, .L9+40
 210 0044 1A60     		str	r2, [r3]
 240:Generated_Source\PSoC4/cyfitter_cfg.c **** 
 241:Generated_Source\PSoC4/cyfitter_cfg.c **** 	(void)CyIntSetVector(9u, &CySysWdtIsr);
 211              		.loc 1 241 0
 212 0046 1049     		ldr	r1, .L9+44
 213 0048 0920     		movs	r0, #9
 214 004a FFF7FEFF 		bl	CyIntSetVector
 215              	.LVL18:
 242:Generated_Source\PSoC4/cyfitter_cfg.c **** 	CyIntEnable(9u);
 216              		.loc 1 242 0
 217 004e 0920     		movs	r0, #9
 218 0050 FFF7FEFF 		bl	CyIntEnable
 219              	.LVL19:
 243:Generated_Source\PSoC4/cyfitter_cfg.c **** 	CY_SET_REG32((void *)(CYREG_WDT_CONFIG), 0x00000000u);
 220              		.loc 1 243 0
 221 0054 0D4B     		ldr	r3, .L9+48
 222 0056 1D60     		str	r5, [r3]
 244:Generated_Source\PSoC4/cyfitter_cfg.c **** }
 223              		.loc 1 244 0
 224              		@ sp needed
 225 0058 70BD     		pop	{r4, r5, r6, pc}
 226              	.L10:
 227 005a C046     		.align	2
 228              	.L9:
 229 005c 00010B40 		.word	1074462976
 230 0060 FFFFFBFF 		.word	-262145
 231 0064 06000080 		.word	-2147483642
 232 0068 04010B40 		.word	1074462980
 233 006c 08020240 		.word	1073873416
 234 0070 30020240 		.word	1073873456
 235 0074 08010B40 		.word	1074462984
 236 0078 0E000080 		.word	-2147483634
 237 007c 00000240 		.word	1073872896
 238 0080 77000080 		.word	-2147483529
 239 0084 40000240 		.word	1073872960
 240 0088 00000000 		.word	CySysWdtIsr
 241 008c 0C020B40 		.word	1074463244
 242              		.cfi_endproc
 243              	.LFE4:
 244              		.size	ClockSetup, .-ClockSetup
 245              		.align	2
 246              		.global	cyfitter_cfg
 247              		.code	16
 248              		.thumb_func
 249              		.type	cyfitter_cfg, %function
 250              	cyfitter_cfg:
 251              	.LFB6:
 245:Generated_Source\PSoC4/cyfitter_cfg.c **** 
 246:Generated_Source\PSoC4/cyfitter_cfg.c **** 
 247:Generated_Source\PSoC4/cyfitter_cfg.c **** /* Analog API Functions */
 248:Generated_Source\PSoC4/cyfitter_cfg.c **** 
 249:Generated_Source\PSoC4/cyfitter_cfg.c **** 
 250:Generated_Source\PSoC4/cyfitter_cfg.c **** /*******************************************************************************
 251:Generated_Source\PSoC4/cyfitter_cfg.c **** * Function Name: AnalogSetDefault
 252:Generated_Source\PSoC4/cyfitter_cfg.c **** ********************************************************************************
 253:Generated_Source\PSoC4/cyfitter_cfg.c **** *
ARM GAS  C:\Users\ABAD_S~1\AppData\Local\Temp\ccrOAQLN.s 			page 10


 254:Generated_Source\PSoC4/cyfitter_cfg.c **** * Summary:
 255:Generated_Source\PSoC4/cyfitter_cfg.c **** *  Sets up the analog portions of the chip to default values based on chip
 256:Generated_Source\PSoC4/cyfitter_cfg.c **** *  configuration options from the project.
 257:Generated_Source\PSoC4/cyfitter_cfg.c **** *
 258:Generated_Source\PSoC4/cyfitter_cfg.c **** * Parameters:
 259:Generated_Source\PSoC4/cyfitter_cfg.c **** *  void
 260:Generated_Source\PSoC4/cyfitter_cfg.c **** *
 261:Generated_Source\PSoC4/cyfitter_cfg.c **** * Return:
 262:Generated_Source\PSoC4/cyfitter_cfg.c **** *  void
 263:Generated_Source\PSoC4/cyfitter_cfg.c **** *
 264:Generated_Source\PSoC4/cyfitter_cfg.c **** *******************************************************************************/
 265:Generated_Source\PSoC4/cyfitter_cfg.c **** static void AnalogSetDefault(void);
 266:Generated_Source\PSoC4/cyfitter_cfg.c **** static void AnalogSetDefault(void)
 267:Generated_Source\PSoC4/cyfitter_cfg.c **** {
 268:Generated_Source\PSoC4/cyfitter_cfg.c **** }
 269:Generated_Source\PSoC4/cyfitter_cfg.c **** 
 270:Generated_Source\PSoC4/cyfitter_cfg.c **** 
 271:Generated_Source\PSoC4/cyfitter_cfg.c **** 
 272:Generated_Source\PSoC4/cyfitter_cfg.c **** 
 273:Generated_Source\PSoC4/cyfitter_cfg.c **** /*******************************************************************************
 274:Generated_Source\PSoC4/cyfitter_cfg.c **** * Function Name: cyfitter_cfg
 275:Generated_Source\PSoC4/cyfitter_cfg.c **** ********************************************************************************
 276:Generated_Source\PSoC4/cyfitter_cfg.c **** * Summary:
 277:Generated_Source\PSoC4/cyfitter_cfg.c **** *  This function is called by the start-up code for the selected device. It
 278:Generated_Source\PSoC4/cyfitter_cfg.c **** *  performs all of the necessary device configuration based on the design
 279:Generated_Source\PSoC4/cyfitter_cfg.c **** *  settings.  This includes settings from the Design Wide Resources (DWR) such
 280:Generated_Source\PSoC4/cyfitter_cfg.c **** *  as Clocks and Pins as well as any component configuration that is necessary.
 281:Generated_Source\PSoC4/cyfitter_cfg.c **** *
 282:Generated_Source\PSoC4/cyfitter_cfg.c **** * Parameters:
 283:Generated_Source\PSoC4/cyfitter_cfg.c **** *   void
 284:Generated_Source\PSoC4/cyfitter_cfg.c **** *
 285:Generated_Source\PSoC4/cyfitter_cfg.c **** * Return:
 286:Generated_Source\PSoC4/cyfitter_cfg.c **** *   void
 287:Generated_Source\PSoC4/cyfitter_cfg.c **** *
 288:Generated_Source\PSoC4/cyfitter_cfg.c **** *******************************************************************************/
 289:Generated_Source\PSoC4/cyfitter_cfg.c **** CY_CFG_SECTION
 290:Generated_Source\PSoC4/cyfitter_cfg.c **** void cyfitter_cfg(void)
 291:Generated_Source\PSoC4/cyfitter_cfg.c **** {
 252              		.loc 1 291 0
 253              		.cfi_startproc
 254              		@ args = 0, pretend = 0, frame = 0
 255              		@ frame_needed = 0, uses_anonymous_args = 0
 256 0090 70B5     		push	{r4, r5, r6, lr}
 257              		.cfi_def_cfa_offset 16
 258              		.cfi_offset 4, -16
 259              		.cfi_offset 5, -12
 260              		.cfi_offset 6, -8
 261              		.cfi_offset 14, -4
 292:Generated_Source\PSoC4/cyfitter_cfg.c **** 	/* Disable interrupts by default. Let user enable if/when they want. */
 293:Generated_Source\PSoC4/cyfitter_cfg.c **** 	CyGlobalIntDisable;
 262              		.loc 1 293 0
 263              		.syntax divided
 264              	@ 293 "Generated_Source\PSoC4\cyfitter_cfg.c" 1
 265 0092 72B6     		CPSID   i
 266              	@ 0 "" 2
 267              	.LVL20:
 268              		.thumb
ARM GAS  C:\Users\ABAD_S~1\AppData\Local\Temp\ccrOAQLN.s 			page 11


 269              		.syntax unified
 270              	.LBB3:
 294:Generated_Source\PSoC4/cyfitter_cfg.c **** 
 295:Generated_Source\PSoC4/cyfitter_cfg.c **** 	{
 296:Generated_Source\PSoC4/cyfitter_cfg.c **** 		static const uint32 CYCODE cy_cfg_addr_table[] = {
 297:Generated_Source\PSoC4/cyfitter_cfg.c **** 			0x400F0001u, /* Base address: 0x400F0000 Count: 1 */
 298:Generated_Source\PSoC4/cyfitter_cfg.c **** 			0x400F312Au, /* Base address: 0x400F3100 Count: 42 */
 299:Generated_Source\PSoC4/cyfitter_cfg.c **** 			0x400F3237u, /* Base address: 0x400F3200 Count: 55 */
 300:Generated_Source\PSoC4/cyfitter_cfg.c **** 			0x400F332Bu, /* Base address: 0x400F3300 Count: 43 */
 301:Generated_Source\PSoC4/cyfitter_cfg.c **** 			0x400F4003u, /* Base address: 0x400F4000 Count: 3 */
 302:Generated_Source\PSoC4/cyfitter_cfg.c **** 			0x400F4104u, /* Base address: 0x400F4100 Count: 4 */
 303:Generated_Source\PSoC4/cyfitter_cfg.c **** 			0x400F4202u, /* Base address: 0x400F4200 Count: 2 */
 304:Generated_Source\PSoC4/cyfitter_cfg.c **** 			0x400F4308u, /* Base address: 0x400F4300 Count: 8 */
 305:Generated_Source\PSoC4/cyfitter_cfg.c **** 			0x400F6002u, /* Base address: 0x400F6000 Count: 2 */
 306:Generated_Source\PSoC4/cyfitter_cfg.c **** 		};
 307:Generated_Source\PSoC4/cyfitter_cfg.c **** 
 308:Generated_Source\PSoC4/cyfitter_cfg.c **** 		static const cy_cfg_addrvalue_t CYCODE cy_cfg_data_table[] = {
 309:Generated_Source\PSoC4/cyfitter_cfg.c **** 			{0x80u, 0x0Fu},
 310:Generated_Source\PSoC4/cyfitter_cfg.c **** 			{0x00u, 0x98u},
 311:Generated_Source\PSoC4/cyfitter_cfg.c **** 			{0x01u, 0x01u},
 312:Generated_Source\PSoC4/cyfitter_cfg.c **** 			{0x08u, 0x04u},
 313:Generated_Source\PSoC4/cyfitter_cfg.c **** 			{0x09u, 0x80u},
 314:Generated_Source\PSoC4/cyfitter_cfg.c **** 			{0x0Au, 0x88u},
 315:Generated_Source\PSoC4/cyfitter_cfg.c **** 			{0x10u, 0x28u},
 316:Generated_Source\PSoC4/cyfitter_cfg.c **** 			{0x11u, 0x40u},
 317:Generated_Source\PSoC4/cyfitter_cfg.c **** 			{0x18u, 0x54u},
 318:Generated_Source\PSoC4/cyfitter_cfg.c **** 			{0x19u, 0x81u},
 319:Generated_Source\PSoC4/cyfitter_cfg.c **** 			{0x20u, 0x0Au},
 320:Generated_Source\PSoC4/cyfitter_cfg.c **** 			{0x21u, 0x54u},
 321:Generated_Source\PSoC4/cyfitter_cfg.c **** 			{0x22u, 0x54u},
 322:Generated_Source\PSoC4/cyfitter_cfg.c **** 			{0x23u, 0x11u},
 323:Generated_Source\PSoC4/cyfitter_cfg.c **** 			{0x28u, 0x24u},
 324:Generated_Source\PSoC4/cyfitter_cfg.c **** 			{0x29u, 0x10u},
 325:Generated_Source\PSoC4/cyfitter_cfg.c **** 			{0x2Au, 0x04u},
 326:Generated_Source\PSoC4/cyfitter_cfg.c **** 			{0x31u, 0x80u},
 327:Generated_Source\PSoC4/cyfitter_cfg.c **** 			{0x32u, 0x14u},
 328:Generated_Source\PSoC4/cyfitter_cfg.c **** 			{0x33u, 0x01u},
 329:Generated_Source\PSoC4/cyfitter_cfg.c **** 			{0x39u, 0x95u},
 330:Generated_Source\PSoC4/cyfitter_cfg.c **** 			{0x40u, 0x40u},
 331:Generated_Source\PSoC4/cyfitter_cfg.c **** 			{0x41u, 0x04u},
 332:Generated_Source\PSoC4/cyfitter_cfg.c **** 			{0x42u, 0x04u},
 333:Generated_Source\PSoC4/cyfitter_cfg.c **** 			{0x48u, 0x45u},
 334:Generated_Source\PSoC4/cyfitter_cfg.c **** 			{0x49u, 0x04u},
 335:Generated_Source\PSoC4/cyfitter_cfg.c **** 			{0x50u, 0x02u},
 336:Generated_Source\PSoC4/cyfitter_cfg.c **** 			{0x52u, 0x14u},
 337:Generated_Source\PSoC4/cyfitter_cfg.c **** 			{0x62u, 0x02u},
 338:Generated_Source\PSoC4/cyfitter_cfg.c **** 			{0x68u, 0x28u},
 339:Generated_Source\PSoC4/cyfitter_cfg.c **** 			{0x69u, 0x55u},
 340:Generated_Source\PSoC4/cyfitter_cfg.c **** 			{0x6Bu, 0x01u},
 341:Generated_Source\PSoC4/cyfitter_cfg.c **** 			{0x71u, 0x80u},
 342:Generated_Source\PSoC4/cyfitter_cfg.c **** 			{0x8Au, 0x04u},
 343:Generated_Source\PSoC4/cyfitter_cfg.c **** 			{0xC0u, 0x0Fu},
 344:Generated_Source\PSoC4/cyfitter_cfg.c **** 			{0xC2u, 0x0Fu},
 345:Generated_Source\PSoC4/cyfitter_cfg.c **** 			{0xC4u, 0x07u},
 346:Generated_Source\PSoC4/cyfitter_cfg.c **** 			{0xCAu, 0x06u},
 347:Generated_Source\PSoC4/cyfitter_cfg.c **** 			{0xCCu, 0x0Fu},
 348:Generated_Source\PSoC4/cyfitter_cfg.c **** 			{0xCEu, 0x0Fu},
ARM GAS  C:\Users\ABAD_S~1\AppData\Local\Temp\ccrOAQLN.s 			page 12


 349:Generated_Source\PSoC4/cyfitter_cfg.c **** 			{0xD0u, 0x07u},
 350:Generated_Source\PSoC4/cyfitter_cfg.c **** 			{0xD2u, 0x0Cu},
 351:Generated_Source\PSoC4/cyfitter_cfg.c **** 			{0xD8u, 0x01u},
 352:Generated_Source\PSoC4/cyfitter_cfg.c **** 			{0x04u, 0x38u},
 353:Generated_Source\PSoC4/cyfitter_cfg.c **** 			{0x0Eu, 0x02u},
 354:Generated_Source\PSoC4/cyfitter_cfg.c **** 			{0x14u, 0x14u},
 355:Generated_Source\PSoC4/cyfitter_cfg.c **** 			{0x16u, 0x2Bu},
 356:Generated_Source\PSoC4/cyfitter_cfg.c **** 			{0x18u, 0x10u},
 357:Generated_Source\PSoC4/cyfitter_cfg.c **** 			{0x1Au, 0x27u},
 358:Generated_Source\PSoC4/cyfitter_cfg.c **** 			{0x1Cu, 0x0Du},
 359:Generated_Source\PSoC4/cyfitter_cfg.c **** 			{0x1Eu, 0x10u},
 360:Generated_Source\PSoC4/cyfitter_cfg.c **** 			{0x30u, 0x03u},
 361:Generated_Source\PSoC4/cyfitter_cfg.c **** 			{0x34u, 0x3Cu},
 362:Generated_Source\PSoC4/cyfitter_cfg.c **** 			{0x38u, 0x20u},
 363:Generated_Source\PSoC4/cyfitter_cfg.c **** 			{0x54u, 0x40u},
 364:Generated_Source\PSoC4/cyfitter_cfg.c **** 			{0x58u, 0x04u},
 365:Generated_Source\PSoC4/cyfitter_cfg.c **** 			{0x5Bu, 0x04u},
 366:Generated_Source\PSoC4/cyfitter_cfg.c **** 			{0x5Fu, 0x01u},
 367:Generated_Source\PSoC4/cyfitter_cfg.c **** 			{0x80u, 0x02u},
 368:Generated_Source\PSoC4/cyfitter_cfg.c **** 			{0x82u, 0x0Du},
 369:Generated_Source\PSoC4/cyfitter_cfg.c **** 			{0x84u, 0x72u},
 370:Generated_Source\PSoC4/cyfitter_cfg.c **** 			{0x85u, 0x15u},
 371:Generated_Source\PSoC4/cyfitter_cfg.c **** 			{0x86u, 0x08u},
 372:Generated_Source\PSoC4/cyfitter_cfg.c **** 			{0x87u, 0x0Au},
 373:Generated_Source\PSoC4/cyfitter_cfg.c **** 			{0x89u, 0x19u},
 374:Generated_Source\PSoC4/cyfitter_cfg.c **** 			{0x8Bu, 0x06u},
 375:Generated_Source\PSoC4/cyfitter_cfg.c **** 			{0x8Cu, 0x4Du},
 376:Generated_Source\PSoC4/cyfitter_cfg.c **** 			{0x8Eu, 0x80u},
 377:Generated_Source\PSoC4/cyfitter_cfg.c **** 			{0x90u, 0x01u},
 378:Generated_Source\PSoC4/cyfitter_cfg.c **** 			{0x91u, 0x02u},
 379:Generated_Source\PSoC4/cyfitter_cfg.c **** 			{0x92u, 0x32u},
 380:Generated_Source\PSoC4/cyfitter_cfg.c **** 			{0x93u, 0x0Du},
 381:Generated_Source\PSoC4/cyfitter_cfg.c **** 			{0x94u, 0x12u},
 382:Generated_Source\PSoC4/cyfitter_cfg.c **** 			{0x96u, 0x64u},
 383:Generated_Source\PSoC4/cyfitter_cfg.c **** 			{0x98u, 0x10u},
 384:Generated_Source\PSoC4/cyfitter_cfg.c **** 			{0x9Au, 0x60u},
 385:Generated_Source\PSoC4/cyfitter_cfg.c **** 			{0x9Cu, 0xCDu},
 386:Generated_Source\PSoC4/cyfitter_cfg.c **** 			{0x9Du, 0x13u},
 387:Generated_Source\PSoC4/cyfitter_cfg.c **** 			{0x9Fu, 0x0Cu},
 388:Generated_Source\PSoC4/cyfitter_cfg.c **** 			{0xA0u, 0xCDu},
 389:Generated_Source\PSoC4/cyfitter_cfg.c **** 			{0xA4u, 0xCDu},
 390:Generated_Source\PSoC4/cyfitter_cfg.c **** 			{0xA8u, 0x8Du},
 391:Generated_Source\PSoC4/cyfitter_cfg.c **** 			{0xAAu, 0x40u},
 392:Generated_Source\PSoC4/cyfitter_cfg.c **** 			{0xAEu, 0x80u},
 393:Generated_Source\PSoC4/cyfitter_cfg.c **** 			{0xB0u, 0x0Fu},
 394:Generated_Source\PSoC4/cyfitter_cfg.c **** 			{0xB1u, 0x0Fu},
 395:Generated_Source\PSoC4/cyfitter_cfg.c **** 			{0xB2u, 0x80u},
 396:Generated_Source\PSoC4/cyfitter_cfg.c **** 			{0xB4u, 0x70u},
 397:Generated_Source\PSoC4/cyfitter_cfg.c **** 			{0xB7u, 0x10u},
 398:Generated_Source\PSoC4/cyfitter_cfg.c **** 			{0xBAu, 0x22u},
 399:Generated_Source\PSoC4/cyfitter_cfg.c **** 			{0xBBu, 0x02u},
 400:Generated_Source\PSoC4/cyfitter_cfg.c **** 			{0xBEu, 0x04u},
 401:Generated_Source\PSoC4/cyfitter_cfg.c **** 			{0xBFu, 0x40u},
 402:Generated_Source\PSoC4/cyfitter_cfg.c **** 			{0xD4u, 0x09u},
 403:Generated_Source\PSoC4/cyfitter_cfg.c **** 			{0xD8u, 0x04u},
 404:Generated_Source\PSoC4/cyfitter_cfg.c **** 			{0xD9u, 0x04u},
 405:Generated_Source\PSoC4/cyfitter_cfg.c **** 			{0xDBu, 0x04u},
ARM GAS  C:\Users\ABAD_S~1\AppData\Local\Temp\ccrOAQLN.s 			page 13


 406:Generated_Source\PSoC4/cyfitter_cfg.c **** 			{0xDFu, 0x01u},
 407:Generated_Source\PSoC4/cyfitter_cfg.c **** 			{0x00u, 0x08u},
 408:Generated_Source\PSoC4/cyfitter_cfg.c **** 			{0x01u, 0x42u},
 409:Generated_Source\PSoC4/cyfitter_cfg.c **** 			{0x04u, 0x44u},
 410:Generated_Source\PSoC4/cyfitter_cfg.c **** 			{0x09u, 0x80u},
 411:Generated_Source\PSoC4/cyfitter_cfg.c **** 			{0x0Au, 0x84u},
 412:Generated_Source\PSoC4/cyfitter_cfg.c **** 			{0x0Bu, 0x10u},
 413:Generated_Source\PSoC4/cyfitter_cfg.c **** 			{0x0Du, 0x14u},
 414:Generated_Source\PSoC4/cyfitter_cfg.c **** 			{0x0Fu, 0x01u},
 415:Generated_Source\PSoC4/cyfitter_cfg.c **** 			{0x10u, 0x2Bu},
 416:Generated_Source\PSoC4/cyfitter_cfg.c **** 			{0x11u, 0x01u},
 417:Generated_Source\PSoC4/cyfitter_cfg.c **** 			{0x19u, 0x1Au},
 418:Generated_Source\PSoC4/cyfitter_cfg.c **** 			{0x1Au, 0x04u},
 419:Generated_Source\PSoC4/cyfitter_cfg.c **** 			{0x1Cu, 0x44u},
 420:Generated_Source\PSoC4/cyfitter_cfg.c **** 			{0x22u, 0x82u},
 421:Generated_Source\PSoC4/cyfitter_cfg.c **** 			{0x32u, 0x42u},
 422:Generated_Source\PSoC4/cyfitter_cfg.c **** 			{0x39u, 0x28u},
 423:Generated_Source\PSoC4/cyfitter_cfg.c **** 			{0x58u, 0x20u},
 424:Generated_Source\PSoC4/cyfitter_cfg.c **** 			{0x59u, 0x85u},
 425:Generated_Source\PSoC4/cyfitter_cfg.c **** 			{0x62u, 0x80u},
 426:Generated_Source\PSoC4/cyfitter_cfg.c **** 			{0x64u, 0x01u},
 427:Generated_Source\PSoC4/cyfitter_cfg.c **** 			{0x65u, 0x08u},
 428:Generated_Source\PSoC4/cyfitter_cfg.c **** 			{0x66u, 0x10u},
 429:Generated_Source\PSoC4/cyfitter_cfg.c **** 			{0x8Cu, 0x44u},
 430:Generated_Source\PSoC4/cyfitter_cfg.c **** 			{0x91u, 0x69u},
 431:Generated_Source\PSoC4/cyfitter_cfg.c **** 			{0x92u, 0x80u},
 432:Generated_Source\PSoC4/cyfitter_cfg.c **** 			{0x93u, 0x11u},
 433:Generated_Source\PSoC4/cyfitter_cfg.c **** 			{0x98u, 0x20u},
 434:Generated_Source\PSoC4/cyfitter_cfg.c **** 			{0x99u, 0x85u},
 435:Generated_Source\PSoC4/cyfitter_cfg.c **** 			{0x9Au, 0x10u},
 436:Generated_Source\PSoC4/cyfitter_cfg.c **** 			{0x9Du, 0x10u},
 437:Generated_Source\PSoC4/cyfitter_cfg.c **** 			{0xA0u, 0x2Eu},
 438:Generated_Source\PSoC4/cyfitter_cfg.c **** 			{0xA1u, 0x80u},
 439:Generated_Source\PSoC4/cyfitter_cfg.c **** 			{0xA6u, 0x02u},
 440:Generated_Source\PSoC4/cyfitter_cfg.c **** 			{0xB4u, 0x04u},
 441:Generated_Source\PSoC4/cyfitter_cfg.c **** 			{0xC0u, 0xADu},
 442:Generated_Source\PSoC4/cyfitter_cfg.c **** 			{0xC2u, 0xEFu},
 443:Generated_Source\PSoC4/cyfitter_cfg.c **** 			{0xC4u, 0x0Fu},
 444:Generated_Source\PSoC4/cyfitter_cfg.c **** 			{0xCCu, 0x09u},
 445:Generated_Source\PSoC4/cyfitter_cfg.c **** 			{0xCEu, 0x06u},
 446:Generated_Source\PSoC4/cyfitter_cfg.c **** 			{0xD6u, 0x0Fu},
 447:Generated_Source\PSoC4/cyfitter_cfg.c **** 			{0xD8u, 0x78u},
 448:Generated_Source\PSoC4/cyfitter_cfg.c **** 			{0xE2u, 0x40u},
 449:Generated_Source\PSoC4/cyfitter_cfg.c **** 			{0xE6u, 0x40u},
 450:Generated_Source\PSoC4/cyfitter_cfg.c **** 			{0x63u, 0x08u},
 451:Generated_Source\PSoC4/cyfitter_cfg.c **** 			{0x66u, 0x20u},
 452:Generated_Source\PSoC4/cyfitter_cfg.c **** 			{0xD8u, 0xC0u},
 453:Generated_Source\PSoC4/cyfitter_cfg.c **** 			{0x8Eu, 0x20u},
 454:Generated_Source\PSoC4/cyfitter_cfg.c **** 			{0x8Fu, 0x04u},
 455:Generated_Source\PSoC4/cyfitter_cfg.c **** 			{0x9Eu, 0x20u},
 456:Generated_Source\PSoC4/cyfitter_cfg.c **** 			{0xA7u, 0x04u},
 457:Generated_Source\PSoC4/cyfitter_cfg.c **** 			{0x8Au, 0x10u},
 458:Generated_Source\PSoC4/cyfitter_cfg.c **** 			{0xE6u, 0x04u},
 459:Generated_Source\PSoC4/cyfitter_cfg.c **** 			{0x06u, 0x10u},
 460:Generated_Source\PSoC4/cyfitter_cfg.c **** 			{0x54u, 0x02u},
 461:Generated_Source\PSoC4/cyfitter_cfg.c **** 			{0x9Eu, 0x10u},
 462:Generated_Source\PSoC4/cyfitter_cfg.c **** 			{0xA0u, 0x02u},
ARM GAS  C:\Users\ABAD_S~1\AppData\Local\Temp\ccrOAQLN.s 			page 14


 463:Generated_Source\PSoC4/cyfitter_cfg.c **** 			{0xB4u, 0x02u},
 464:Generated_Source\PSoC4/cyfitter_cfg.c **** 			{0xC0u, 0x04u},
 465:Generated_Source\PSoC4/cyfitter_cfg.c **** 			{0xD6u, 0x04u},
 466:Generated_Source\PSoC4/cyfitter_cfg.c **** 			{0xECu, 0x02u},
 467:Generated_Source\PSoC4/cyfitter_cfg.c **** 			{0x01u, 0x01u},
 468:Generated_Source\PSoC4/cyfitter_cfg.c **** 			{0x10u, 0x01u},
 469:Generated_Source\PSoC4/cyfitter_cfg.c **** 		};
 470:Generated_Source\PSoC4/cyfitter_cfg.c **** 
 471:Generated_Source\PSoC4/cyfitter_cfg.c **** 
 472:Generated_Source\PSoC4/cyfitter_cfg.c **** 
 473:Generated_Source\PSoC4/cyfitter_cfg.c **** 		CYPACKED typedef struct {
 474:Generated_Source\PSoC4/cyfitter_cfg.c **** 			void CYFAR *address;
 475:Generated_Source\PSoC4/cyfitter_cfg.c **** 			uint16 size;
 476:Generated_Source\PSoC4/cyfitter_cfg.c **** 		} CYPACKED_ATTR cfg_memset_t;
 477:Generated_Source\PSoC4/cyfitter_cfg.c **** 
 478:Generated_Source\PSoC4/cyfitter_cfg.c **** 
 479:Generated_Source\PSoC4/cyfitter_cfg.c **** 		CYPACKED typedef struct {
 480:Generated_Source\PSoC4/cyfitter_cfg.c **** 			void CYFAR *dest;
 481:Generated_Source\PSoC4/cyfitter_cfg.c **** 			const void CYCODE *src;
 482:Generated_Source\PSoC4/cyfitter_cfg.c **** 			uint16 size;
 483:Generated_Source\PSoC4/cyfitter_cfg.c **** 		} CYPACKED_ATTR cfg_memcpy_t;
 484:Generated_Source\PSoC4/cyfitter_cfg.c **** 
 485:Generated_Source\PSoC4/cyfitter_cfg.c **** 		static const cfg_memset_t CYCODE cfg_memset_list[] = {
 486:Generated_Source\PSoC4/cyfitter_cfg.c **** 			/* address, size */
 487:Generated_Source\PSoC4/cyfitter_cfg.c **** 			{(void CYFAR *)(CYDEV_UDB_P0_U1_BASE), 896u},
 488:Generated_Source\PSoC4/cyfitter_cfg.c **** 			{(void CYFAR *)(CYDEV_UDB_DSI0_BASE), 1024u},
 489:Generated_Source\PSoC4/cyfitter_cfg.c **** 		};
 490:Generated_Source\PSoC4/cyfitter_cfg.c **** 
 491:Generated_Source\PSoC4/cyfitter_cfg.c **** 		/* UDB_0_1_0_CONFIG Address: CYDEV_UDB_P0_U0_BASE Size (bytes): 128 */
 492:Generated_Source\PSoC4/cyfitter_cfg.c **** 		static const uint8 CYCODE BS_UDB_0_1_0_CONFIG_VAL[] = {
 493:Generated_Source\PSoC4/cyfitter_cfg.c **** 			0x84u, 0x1Au, 0x00u, 0x00u, 0x56u, 0x18u, 0x09u, 0x02u, 0x01u, 0x02u, 0x00u, 0x18u, 0x60u, 0x33u
 494:Generated_Source\PSoC4/cyfitter_cfg.c **** 			0x07u, 0x18u, 0x38u, 0x02u, 0x04u, 0xC1u, 0x00u, 0x38u, 0x0Au, 0x9Cu, 0x10u, 0x03u, 0x84u, 0x1Au
 495:Generated_Source\PSoC4/cyfitter_cfg.c **** 			0x00u, 0x00u, 0x00u, 0x00u, 0x84u, 0x82u, 0x00u, 0x00u, 0x80u, 0x18u, 0x04u, 0x00u, 0x04u, 0x00u
 496:Generated_Source\PSoC4/cyfitter_cfg.c **** 			0x80u, 0x00u, 0x7Fu, 0x0Fu, 0x7Fu, 0xE0u, 0x08u, 0x13u, 0x28u, 0x00u, 0x00u, 0x28u, 0x00u, 0x00u
 497:Generated_Source\PSoC4/cyfitter_cfg.c **** 			0x36u, 0x05u, 0x40u, 0x00u, 0x02u, 0xBEu, 0xF0u, 0xDCu, 0x3Bu, 0xFFu, 0xFFu, 0xFFu, 0x22u, 0x00u
 498:Generated_Source\PSoC4/cyfitter_cfg.c **** 			0x04u, 0x00u, 0x00u, 0x00u, 0x00u, 0x00u, 0x02u, 0x2Cu, 0x04u, 0x04u, 0x04u, 0x04u, 0x00u, 0x00u
 499:Generated_Source\PSoC4/cyfitter_cfg.c **** 			0x00u, 0x00u, 0xC0u, 0x00u, 0x40u, 0x01u, 0x10u, 0x11u, 0xC0u, 0x01u, 0x00u, 0x11u, 0x40u, 0x01u
 500:Generated_Source\PSoC4/cyfitter_cfg.c **** 			0x00u, 0x00u, 0x00u, 0x00u, 0x00u, 0x00u, 0x00u, 0x00u, 0x00u, 0x00u, 0x00u, 0x00u, 0x00u, 0x00u
 501:Generated_Source\PSoC4/cyfitter_cfg.c **** 
 502:Generated_Source\PSoC4/cyfitter_cfg.c **** 		static const cfg_memcpy_t CYCODE cfg_memcpy_list [] = {
 503:Generated_Source\PSoC4/cyfitter_cfg.c **** 			/* dest, src, size */
 504:Generated_Source\PSoC4/cyfitter_cfg.c **** 			{(void CYFAR *)(CYDEV_UDB_P0_U0_BASE), BS_UDB_0_1_0_CONFIG_VAL, 128u},
 505:Generated_Source\PSoC4/cyfitter_cfg.c **** 		};
 506:Generated_Source\PSoC4/cyfitter_cfg.c **** 
 507:Generated_Source\PSoC4/cyfitter_cfg.c **** 		uint8 CYDATA i;
 508:Generated_Source\PSoC4/cyfitter_cfg.c **** 
 509:Generated_Source\PSoC4/cyfitter_cfg.c **** 		/* Zero out critical memory blocks before beginning configuration */
 510:Generated_Source\PSoC4/cyfitter_cfg.c **** 		for (i = 0u; i < (sizeof(cfg_memset_list)/sizeof(cfg_memset_list[0])); i++)
 271              		.loc 1 510 0
 272 0094 0024     		movs	r4, #0
 273 0096 0FE0     		b	.L12
 274              	.LVL21:
 275              	.L13:
 276              	.LBB4:
 511:Generated_Source\PSoC4/cyfitter_cfg.c **** 		{
 512:Generated_Source\PSoC4/cyfitter_cfg.c **** 			const cfg_memset_t CYCODE * CYDATA ms = &cfg_memset_list[i];
 513:Generated_Source\PSoC4/cyfitter_cfg.c **** 			CYMEMZERO(ms->address, (size_t)(uint32)(ms->size));
ARM GAS  C:\Users\ABAD_S~1\AppData\Local\Temp\ccrOAQLN.s 			page 15


 277              		.loc 1 513 0 discriminator 3
 278 0098 3748     		ldr	r0, .L16
 279 009a 6200     		lsls	r2, r4, #1
 280 009c 1319     		adds	r3, r2, r4
 281 009e 5900     		lsls	r1, r3, #1
 282 00a0 0B00     		movs	r3, r1
 283 00a2 4118     		adds	r1, r0, r1
 284 00a4 8988     		ldrh	r1, [r1, #4]
 285 00a6 1A5A     		ldrh	r2, [r3, r0]
 286 00a8 C318     		adds	r3, r0, r3
 287 00aa 5888     		ldrh	r0, [r3, #2]
 288 00ac 0004     		lsls	r0, r0, #16
 289 00ae 1043     		orrs	r0, r2
 290 00b0 FFF7FEFF 		bl	CYMEMZERO
 291              	.LVL22:
 292              	.LBE4:
 510:Generated_Source\PSoC4/cyfitter_cfg.c **** 		{
 293              		.loc 1 510 0 discriminator 3
 294 00b4 0134     		adds	r4, r4, #1
 295              	.LVL23:
 296 00b6 E4B2     		uxtb	r4, r4
 297              	.LVL24:
 298              	.L12:
 510:Generated_Source\PSoC4/cyfitter_cfg.c **** 		{
 299              		.loc 1 510 0 is_stmt 0 discriminator 1
 300 00b8 012C     		cmp	r4, #1
 301 00ba EDD9     		bls	.L13
 302 00bc 0024     		movs	r4, #0
 303              	.LVL25:
 304 00be 11E0     		b	.L14
 305              	.LVL26:
 306              	.L15:
 307              	.LBB5:
 514:Generated_Source\PSoC4/cyfitter_cfg.c **** 		}
 515:Generated_Source\PSoC4/cyfitter_cfg.c **** 
 516:Generated_Source\PSoC4/cyfitter_cfg.c **** 		/* Copy device configuration data into registers */
 517:Generated_Source\PSoC4/cyfitter_cfg.c **** 		for (i = 0u; i < (sizeof(cfg_memcpy_list)/sizeof(cfg_memcpy_list[0])); i++)
 518:Generated_Source\PSoC4/cyfitter_cfg.c **** 		{
 519:Generated_Source\PSoC4/cyfitter_cfg.c **** 			const cfg_memcpy_t CYCODE * CYDATA mc = &cfg_memcpy_list[i];
 520:Generated_Source\PSoC4/cyfitter_cfg.c **** 			void * CYDATA destPtr = mc->dest;
 308              		.loc 1 520 0 is_stmt 1 discriminator 3
 309 00c0 2D4E     		ldr	r6, .L16
 310 00c2 A200     		lsls	r2, r4, #2
 311 00c4 1319     		adds	r3, r2, r4
 312 00c6 5900     		lsls	r1, r3, #1
 313 00c8 7118     		adds	r1, r6, r1
 314 00ca 8D89     		ldrh	r5, [r1, #12]
 315 00cc C889     		ldrh	r0, [r1, #14]
 316 00ce 0004     		lsls	r0, r0, #16
 317 00d0 2843     		orrs	r0, r5
 318              	.LVL27:
 521:Generated_Source\PSoC4/cyfitter_cfg.c **** 			const void CYCODE * CYDATA srcPtr = mc->src;
 319              		.loc 1 521 0 discriminator 3
 320 00d2 0A8A     		ldrh	r2, [r1, #16]
 321 00d4 498A     		ldrh	r1, [r1, #18]
 322 00d6 0904     		lsls	r1, r1, #16
 323 00d8 1143     		orrs	r1, r2
ARM GAS  C:\Users\ABAD_S~1\AppData\Local\Temp\ccrOAQLN.s 			page 16


 324              	.LVL28:
 522:Generated_Source\PSoC4/cyfitter_cfg.c **** 			uint16 CYDATA numBytes = mc->size;
 523:Generated_Source\PSoC4/cyfitter_cfg.c **** 			CYCONFIGCPYCODE(destPtr, srcPtr, numBytes);
 325              		.loc 1 523 0 discriminator 3
 326 00da 8022     		movs	r2, #128
 327 00dc FFF7FEFF 		bl	CYCONFIGCPYCODE
 328              	.LVL29:
 329              	.LBE5:
 517:Generated_Source\PSoC4/cyfitter_cfg.c **** 		{
 330              		.loc 1 517 0 discriminator 3
 331 00e0 0134     		adds	r4, r4, #1
 332              	.LVL30:
 333 00e2 E4B2     		uxtb	r4, r4
 334              	.LVL31:
 335              	.L14:
 517:Generated_Source\PSoC4/cyfitter_cfg.c **** 		{
 336              		.loc 1 517 0 is_stmt 0 discriminator 1
 337 00e4 002C     		cmp	r4, #0
 338 00e6 EBD0     		beq	.L15
 524:Generated_Source\PSoC4/cyfitter_cfg.c **** 		}
 525:Generated_Source\PSoC4/cyfitter_cfg.c **** 
 526:Generated_Source\PSoC4/cyfitter_cfg.c **** 		cfg_write_bytes32(cy_cfg_addr_table, cy_cfg_data_table);
 339              		.loc 1 526 0 is_stmt 1
 340 00e8 2349     		ldr	r1, .L16
 341 00ea 1831     		adds	r1, r1, #24
 342 00ec 2348     		ldr	r0, .L16+4
 343 00ee 5830     		adds	r0, r0, #88
 344 00f0 FFF7FEFF 		bl	cfg_write_bytes32
 345              	.LVL32:
 527:Generated_Source\PSoC4/cyfitter_cfg.c **** 
 528:Generated_Source\PSoC4/cyfitter_cfg.c **** 		/* HSIOM Starting address: CYDEV_HSIOM_BASE */
 529:Generated_Source\PSoC4/cyfitter_cfg.c **** 		CY_SET_REG32((void *)(CYDEV_HSIOM_BASE), 0x00330000u);
 346              		.loc 1 529 0
 347 00f4 CC22     		movs	r2, #204
 348 00f6 9203     		lsls	r2, r2, #14
 349 00f8 214B     		ldr	r3, .L16+8
 350 00fa 1A60     		str	r2, [r3]
 530:Generated_Source\PSoC4/cyfitter_cfg.c **** 		CY_SET_REG32((void *)(CYREG_HSIOM_PORT_SEL3), 0x0000EE03u);
 351              		.loc 1 530 0
 352 00fc 214A     		ldr	r2, .L16+12
 353 00fe 224B     		ldr	r3, .L16+16
 354 0100 1A60     		str	r2, [r3]
 531:Generated_Source\PSoC4/cyfitter_cfg.c **** 		CY_SET_REG32((void *)(CYREG_HSIOM_PORT_SEL4), 0x000000EEu);
 355              		.loc 1 531 0
 356 0102 EE22     		movs	r2, #238
 357 0104 214B     		ldr	r3, .L16+20
 358 0106 1A60     		str	r2, [r3]
 532:Generated_Source\PSoC4/cyfitter_cfg.c **** 
 533:Generated_Source\PSoC4/cyfitter_cfg.c **** 		/* UDB_PA_0 Starting address: CYDEV_UDB_PA0_BASE */
 534:Generated_Source\PSoC4/cyfitter_cfg.c **** 		CY_SET_REG32((void *)(CYDEV_UDB_PA0_BASE), 0x00990000u);
 359              		.loc 1 534 0
 360 0108 9923     		movs	r3, #153
 361 010a 1B04     		lsls	r3, r3, #16
 362 010c 204A     		ldr	r2, .L16+24
 363 010e 1360     		str	r3, [r2]
 535:Generated_Source\PSoC4/cyfitter_cfg.c **** 		CY_SET_REG32((void *)(CYREG_UDB_PA0_CFG8), 0x0E000000u);
 364              		.loc 1 535 0
ARM GAS  C:\Users\ABAD_S~1\AppData\Local\Temp\ccrOAQLN.s 			page 17


 365 0110 E021     		movs	r1, #224
 366 0112 0905     		lsls	r1, r1, #20
 367 0114 1F4A     		ldr	r2, .L16+28
 368 0116 1160     		str	r1, [r2]
 536:Generated_Source\PSoC4/cyfitter_cfg.c **** 
 537:Generated_Source\PSoC4/cyfitter_cfg.c **** 		/* UDB_PA_1 Starting address: CYDEV_UDB_PA1_BASE */
 538:Generated_Source\PSoC4/cyfitter_cfg.c **** 		CY_SET_REG32((void *)(CYDEV_UDB_PA1_BASE), 0x00990000u);
 369              		.loc 1 538 0
 370 0118 1F4A     		ldr	r2, .L16+32
 371 011a 1360     		str	r3, [r2]
 539:Generated_Source\PSoC4/cyfitter_cfg.c **** 
 540:Generated_Source\PSoC4/cyfitter_cfg.c **** 		/* UDB_PA_3 Starting address: CYDEV_UDB_PA3_BASE */
 541:Generated_Source\PSoC4/cyfitter_cfg.c **** 		CY_SET_REG32((void *)(CYDEV_UDB_PA3_BASE), 0x00990000u);
 372              		.loc 1 541 0
 373 011c 1F4A     		ldr	r2, .L16+36
 374 011e 1360     		str	r3, [r2]
 542:Generated_Source\PSoC4/cyfitter_cfg.c **** 		CY_SET_REG32((void *)(CYREG_UDB_PA3_CFG8), 0x00030000u);
 375              		.loc 1 542 0
 376 0120 C022     		movs	r2, #192
 377 0122 9202     		lsls	r2, r2, #10
 378 0124 1E4B     		ldr	r3, .L16+40
 379 0126 1A60     		str	r2, [r3]
 543:Generated_Source\PSoC4/cyfitter_cfg.c **** 
 544:Generated_Source\PSoC4/cyfitter_cfg.c **** 		/* Enable UDB array and digital routing */
 545:Generated_Source\PSoC4/cyfitter_cfg.c **** 		CY_SET_XTND_REG8((void *)CYREG_UDB_UDBIF_WAIT_CFG, (uint8)((CY_GET_XTND_REG8((void *)CYREG_UDB_UD
 380              		.loc 1 545 0
 381 0128 1E49     		ldr	r1, .L16+44
 382 012a 0B78     		ldrb	r3, [r1]
 383 012c 3C22     		movs	r2, #60
 384 012e 9343     		bics	r3, r2
 385 0130 1422     		movs	r2, #20
 386 0132 1343     		orrs	r3, r2
 387 0134 DBB2     		uxtb	r3, r3
 388 0136 0B70     		strb	r3, [r1]
 546:Generated_Source\PSoC4/cyfitter_cfg.c **** 		CY_SET_XTND_REG8((void *)CYREG_UDB_UDBIF_BANK_CTL, (uint8)(CY_GET_XTND_REG8((void *)CYREG_UDB_UDB
 389              		.loc 1 546 0
 390 0138 1B4A     		ldr	r2, .L16+48
 391 013a 1178     		ldrb	r1, [r2]
 392 013c 1623     		movs	r3, #22
 393 013e 0B43     		orrs	r3, r1
 394 0140 DBB2     		uxtb	r3, r3
 395 0142 1370     		strb	r3, [r2]
 396              	.LBE3:
 547:Generated_Source\PSoC4/cyfitter_cfg.c **** 	}
 548:Generated_Source\PSoC4/cyfitter_cfg.c **** 
 549:Generated_Source\PSoC4/cyfitter_cfg.c **** 	/* Perform second pass device configuration. These items must be configured in specific order afte
 550:Generated_Source\PSoC4/cyfitter_cfg.c **** 	/* IOPINS0_0 Starting address: CYDEV_PRT0_BASE */
 551:Generated_Source\PSoC4/cyfitter_cfg.c **** 	CY_SET_REG32((void *)(CYDEV_PRT0_BASE), 0x00000031u);
 397              		.loc 1 551 0
 398 0144 3122     		movs	r2, #49
 399 0146 194B     		ldr	r3, .L16+52
 400 0148 1A60     		str	r2, [r3]
 552:Generated_Source\PSoC4/cyfitter_cfg.c **** 	CY_SET_REG32((void *)(CYREG_PRT0_PC), 0x00036004u);
 401              		.loc 1 552 0
 402 014a 194A     		ldr	r2, .L16+56
 403 014c 194B     		ldr	r3, .L16+60
 404 014e 1A60     		str	r2, [r3]
ARM GAS  C:\Users\ABAD_S~1\AppData\Local\Temp\ccrOAQLN.s 			page 18


 553:Generated_Source\PSoC4/cyfitter_cfg.c **** 
 554:Generated_Source\PSoC4/cyfitter_cfg.c **** 	/* IOPINS0_1 Starting address: CYDEV_PRT1_BASE */
 555:Generated_Source\PSoC4/cyfitter_cfg.c **** 	CY_SET_REG32((void *)(CYREG_PRT1_PC), 0x00180000u);
 405              		.loc 1 555 0
 406 0150 C022     		movs	r2, #192
 407 0152 5203     		lsls	r2, r2, #13
 408 0154 184B     		ldr	r3, .L16+64
 409 0156 1A60     		str	r2, [r3]
 556:Generated_Source\PSoC4/cyfitter_cfg.c **** 
 557:Generated_Source\PSoC4/cyfitter_cfg.c **** 	/* IOPINS0_3 Starting address: CYDEV_PRT3_BASE */
 558:Generated_Source\PSoC4/cyfitter_cfg.c **** 	CY_SET_REG32((void *)(CYDEV_PRT3_BASE), 0x00000001u);
 410              		.loc 1 558 0
 411 0158 0122     		movs	r2, #1
 412 015a 184B     		ldr	r3, .L16+68
 413 015c 1A60     		str	r2, [r3]
 559:Generated_Source\PSoC4/cyfitter_cfg.c **** 	CY_SET_REG32((void *)(CYREG_PRT3_PC), 0x00000D8Eu);
 414              		.loc 1 559 0
 415 015e 184A     		ldr	r2, .L16+72
 416 0160 184B     		ldr	r3, .L16+76
 417 0162 1A60     		str	r2, [r3]
 560:Generated_Source\PSoC4/cyfitter_cfg.c **** 
 561:Generated_Source\PSoC4/cyfitter_cfg.c **** 	/* IOPINS0_4 Starting address: CYDEV_PRT4_BASE */
 562:Generated_Source\PSoC4/cyfitter_cfg.c **** 	CY_SET_REG32((void *)(CYDEV_PRT4_BASE), 0x00000003u);
 418              		.loc 1 562 0
 419 0164 0322     		movs	r2, #3
 420 0166 184B     		ldr	r3, .L16+80
 421 0168 1A60     		str	r2, [r3]
 563:Generated_Source\PSoC4/cyfitter_cfg.c **** 	CY_SET_REG32((void *)(CYREG_PRT4_PC), 0x00000024u);
 422              		.loc 1 563 0
 423 016a 2132     		adds	r2, r2, #33
 424 016c 174B     		ldr	r3, .L16+84
 425 016e 1A60     		str	r2, [r3]
 564:Generated_Source\PSoC4/cyfitter_cfg.c **** 
 565:Generated_Source\PSoC4/cyfitter_cfg.c **** 
 566:Generated_Source\PSoC4/cyfitter_cfg.c **** 	/* Setup clocks based on selections from Clock DWR */
 567:Generated_Source\PSoC4/cyfitter_cfg.c **** 	ClockSetup();
 426              		.loc 1 567 0
 427 0170 FFF746FF 		bl	ClockSetup
 428              	.LVL33:
 568:Generated_Source\PSoC4/cyfitter_cfg.c **** 
 569:Generated_Source\PSoC4/cyfitter_cfg.c **** 	/* Perform basic analog initialization to defaults */
 570:Generated_Source\PSoC4/cyfitter_cfg.c **** 	AnalogSetDefault();
 571:Generated_Source\PSoC4/cyfitter_cfg.c **** 
 572:Generated_Source\PSoC4/cyfitter_cfg.c **** }
 429              		.loc 1 572 0
 430              		@ sp needed
 431              	.LVL34:
 432 0174 70BD     		pop	{r4, r5, r6, pc}
 433              	.L17:
 434 0176 C046     		.align	2
 435              	.L16:
 436 0178 00000000 		.word	.LANCHOR0
 437 017c 00010000 		.word	.LANCHOR1
 438 0180 00000140 		.word	1073807360
 439 0184 03EE0000 		.word	60931
 440 0188 0C000140 		.word	1073807372
 441 018c 10000140 		.word	1073807376
ARM GAS  C:\Users\ABAD_S~1\AppData\Local\Temp\ccrOAQLN.s 			page 19


 442 0190 00500F40 		.word	1074745344
 443 0194 08500F40 		.word	1074745352
 444 0198 10500F40 		.word	1074745360
 445 019c 30500F40 		.word	1074745392
 446 01a0 38500F40 		.word	1074745400
 447 01a4 01700F40 		.word	1074753537
 448 01a8 00700F40 		.word	1074753536
 449 01ac 00000440 		.word	1074003968
 450 01b0 04600300 		.word	221188
 451 01b4 08000440 		.word	1074003976
 452 01b8 08010440 		.word	1074004232
 453 01bc 00030440 		.word	1074004736
 454 01c0 8E0D0000 		.word	3470
 455 01c4 08030440 		.word	1074004744
 456 01c8 00040440 		.word	1074004992
 457 01cc 08040440 		.word	1074005000
 458              		.cfi_endproc
 459              	.LFE6:
 460              		.size	cyfitter_cfg, .-cyfitter_cfg
 461              		.section	.rodata
 462              		.align	2
 463              		.set	.LANCHOR0,. + 0
 464              		.set	.LANCHOR1,. + 256
 465              		.type	cfg_memset_list.4875, %object
 466              		.size	cfg_memset_list.4875, 12
 467              	cfg_memset_list.4875:
 468 0000 80300F40 		.word	1074737280
 469 0004 8003     		.short	896
 470 0006 00400F40 		.4byte	1074741248
 471 000a 0004     		.short	1024
 472              		.type	cfg_memcpy_list.4877, %object
 473              		.size	cfg_memcpy_list.4877, 10
 474              	cfg_memcpy_list.4877:
 475 000c 00300F40 		.word	1074737152
 476 0010 7C010000 		.word	BS_UDB_0_1_0_CONFIG_VAL.4876
 477 0014 8000     		.short	128
 478 0016 0000     		.space	2
 479              		.type	cy_cfg_data_table.4865, %object
 480              		.size	cy_cfg_data_table.4865, 320
 481              	cy_cfg_data_table.4865:
 482 0018 80       		.byte	-128
 483 0019 0F       		.byte	15
 484 001a 00       		.byte	0
 485 001b 98       		.byte	-104
 486 001c 01       		.byte	1
 487 001d 01       		.byte	1
 488 001e 08       		.byte	8
 489 001f 04       		.byte	4
 490 0020 09       		.byte	9
 491 0021 80       		.byte	-128
 492 0022 0A       		.byte	10
 493 0023 88       		.byte	-120
 494 0024 10       		.byte	16
 495 0025 28       		.byte	40
 496 0026 11       		.byte	17
 497 0027 40       		.byte	64
 498 0028 18       		.byte	24
ARM GAS  C:\Users\ABAD_S~1\AppData\Local\Temp\ccrOAQLN.s 			page 20


 499 0029 54       		.byte	84
 500 002a 19       		.byte	25
 501 002b 81       		.byte	-127
 502 002c 20       		.byte	32
 503 002d 0A       		.byte	10
 504 002e 21       		.byte	33
 505 002f 54       		.byte	84
 506 0030 22       		.byte	34
 507 0031 54       		.byte	84
 508 0032 23       		.byte	35
 509 0033 11       		.byte	17
 510 0034 28       		.byte	40
 511 0035 24       		.byte	36
 512 0036 29       		.byte	41
 513 0037 10       		.byte	16
 514 0038 2A       		.byte	42
 515 0039 04       		.byte	4
 516 003a 31       		.byte	49
 517 003b 80       		.byte	-128
 518 003c 32       		.byte	50
 519 003d 14       		.byte	20
 520 003e 33       		.byte	51
 521 003f 01       		.byte	1
 522 0040 39       		.byte	57
 523 0041 95       		.byte	-107
 524 0042 40       		.byte	64
 525 0043 40       		.byte	64
 526 0044 41       		.byte	65
 527 0045 04       		.byte	4
 528 0046 42       		.byte	66
 529 0047 04       		.byte	4
 530 0048 48       		.byte	72
 531 0049 45       		.byte	69
 532 004a 49       		.byte	73
 533 004b 04       		.byte	4
 534 004c 50       		.byte	80
 535 004d 02       		.byte	2
 536 004e 52       		.byte	82
 537 004f 14       		.byte	20
 538 0050 62       		.byte	98
 539 0051 02       		.byte	2
 540 0052 68       		.byte	104
 541 0053 28       		.byte	40
 542 0054 69       		.byte	105
 543 0055 55       		.byte	85
 544 0056 6B       		.byte	107
 545 0057 01       		.byte	1
 546 0058 71       		.byte	113
 547 0059 80       		.byte	-128
 548 005a 8A       		.byte	-118
 549 005b 04       		.byte	4
 550 005c C0       		.byte	-64
 551 005d 0F       		.byte	15
 552 005e C2       		.byte	-62
 553 005f 0F       		.byte	15
 554 0060 C4       		.byte	-60
 555 0061 07       		.byte	7
ARM GAS  C:\Users\ABAD_S~1\AppData\Local\Temp\ccrOAQLN.s 			page 21


 556 0062 CA       		.byte	-54
 557 0063 06       		.byte	6
 558 0064 CC       		.byte	-52
 559 0065 0F       		.byte	15
 560 0066 CE       		.byte	-50
 561 0067 0F       		.byte	15
 562 0068 D0       		.byte	-48
 563 0069 07       		.byte	7
 564 006a D2       		.byte	-46
 565 006b 0C       		.byte	12
 566 006c D8       		.byte	-40
 567 006d 01       		.byte	1
 568 006e 04       		.byte	4
 569 006f 38       		.byte	56
 570 0070 0E       		.byte	14
 571 0071 02       		.byte	2
 572 0072 14       		.byte	20
 573 0073 14       		.byte	20
 574 0074 16       		.byte	22
 575 0075 2B       		.byte	43
 576 0076 18       		.byte	24
 577 0077 10       		.byte	16
 578 0078 1A       		.byte	26
 579 0079 27       		.byte	39
 580 007a 1C       		.byte	28
 581 007b 0D       		.byte	13
 582 007c 1E       		.byte	30
 583 007d 10       		.byte	16
 584 007e 30       		.byte	48
 585 007f 03       		.byte	3
 586 0080 34       		.byte	52
 587 0081 3C       		.byte	60
 588 0082 38       		.byte	56
 589 0083 20       		.byte	32
 590 0084 54       		.byte	84
 591 0085 40       		.byte	64
 592 0086 58       		.byte	88
 593 0087 04       		.byte	4
 594 0088 5B       		.byte	91
 595 0089 04       		.byte	4
 596 008a 5F       		.byte	95
 597 008b 01       		.byte	1
 598 008c 80       		.byte	-128
 599 008d 02       		.byte	2
 600 008e 82       		.byte	-126
 601 008f 0D       		.byte	13
 602 0090 84       		.byte	-124
 603 0091 72       		.byte	114
 604 0092 85       		.byte	-123
 605 0093 15       		.byte	21
 606 0094 86       		.byte	-122
 607 0095 08       		.byte	8
 608 0096 87       		.byte	-121
 609 0097 0A       		.byte	10
 610 0098 89       		.byte	-119
 611 0099 19       		.byte	25
 612 009a 8B       		.byte	-117
ARM GAS  C:\Users\ABAD_S~1\AppData\Local\Temp\ccrOAQLN.s 			page 22


 613 009b 06       		.byte	6
 614 009c 8C       		.byte	-116
 615 009d 4D       		.byte	77
 616 009e 8E       		.byte	-114
 617 009f 80       		.byte	-128
 618 00a0 90       		.byte	-112
 619 00a1 01       		.byte	1
 620 00a2 91       		.byte	-111
 621 00a3 02       		.byte	2
 622 00a4 92       		.byte	-110
 623 00a5 32       		.byte	50
 624 00a6 93       		.byte	-109
 625 00a7 0D       		.byte	13
 626 00a8 94       		.byte	-108
 627 00a9 12       		.byte	18
 628 00aa 96       		.byte	-106
 629 00ab 64       		.byte	100
 630 00ac 98       		.byte	-104
 631 00ad 10       		.byte	16
 632 00ae 9A       		.byte	-102
 633 00af 60       		.byte	96
 634 00b0 9C       		.byte	-100
 635 00b1 CD       		.byte	-51
 636 00b2 9D       		.byte	-99
 637 00b3 13       		.byte	19
 638 00b4 9F       		.byte	-97
 639 00b5 0C       		.byte	12
 640 00b6 A0       		.byte	-96
 641 00b7 CD       		.byte	-51
 642 00b8 A4       		.byte	-92
 643 00b9 CD       		.byte	-51
 644 00ba A8       		.byte	-88
 645 00bb 8D       		.byte	-115
 646 00bc AA       		.byte	-86
 647 00bd 40       		.byte	64
 648 00be AE       		.byte	-82
 649 00bf 80       		.byte	-128
 650 00c0 B0       		.byte	-80
 651 00c1 0F       		.byte	15
 652 00c2 B1       		.byte	-79
 653 00c3 0F       		.byte	15
 654 00c4 B2       		.byte	-78
 655 00c5 80       		.byte	-128
 656 00c6 B4       		.byte	-76
 657 00c7 70       		.byte	112
 658 00c8 B7       		.byte	-73
 659 00c9 10       		.byte	16
 660 00ca BA       		.byte	-70
 661 00cb 22       		.byte	34
 662 00cc BB       		.byte	-69
 663 00cd 02       		.byte	2
 664 00ce BE       		.byte	-66
 665 00cf 04       		.byte	4
 666 00d0 BF       		.byte	-65
 667 00d1 40       		.byte	64
 668 00d2 D4       		.byte	-44
 669 00d3 09       		.byte	9
ARM GAS  C:\Users\ABAD_S~1\AppData\Local\Temp\ccrOAQLN.s 			page 23


 670 00d4 D8       		.byte	-40
 671 00d5 04       		.byte	4
 672 00d6 D9       		.byte	-39
 673 00d7 04       		.byte	4
 674 00d8 DB       		.byte	-37
 675 00d9 04       		.byte	4
 676 00da DF       		.byte	-33
 677 00db 01       		.byte	1
 678 00dc 00       		.byte	0
 679 00dd 08       		.byte	8
 680 00de 01       		.byte	1
 681 00df 42       		.byte	66
 682 00e0 04       		.byte	4
 683 00e1 44       		.byte	68
 684 00e2 09       		.byte	9
 685 00e3 80       		.byte	-128
 686 00e4 0A       		.byte	10
 687 00e5 84       		.byte	-124
 688 00e6 0B       		.byte	11
 689 00e7 10       		.byte	16
 690 00e8 0D       		.byte	13
 691 00e9 14       		.byte	20
 692 00ea 0F       		.byte	15
 693 00eb 01       		.byte	1
 694 00ec 10       		.byte	16
 695 00ed 2B       		.byte	43
 696 00ee 11       		.byte	17
 697 00ef 01       		.byte	1
 698 00f0 19       		.byte	25
 699 00f1 1A       		.byte	26
 700 00f2 1A       		.byte	26
 701 00f3 04       		.byte	4
 702 00f4 1C       		.byte	28
 703 00f5 44       		.byte	68
 704 00f6 22       		.byte	34
 705 00f7 82       		.byte	-126
 706 00f8 32       		.byte	50
 707 00f9 42       		.byte	66
 708 00fa 39       		.byte	57
 709 00fb 28       		.byte	40
 710 00fc 58       		.byte	88
 711 00fd 20       		.byte	32
 712 00fe 59       		.byte	89
 713 00ff 85       		.byte	-123
 714 0100 62       		.byte	98
 715 0101 80       		.byte	-128
 716 0102 64       		.byte	100
 717 0103 01       		.byte	1
 718 0104 65       		.byte	101
 719 0105 08       		.byte	8
 720 0106 66       		.byte	102
 721 0107 10       		.byte	16
 722 0108 8C       		.byte	-116
 723 0109 44       		.byte	68
 724 010a 91       		.byte	-111
 725 010b 69       		.byte	105
 726 010c 92       		.byte	-110
ARM GAS  C:\Users\ABAD_S~1\AppData\Local\Temp\ccrOAQLN.s 			page 24


 727 010d 80       		.byte	-128
 728 010e 93       		.byte	-109
 729 010f 11       		.byte	17
 730 0110 98       		.byte	-104
 731 0111 20       		.byte	32
 732 0112 99       		.byte	-103
 733 0113 85       		.byte	-123
 734 0114 9A       		.byte	-102
 735 0115 10       		.byte	16
 736 0116 9D       		.byte	-99
 737 0117 10       		.byte	16
 738 0118 A0       		.byte	-96
 739 0119 2E       		.byte	46
 740 011a A1       		.byte	-95
 741 011b 80       		.byte	-128
 742 011c A6       		.byte	-90
 743 011d 02       		.byte	2
 744 011e B4       		.byte	-76
 745 011f 04       		.byte	4
 746 0120 C0       		.byte	-64
 747 0121 AD       		.byte	-83
 748 0122 C2       		.byte	-62
 749 0123 EF       		.byte	-17
 750 0124 C4       		.byte	-60
 751 0125 0F       		.byte	15
 752 0126 CC       		.byte	-52
 753 0127 09       		.byte	9
 754 0128 CE       		.byte	-50
 755 0129 06       		.byte	6
 756 012a D6       		.byte	-42
 757 012b 0F       		.byte	15
 758 012c D8       		.byte	-40
 759 012d 78       		.byte	120
 760 012e E2       		.byte	-30
 761 012f 40       		.byte	64
 762 0130 E6       		.byte	-26
 763 0131 40       		.byte	64
 764 0132 63       		.byte	99
 765 0133 08       		.byte	8
 766 0134 66       		.byte	102
 767 0135 20       		.byte	32
 768 0136 D8       		.byte	-40
 769 0137 C0       		.byte	-64
 770 0138 8E       		.byte	-114
 771 0139 20       		.byte	32
 772 013a 8F       		.byte	-113
 773 013b 04       		.byte	4
 774 013c 9E       		.byte	-98
 775 013d 20       		.byte	32
 776 013e A7       		.byte	-89
 777 013f 04       		.byte	4
 778 0140 8A       		.byte	-118
 779 0141 10       		.byte	16
 780 0142 E6       		.byte	-26
 781 0143 04       		.byte	4
 782 0144 06       		.byte	6
 783 0145 10       		.byte	16
ARM GAS  C:\Users\ABAD_S~1\AppData\Local\Temp\ccrOAQLN.s 			page 25


 784 0146 54       		.byte	84
 785 0147 02       		.byte	2
 786 0148 9E       		.byte	-98
 787 0149 10       		.byte	16
 788 014a A0       		.byte	-96
 789 014b 02       		.byte	2
 790 014c B4       		.byte	-76
 791 014d 02       		.byte	2
 792 014e C0       		.byte	-64
 793 014f 04       		.byte	4
 794 0150 D6       		.byte	-42
 795 0151 04       		.byte	4
 796 0152 EC       		.byte	-20
 797 0153 02       		.byte	2
 798 0154 01       		.byte	1
 799 0155 01       		.byte	1
 800 0156 10       		.byte	16
 801 0157 01       		.byte	1
 802              		.type	cy_cfg_addr_table.4864, %object
 803              		.size	cy_cfg_addr_table.4864, 36
 804              	cy_cfg_addr_table.4864:
 805 0158 01000F40 		.word	1074724865
 806 015c 2A310F40 		.word	1074737450
 807 0160 37320F40 		.word	1074737719
 808 0164 2B330F40 		.word	1074737963
 809 0168 03400F40 		.word	1074741251
 810 016c 04410F40 		.word	1074741508
 811 0170 02420F40 		.word	1074741762
 812 0174 08430F40 		.word	1074742024
 813 0178 02600F40 		.word	1074749442
 814              		.type	BS_UDB_0_1_0_CONFIG_VAL.4876, %object
 815              		.size	BS_UDB_0_1_0_CONFIG_VAL.4876, 128
 816              	BS_UDB_0_1_0_CONFIG_VAL.4876:
 817 017c 84       		.byte	-124
 818 017d 1A       		.byte	26
 819 017e 00       		.byte	0
 820 017f 00       		.byte	0
 821 0180 56       		.byte	86
 822 0181 18       		.byte	24
 823 0182 09       		.byte	9
 824 0183 02       		.byte	2
 825 0184 01       		.byte	1
 826 0185 02       		.byte	2
 827 0186 00       		.byte	0
 828 0187 18       		.byte	24
 829 0188 60       		.byte	96
 830 0189 33       		.byte	51
 831 018a 00       		.byte	0
 832 018b 44       		.byte	68
 833 018c 07       		.byte	7
 834 018d 18       		.byte	24
 835 018e 38       		.byte	56
 836 018f 02       		.byte	2
 837 0190 04       		.byte	4
 838 0191 C1       		.byte	-63
 839 0192 00       		.byte	0
 840 0193 38       		.byte	56
ARM GAS  C:\Users\ABAD_S~1\AppData\Local\Temp\ccrOAQLN.s 			page 26


 841 0194 0A       		.byte	10
 842 0195 9C       		.byte	-100
 843 0196 10       		.byte	16
 844 0197 03       		.byte	3
 845 0198 84       		.byte	-124
 846 0199 1A       		.byte	26
 847 019a 00       		.byte	0
 848 019b 00       		.byte	0
 849 019c 00       		.byte	0
 850 019d 00       		.byte	0
 851 019e 00       		.byte	0
 852 019f 00       		.byte	0
 853 01a0 84       		.byte	-124
 854 01a1 82       		.byte	-126
 855 01a2 00       		.byte	0
 856 01a3 00       		.byte	0
 857 01a4 80       		.byte	-128
 858 01a5 18       		.byte	24
 859 01a6 04       		.byte	4
 860 01a7 00       		.byte	0
 861 01a8 04       		.byte	4
 862 01a9 00       		.byte	0
 863 01aa 80       		.byte	-128
 864 01ab 00       		.byte	0
 865 01ac 80       		.byte	-128
 866 01ad 00       		.byte	0
 867 01ae 7F       		.byte	127
 868 01af 0F       		.byte	15
 869 01b0 7F       		.byte	127
 870 01b1 E0       		.byte	-32
 871 01b2 08       		.byte	8
 872 01b3 13       		.byte	19
 873 01b4 28       		.byte	40
 874 01b5 00       		.byte	0
 875 01b6 00       		.byte	0
 876 01b7 28       		.byte	40
 877 01b8 00       		.byte	0
 878 01b9 00       		.byte	0
 879 01ba 41       		.byte	65
 880 01bb 00       		.byte	0
 881 01bc 36       		.byte	54
 882 01bd 05       		.byte	5
 883 01be 40       		.byte	64
 884 01bf 00       		.byte	0
 885 01c0 02       		.byte	2
 886 01c1 BE       		.byte	-66
 887 01c2 F0       		.byte	-16
 888 01c3 DC       		.byte	-36
 889 01c4 3B       		.byte	59
 890 01c5 FF       		.byte	-1
 891 01c6 FF       		.byte	-1
 892 01c7 FF       		.byte	-1
 893 01c8 22       		.byte	34
 894 01c9 00       		.byte	0
 895 01ca F0       		.byte	-16
 896 01cb 08       		.byte	8
 897 01cc 04       		.byte	4
ARM GAS  C:\Users\ABAD_S~1\AppData\Local\Temp\ccrOAQLN.s 			page 27


 898 01cd 00       		.byte	0
 899 01ce 00       		.byte	0
 900 01cf 00       		.byte	0
 901 01d0 00       		.byte	0
 902 01d1 00       		.byte	0
 903 01d2 02       		.byte	2
 904 01d3 2C       		.byte	44
 905 01d4 04       		.byte	4
 906 01d5 04       		.byte	4
 907 01d6 04       		.byte	4
 908 01d7 04       		.byte	4
 909 01d8 00       		.byte	0
 910 01d9 00       		.byte	0
 911 01da 00       		.byte	0
 912 01db 01       		.byte	1
 913 01dc 00       		.byte	0
 914 01dd 00       		.byte	0
 915 01de C0       		.byte	-64
 916 01df 00       		.byte	0
 917 01e0 40       		.byte	64
 918 01e1 01       		.byte	1
 919 01e2 10       		.byte	16
 920 01e3 11       		.byte	17
 921 01e4 C0       		.byte	-64
 922 01e5 01       		.byte	1
 923 01e6 00       		.byte	0
 924 01e7 11       		.byte	17
 925 01e8 40       		.byte	64
 926 01e9 01       		.byte	1
 927 01ea 40       		.byte	64
 928 01eb 01       		.byte	1
 929 01ec 00       		.byte	0
 930 01ed 00       		.byte	0
 931 01ee 00       		.byte	0
 932 01ef 00       		.byte	0
 933 01f0 00       		.byte	0
 934 01f1 00       		.byte	0
 935 01f2 00       		.byte	0
 936 01f3 00       		.byte	0
 937 01f4 00       		.byte	0
 938 01f5 00       		.byte	0
 939 01f6 00       		.byte	0
 940 01f7 00       		.byte	0
 941 01f8 00       		.byte	0
 942 01f9 00       		.byte	0
 943 01fa 00       		.byte	0
 944 01fb 00       		.byte	0
 945              		.text
 946              	.Letext0:
 947              		.file 2 "c:\\program files (x86)\\cypress\\psoc creator\\4.2\\psoc creator\\import\\gnu\\arm\\5.4.
 948              		.file 3 "Generated_Source\\PSoC4\\cytypes.h"
 949              		.file 4 "Generated_Source\\PSoC4\\CyLib.h"