ARM GAS  C:\Users\FIRSTP~1\AppData\Local\Temp\cc0XGUpP.s 			page 1


   1              		.syntax unified
   2              		.cpu cortex-m0
   3              		.fpu softvfp
   4              		.eabi_attribute 20, 1
   5              		.eabi_attribute 21, 1
   6              		.eabi_attribute 23, 3
   7              		.eabi_attribute 24, 1
   8              		.eabi_attribute 25, 1
   9              		.eabi_attribute 26, 1
  10              		.eabi_attribute 30, 1
  11              		.eabi_attribute 34, 0
  12              		.eabi_attribute 18, 4
  13              		.thumb
  14              		.syntax unified
  15              		.file	"main.c"
  16              		.text
  17              	.Ltext0:
  18              		.cfi_sections	.debug_frame
  19              		.section	.text.stack_handler,"ax",%progbits
  20              		.align	2
  21              		.global	stack_handler
  22              		.code	16
  23              		.thumb_func
  24              		.type	stack_handler, %function
  25              	stack_handler:
  26              	.LFB36:
  27              		.file 1 "main.c"
   1:main.c        **** #include "project.h"  
   2:main.c        **** #include <stdio.h>  
   3:main.c        **** #include <stdlib.h>
   4:main.c        **** 
   5:main.c        **** short afstand = 0;
   6:main.c        **** 
   7:main.c        **** void stack_handler(uint32 eventCode , void *eventParam)
   8:main.c        **** {   
  28              		.loc 1 8 0
  29              		.cfi_startproc
  30              		@ args = 0, pretend = 0, frame = 16
  31              		@ frame_needed = 0, uses_anonymous_args = 0
  32              	.LVL0:
  33 0000 10B5     		push	{r4, lr}
  34              		.cfi_def_cfa_offset 8
  35              		.cfi_offset 4, -8
  36              		.cfi_offset 14, -4
  37 0002 84B0     		sub	sp, sp, #16
  38              		.cfi_def_cfa_offset 24
  39 0004 0400     		movs	r4, r0
   9:main.c        ****     CYBLE_GATTS_HANDLE_VALUE_NTF_T test;
  10:main.c        ****     test.attrHandle = CYBLE_ULTRARANGESENSOR_SENSOR_CHAR_HANDLE;
  40              		.loc 1 10 0
  41 0006 01A8     		add	r0, sp, #4
  42              	.LVL1:
  43 0008 1223     		movs	r3, #18
  44 000a 0381     		strh	r3, [r0, #8]
  11:main.c        ****     test.value.val = (uint8*)&afstand;
  45              		.loc 1 11 0
  46 000c 184B     		ldr	r3, .L8
ARM GAS  C:\Users\FIRSTP~1\AppData\Local\Temp\cc0XGUpP.s 			page 2


  47 000e 0193     		str	r3, [sp, #4]
  12:main.c        ****     test.value.len = 1;
  48              		.loc 1 12 0
  49 0010 0123     		movs	r3, #1
  50 0012 8380     		strh	r3, [r0, #4]
  13:main.c        ****     CyBle_GattsWriteAttributeValue( &test, 0, &cyBle_connHandle, CYBLE_GATT_DB_LOCALLY_INITIATED);
  51              		.loc 1 13 0
  52 0014 0023     		movs	r3, #0
  53 0016 174A     		ldr	r2, .L8+4
  54 0018 0021     		movs	r1, #0
  55              	.LVL2:
  56 001a FFF7FEFF 		bl	CyBle_GattsWriteAttributeValue
  57              	.LVL3:
  14:main.c        ****     
  15:main.c        ****     switch(eventCode)
  58              		.loc 1 15 0
  59 001e 262C     		cmp	r4, #38
  60 0020 1AD0     		beq	.L3
  61 0022 02D8     		bhi	.L4
  62 0024 012C     		cmp	r4, #1
  63 0026 05D0     		beq	.L5
  64 0028 1FE0     		b	.L1
  65              	.L4:
  66 002a 412C     		cmp	r4, #65
  67 002c 06D0     		beq	.L6
  68 002e 422C     		cmp	r4, #66
  69 0030 0BD0     		beq	.L7
  70 0032 1AE0     		b	.L1
  71              	.L5:
  16:main.c        ****     { 
  17:main.c        ****         case CYBLE_EVT_STACK_ON:
  18:main.c        ****             CyBle_GappStartAdvertisement(CYBLE_ADVERTISING_FAST);
  72              		.loc 1 18 0
  73 0034 0020     		movs	r0, #0
  74 0036 FFF7FEFF 		bl	CyBle_GappStartAdvertisement
  75              	.LVL4:
  19:main.c        ****             break;
  76              		.loc 1 19 0
  77 003a 16E0     		b	.L1
  78              	.L6:
  20:main.c        ****             
  21:main.c        ****         case CYBLE_EVT_GATT_CONNECT_IND:
  22:main.c        ****             Rood_Write(0);
  79              		.loc 1 22 0
  80 003c 0020     		movs	r0, #0
  81 003e FFF7FEFF 		bl	Rood_Write
  82              	.LVL5:
  23:main.c        ****             Blauw_Write(1);
  83              		.loc 1 23 0
  84 0042 0120     		movs	r0, #1
  85 0044 FFF7FEFF 		bl	Blauw_Write
  86              	.LVL6:
  24:main.c        ****             break;
  87              		.loc 1 24 0
  88 0048 0FE0     		b	.L1
  89              	.L7:
  25:main.c        ****             
ARM GAS  C:\Users\FIRSTP~1\AppData\Local\Temp\cc0XGUpP.s 			page 3


  26:main.c        ****         case CYBLE_EVT_GATT_DISCONNECT_IND:
  27:main.c        ****             Rood_Write(1);
  90              		.loc 1 27 0
  91 004a 0120     		movs	r0, #1
  92 004c FFF7FEFF 		bl	Rood_Write
  93              	.LVL7:
  28:main.c        ****             Blauw_Write(0);
  94              		.loc 1 28 0
  95 0050 0020     		movs	r0, #0
  96 0052 FFF7FEFF 		bl	Blauw_Write
  97              	.LVL8:
  29:main.c        ****             break; 
  98              		.loc 1 29 0
  99 0056 08E0     		b	.L1
 100              	.L3:
  30:main.c        ****             
  31:main.c        ****         case CYBLE_EVT_GAPP_ADVERTISEMENT_START_STOP:	
  32:main.c        ****             if(CyBle_GetState() == CYBLE_STATE_DISCONNECTED)
 101              		.loc 1 32 0
 102 0058 074B     		ldr	r3, .L8+8
 103 005a 1B78     		ldrb	r3, [r3]
 104 005c 062B     		cmp	r3, #6
 105 005e 04D1     		bne	.L1
  33:main.c        ****             {            
  34:main.c        ****             CySysPmSetWakeupPolarity(CY_PM_STOP_WAKEUP_ACTIVE_HIGH);
 106              		.loc 1 34 0
 107 0060 0120     		movs	r0, #1
 108 0062 FFF7FEFF 		bl	CySysPmSetWakeupPolarity
 109              	.LVL9:
  35:main.c        ****             CySysPmStop();            
 110              		.loc 1 35 0
 111 0066 FFF7FEFF 		bl	CySysPmStop
 112              	.LVL10:
 113              	.L1:
  36:main.c        ****             }
  37:main.c        ****             break;
  38:main.c        ****     }
  39:main.c        **** }
 114              		.loc 1 39 0
 115 006a 04B0     		add	sp, sp, #16
 116              		@ sp needed
 117              	.LVL11:
 118 006c 10BD     		pop	{r4, pc}
 119              	.L9:
 120 006e C046     		.align	2
 121              	.L8:
 122 0070 00000000 		.word	.LANCHOR0
 123 0074 00000000 		.word	cyBle_connHandle
 124 0078 00000000 		.word	cyBle_state
 125              		.cfi_endproc
 126              	.LFE36:
 127              		.size	stack_handler, .-stack_handler
 128              		.section	.text.main,"ax",%progbits
 129              		.align	2
 130              		.global	main
 131              		.code	16
 132              		.thumb_func
ARM GAS  C:\Users\FIRSTP~1\AppData\Local\Temp\cc0XGUpP.s 			page 4


 133              		.type	main, %function
 134              	main:
 135              	.LFB37:
  40:main.c        ****     
  41:main.c        **** int main(void)  
  42:main.c        **** {  
 136              		.loc 1 42 0
 137              		.cfi_startproc
 138              		@ args = 0, pretend = 0, frame = 8
 139              		@ frame_needed = 0, uses_anonymous_args = 0
 140 0000 00B5     		push	{lr}
 141              		.cfi_def_cfa_offset 4
 142              		.cfi_offset 14, -4
 143 0002 83B0     		sub	sp, sp, #12
 144              		.cfi_def_cfa_offset 16
  43:main.c        ****     CyGlobalIntEnable; /* Enable global interrupts. */  
 145              		.loc 1 43 0
 146              		.syntax divided
 147              	@ 43 "main.c" 1
 148 0004 62B6     		CPSIE   i
 149              	@ 0 "" 2
  44:main.c        ****     
  45:main.c        ****     UART_Start();  
 150              		.loc 1 45 0
 151              		.thumb
 152              		.syntax unified
 153 0006 FFF7FEFF 		bl	UART_Start
 154              	.LVL12:
  46:main.c        ****     PWM_Start(); 
 155              		.loc 1 46 0
 156 000a FFF7FEFF 		bl	PWM_Start
 157              	.LVL13:
  47:main.c        ****     Timer_Start();
 158              		.loc 1 47 0
 159 000e FFF7FEFF 		bl	Timer_Start
 160              	.LVL14:
  48:main.c        ****   
  49:main.c        ****     PWM_WritePeriod(255);
 161              		.loc 1 49 0
 162 0012 FF20     		movs	r0, #255
 163 0014 FFF7FEFF 		bl	PWM_WritePeriod
 164              	.LVL15:
  50:main.c        ****     PWM_WriteCompare(127);
 165              		.loc 1 50 0
 166 0018 7F20     		movs	r0, #127
 167 001a FFF7FEFF 		bl	PWM_WriteCompare
 168              	.LVL16:
  51:main.c        ****   
  52:main.c        ****     CyBle_Start(stack_handler);
 169              		.loc 1 52 0
 170 001e 1248     		ldr	r0, .L13
 171 0020 FFF7FEFF 		bl	CyBle_Start
 172              	.LVL17:
 173              	.L12:
  53:main.c        ****     char string[1];
  54:main.c        ****     for(;;)
  55:main.c        ****     {
ARM GAS  C:\Users\FIRSTP~1\AppData\Local\Temp\cc0XGUpP.s 			page 5


  56:main.c        ****           if(Echo_Read() == 1)
 174              		.loc 1 56 0
 175 0024 FFF7FEFF 		bl	Echo_Read
 176              	.LVL18:
 177 0028 0128     		cmp	r0, #1
 178 002a 19D1     		bne	.L11
  57:main.c        ****          {        
  58:main.c        ****           afstand = (Timer_ReadCounter()/4);
 179              		.loc 1 58 0
 180 002c FFF7FEFF 		bl	Timer_ReadCounter
 181              	.LVL19:
 182 0030 8008     		lsrs	r0, r0, #2
 183 0032 00B2     		sxth	r0, r0
 184 0034 0D4B     		ldr	r3, .L13+4
 185 0036 1880     		strh	r0, [r3]
  59:main.c        ****           itoa(afstand,string,10);
 186              		.loc 1 59 0
 187 0038 0A22     		movs	r2, #10
 188 003a 01A9     		add	r1, sp, #4
 189 003c FFF7FEFF 		bl	itoa
 190              	.LVL20:
  60:main.c        ****           UART_UartPutString("Afstand in cm: ");
 191              		.loc 1 60 0
 192 0040 0B48     		ldr	r0, .L13+8
 193 0042 FFF7FEFF 		bl	UART_UartPutString
 194              	.LVL21:
  61:main.c        ****           UART_UartPutString(string);
 195              		.loc 1 61 0
 196 0046 01A8     		add	r0, sp, #4
 197 0048 FFF7FEFF 		bl	UART_UartPutString
 198              	.LVL22:
  62:main.c        ****           UART_UartPutString("\n\r");
 199              		.loc 1 62 0
 200 004c 0948     		ldr	r0, .L13+12
 201 004e FFF7FEFF 		bl	UART_UartPutString
 202              	.LVL23:
  63:main.c        ****           Timer_WriteCounter(0);
 203              		.loc 1 63 0
 204 0052 0020     		movs	r0, #0
 205 0054 FFF7FEFF 		bl	Timer_WriteCounter
 206              	.LVL24:
  64:main.c        ****           CyDelay(500);
 207              		.loc 1 64 0
 208 0058 FA20     		movs	r0, #250
 209 005a 4000     		lsls	r0, r0, #1
 210 005c FFF7FEFF 		bl	CyDelay
 211              	.LVL25:
 212              	.L11:
  65:main.c        ****         }
  66:main.c        ****               
  67:main.c        ****          CyBle_ProcessEvents();  /* Place your application code here.*/
 213              		.loc 1 67 0
 214 0060 FFF7FEFF 		bl	CyBle_ProcessEvents
 215              	.LVL26:
  68:main.c        ****     }  
 216              		.loc 1 68 0
 217 0064 DEE7     		b	.L12
ARM GAS  C:\Users\FIRSTP~1\AppData\Local\Temp\cc0XGUpP.s 			page 6


 218              	.L14:
 219 0066 C046     		.align	2
 220              	.L13:
 221 0068 00000000 		.word	stack_handler
 222 006c 00000000 		.word	.LANCHOR0
 223 0070 00000000 		.word	.LC5
 224 0074 10000000 		.word	.LC7
 225              		.cfi_endproc
 226              	.LFE37:
 227              		.size	main, .-main
 228              		.global	afstand
 229              		.section	.rodata.str1.4,"aMS",%progbits,1
 230              		.align	2
 231              	.LC5:
 232 0000 41667374 		.ascii	"Afstand in cm: \000"
 232      616E6420 
 232      696E2063 
 232      6D3A2000 
 233              	.LC7:
 234 0010 0A0D00   		.ascii	"\012\015\000"
 235              		.bss
 236              		.align	1
 237              		.set	.LANCHOR0,. + 0
 238              		.type	afstand, %object
 239              		.size	afstand, 2
 240              	afstand:
 241 0000 0000     		.space	2
 242              		.text
 243              	.Letext0:
 244              		.file 2 "Generated_Source\\PSoC4/cytypes.h"
 245              		.file 3 "Generated_Source\\PSoC4/BLE_StackGatt.h"
 246              		.file 4 "Generated_Source\\PSoC4/BLE_StackGattServer.h"
 247              		.file 5 "Generated_Source\\PSoC4/BLE_Stack.h"
 248              		.file 6 "Generated_Source\\PSoC4/BLE_eventHandler.h"
 249              		.file 7 "Generated_Source\\PSoC4/BLE_StackGattDb.h"
 250              		.file 8 "Generated_Source\\PSoC4/BLE.h"
 251              		.file 9 "Generated_Source\\PSoC4/Rood.h"
 252              		.file 10 "Generated_Source\\PSoC4/Blauw.h"
 253              		.file 11 "Generated_Source\\PSoC4/cyPm.h"
 254              		.file 12 "Generated_Source\\PSoC4/UART.h"
 255              		.file 13 "Generated_Source\\PSoC4/PWM.h"
 256              		.file 14 "Generated_Source\\PSoC4/Timer.h"
 257              		.file 15 "Generated_Source\\PSoC4/Echo.h"
 258              		.file 16 "c:\\program files (x86)\\cypress\\psoc creator\\4.2\\psoc creator\\import\\gnu\\arm\\5.4
 259              		.file 17 "Generated_Source\\PSoC4/UART_SPI_UART.h"
 260              		.file 18 "Generated_Source\\PSoC4/CyLib.h"